 piMASS

 Timestamp is 5f341d79 (Wed Aug 12 18:48:57 2020)

 Preferred load address is 0000000140000000

 Start         Length     Name                   Class
 0001:00000000 0008a0c8H .textbss                DATA
 0002:00000000 000209e0H .text$di                CODE
 0002:000209e0 000f8f90H .text$mn                CODE
 0002:00119970 00001020H .text$mn$00             CODE
 0002:0011a990 00003610H .text$x                 CODE
 0002:0011dfa0 000010e8H .text$yd                CODE
 0003:00000000 00000110H .CRT$XCA                DATA
 0003:00000110 00000110H .CRT$XCAA               DATA
 0003:00000220 00000450H .CRT$XCU                DATA
 0003:00000670 00000110H .CRT$XCZ                DATA
 0003:00000780 00000110H .CRT$XIA                DATA
 0003:00000890 00000110H .CRT$XIAA               DATA
 0003:000009a0 00000110H .CRT$XIAC               DATA
 0003:00000ab0 00000110H .CRT$XIC                DATA
 0003:00000bc0 00000110H .CRT$XIZ                DATA
 0003:00000cd0 00000008H .CRT$XLA                DATA
 0003:00000cd8 00000008H .CRT$XLZ                DATA
 0003:00000ce0 00000110H .CRT$XPA                DATA
 0003:00000df0 00000110H .CRT$XPZ                DATA
 0003:00000f00 00000110H .CRT$XTA                DATA
 0003:00001010 00000110H .CRT$XTZ                DATA
 0003:00001120 00036e38H .rdata                  DATA
 0003:00037f58 00000130H .rdata$T                DATA
 0003:00038088 00000608H .rdata$r                DATA
 0003:00038690 00000180H .rdata$zzzdbg           DATA
 0003:00038810 00000110H .rtc$IAA                DATA
 0003:00038920 000003b8H .rtc$IMZ                DATA
 0003:00038cd8 00000110H .rtc$IZZ                DATA
 0003:00038de8 00000110H .rtc$TAA                DATA
 0003:00038ef8 000003b8H .rtc$TMZ                DATA
 0003:000392b0 00000110H .rtc$TZZ                DATA
 0003:000393c0 0000a0f0H .xdata                  DATA
 0003:000434b0 00000274H .xdata$x                DATA
 0003:00043724 00000000H .edata                  DATA
 0004:00000000 00005580H .data                   DATA
 0004:00005580 00000290H .data$r                 DATA
 0004:00005810 0008f8e0H .bss                    DATA
 0005:00000000 00007e9cH .pdata                  DATA
 0006:00000000 00000cd8H .idata$5                DATA
 0006:00000cd8 000000dcH .idata$2                DATA
 0006:00000db4 00000014H .idata$3                DATA
 0006:00000dc8 00000cd8H .idata$4                DATA
 0006:00001aa0 000016f9H .idata$6                DATA
 0007:00000000 0000108bH .msvcjmc                DATA
 0008:00000000 00000104H .tls                    DATA
 0008:00000104 00000104H .tls$                   DATA
 0008:00000208 00000101H .tls$ZZZ                DATA
 0009:00000000 0000011bH .00cfg                  DATA
 000a:00000000 00000170H .rsrc$01                DATA
 000a:00000170 000002ccH .rsrc$02                DATA

  Address         Publics by Value              Rva+Base               Lib:Object

 0000:00000000       __guard_fids_count         0000000000000000     <absolute>
 0000:00000000       ___safe_se_handler_table   0000000000000000     <absolute>
 0000:00000000       __AbsoluteZero             0000000000000000     <absolute>
 0000:00000000       __hybrid_auxiliary_iat     0000000000000000     <absolute>
 0000:00000000       __guard_iat_table          0000000000000000     <absolute>
 0000:00000000       __guard_iat_count          0000000000000000     <absolute>
 0000:00000000       __enclave_config           0000000000000000     <absolute>
 0000:00000000       __guard_longjmp_table      0000000000000000     <absolute>
 0000:00000000       __hybrid_code_map_count    0000000000000000     <absolute>
 0000:00000000       ___safe_se_handler_count   0000000000000000     <absolute>
 0000:00000000       __hybrid_code_map          0000000000000000     <absolute>
 0000:00000000       __guard_longjmp_count      0000000000000000     <absolute>
 0000:00000000       __volatile_metadata        0000000000000000     <absolute>
 0000:00000000       __dynamic_value_reloc_table 0000000000000000     <absolute>
 0000:00000000       __guard_fids_table         0000000000000000     <absolute>
 0000:00000100       __guard_flags              0000000000000100     <absolute>
 0000:00000000       __ImageBase                0000000140000000     <linker-defined>
 0001:00000000       __enc$textbss$begin        0000000140001000     <linker-defined>
 0001:0008a0c8       __enc$textbss$end          000000014008b0c8     <linker-defined>
 0002:000209e0       ??0U1x4@@QEAA@I@Z          00000001400ac9e0 f i gpcalu.obj
 0002:00020a50       ??0U1x4@@QEAA@XZ           00000001400aca50 f i gpcalu.obj
 0002:00020ab0       ??0U4x2@@QEAA@II@Z         00000001400acab0 f i gpcalu.obj
 0002:00020b40       ??0U4x2@@QEAA@XZ           00000001400acb40 f i gpcalu.obj
 0002:00020ba0       ??0gpcREG@@QEAA@XZ         00000001400acba0 f i gpcalu.obj
 0002:00020c50       ??1gpcREG@@QEAA@XZ         00000001400acc50 f i gpcalu.obj
 0002:00020d00       ??1gpcRES@@QEAA@XZ         00000001400acd00 f i gpcalu.obj
 0002:00020d80       ??4gpcREG@@QEAAAEAV0@N@Z   00000001400acd80 f i gpcalu.obj
 0002:00020f30       ??4gpcREG@@QEAAAEAV0@_J@Z  00000001400acf30 f i gpcalu.obj
 0002:00021020       ??4gpcREG@@QEAAAEAV0@_K@Z  00000001400ad020 f i gpcalu.obj
 0002:000210b0       ??HU4x2@@QEBA?AV0@I@Z      00000001400ad0b0 f i gpcalu.obj
 0002:00021160       ??XgpcALU@@QEAAAEAV0@AEAV0@@Z 00000001400ad160 f   gpcalu.obj
 0002:000212d0       ??YgpcALU@@QEAAAEAV0@AEAV0@@Z 00000001400ad2d0 f   gpcalu.obj
 0002:00021440       ??ZU4x2@@QEAAAEAV0@AEBV0@@Z 00000001400ad440 f i gpcalu.obj
 0002:000214f0       ??ZgpcALU@@QEAAAEAV0@AEAV0@@Z 00000001400ad4f0 f   gpcalu.obj
 0002:00021660       ??_0gpcALU@@QEAAAEAV0@AEAV0@@Z 00000001400ad660 f   gpcalu.obj
 0002:000217d0       ??_1gpcALU@@QEAAAEAV0@AEAV0@@Z 00000001400ad7d0 f   gpcalu.obj
 0002:00021940       ??_EgpcRES@@QEAAPEAXI@Z    00000001400ad940 f i gpcalu.obj
 0002:00021a60       ??_GgpcRES@@QEAAPEAXI@Z    00000001400ada60 f i gpcalu.obj
 0002:00021af0       ??_H@YAXPEAX_K1P6APEAX0@Z@Z 00000001400adaf0 f i gpcalu.obj
 0002:00021bf0       ?ALUdatHARD@gpcALU@@QEAAPEAEPEAVgpcRES@@VU4x2@@VU1x4@@D@Z 00000001400adbf0 f   gpcalu.obj
 0002:000220e0       ?AN@gpcALU@@QEAAAEAVU4x4@@XZ 00000001400ae0e0 f i gpcalu.obj
 0002:00022210       ?ANmx@gpcALU@@QEAAAEAVU4x4@@VU4x2@@@Z 00000001400ae210 f i gpcalu.obj
 0002:000222d0       ?TYPmx@gpcALU@@QEAAAEAVU1x4@@I@Z 00000001400ae2d0 f i gpcalu.obj
 0002:00022380       ?__empty_global_delete@@YAXPEAX@Z 00000001400ae380 f i gpcalu.obj
 0002:000223e0       ?__empty_global_delete@@YAXPEAXW4align_val_t@std@@@Z 00000001400ae3e0 f i gpcalu.obj
 0002:00022440       ?__empty_global_delete@@YAXPEAX_K@Z 00000001400ae440 f i gpcalu.obj
 0002:000224a0       ?__empty_global_delete@@YAXPEAX_KW4align_val_t@std@@@Z 00000001400ae4a0 f i gpcalu.obj
 0002:00022500       ?area@U4x2@@QEBA_KXZ       00000001400ae500 f i gpcalu.obj
 0002:000225a0       ?chg@gpcRES@@QEAAPEAV1@AEAVgpcALU@@@Z 00000001400ae5a0 f i gpcalu.obj
 0002:00022bc0       ?d8@gpcALU@@QEAANXZ        00000001400aebc0 f i gpcalu.obj
 0002:00022f30       ?i8@gpcALU@@QEAA_JXZ       00000001400aef30 f i gpcalu.obj
 0002:00023250       ?mx@U4x2@@QEAAAEAV1@V1@@Z  00000001400af250 f i gpcalu.obj
 0002:00023310       ?nALLOC@gpcALU@@QEAAIXZ    00000001400af310 f i gpcalu.obj
 0002:000233f0       ?typ@U1x4@@QEAAAEAV1@XZ    00000001400af3f0 f i gpcalu.obj
 0002:00023540       ?typ@gpcALU@@QEAAAEAVU1x4@@I@Z 00000001400af540 f i gpcalu.obj
 0002:000235d0       ?typ@gpcALU@@QEAAAEAVU1x4@@XZ 00000001400af5d0 f i gpcalu.obj
 0002:00023640       ?typMX@U1x4@@QEAAAEAV1@V1@@Z 00000001400af640 f i gpcalu.obj
 0002:00023840       ?typW@gpcALU@@QEBAEXZ      00000001400af840 f i gpcalu.obj
 0002:000238b0       ?typX@gpcALU@@QEBAEXZ      00000001400af8b0 f i gpcalu.obj
 0002:00023920       ?u8@gpcALU@@QEBA_KXZ       00000001400af920 f i gpcalu.obj
 0002:00023cb0       __JustMyCode_Default       00000001400afcb0 f i gpcalu.obj
 0002:00023cc0       ??$?6U?$char_traits@D@std@@@std@@YAAEAV?$basic_ostream@DU?$char_traits@D@std@@@0@AEAV10@PEBD@Z 00000001400afcc0 f i gpcDRCos.obj
 0002:00024220       ??$endl@DU?$char_traits@D@std@@@std@@YAAEAV?$basic_ostream@DU?$char_traits@D@std@@@0@AEAV10@@Z 00000001400b0220 f i gpcDRCos.obj
 0002:000242e0       ??$sqrt@HX@@YANH@Z         00000001400b02e0 f i gpcDRCos.obj
 0002:00024340       ??$sqrt@_JX@@YAN_J@Z       00000001400b0340 f i gpcDRCos.obj
 0002:000243b0       ??0F4@@QEAA@MMMM@Z         00000001400b03b0 f i gpcDRCos.obj
 0002:00024490       ??0F4@@QEAA@VI4x4@@@Z      00000001400b0490 f i gpcDRCos.obj
 0002:00024580       ??0F4@@QEAA@XZ             00000001400b0580 f i gpcDRCos.obj
 0002:000245e0       ??0F4x4@@QEAA@XZ           00000001400b05e0 f i gpcDRCos.obj
 0002:000246a0       ??0I4x2@@QEAA@HH@Z         00000001400b06a0 f i gpcDRCos.obj
 0002:00024730       ??0I4x4@@QEAA@HHHH@Z       00000001400b0730 f i gpcDRCos.obj
 0002:000247f0       ??0I4x4@@QEAA@XZ           00000001400b07f0 f i gpcDRCos.obj
 0002:00024850       ??0I8x2@@QEAA@HH@Z         00000001400b0850 f i gpcDRCos.obj
 0002:000248e0       ??0I8x2@@QEAA@XZ           00000001400b08e0 f i gpcDRCos.obj
 0002:00024940       ??0I8x2@@QEAA@_J0@Z        00000001400b0940 f i gpcDRCos.obj
 0002:000249e0       ??0I8x4@@QEAA@AEBVI8x2@@0@Z 00000001400b09e0 f i gpcDRCos.obj
 0002:00024aa0       ??0_Sentry_base@?$basic_ostream@DU?$char_traits@D@std@@@std@@QEAA@AEAV12@@Z 00000001400b0aa0 f i gpcDRCos.obj
 0002:00024b80       ??0gpcLZY@@QEAA@E@Z        00000001400b0b80 f i gpcDRCos.obj
 0002:00024c60       ??0gpcLZY@@QEAA@XZ         00000001400b0c60 f i gpcDRCos.obj
 0002:00024ce0       ??0sentry@?$basic_ostream@DU?$char_traits@D@std@@@std@@QEAA@AEAV12@@Z 00000001400b0ce0 f i gpcDRCos.obj
 0002:00024e50       ??1_Sentry_base@?$basic_ostream@DU?$char_traits@D@std@@@std@@QEAA@XZ 00000001400b0e50 f i gpcDRCos.obj
 0002:00024f10       ??1sentry@?$basic_ostream@DU?$char_traits@D@std@@@std@@QEAA@XZ 00000001400b0f10 f i gpcDRCos.obj
 0002:00024fa0       ??4F2@@QEAAAEAV0@AEBVI4x2@@@Z 00000001400b0fa0 f i gpcDRCos.obj
 0002:00025040       ??4F4x4@@QEAAAEAV0@M@Z     00000001400b1040 f i gpcDRCos.obj
 0002:00025150       ??4I4x2@@QEAAAEAV0@H@Z     00000001400b1150 f i gpcDRCos.obj
 0002:00025200       ??8I8x2@@QEBA_NAEBV0@@Z    00000001400b1200 f i gpcDRCos.obj
 0002:000252a0       ??9I8x2@@QEBA_NAEBV0@@Z    00000001400b12a0 f i gpcDRCos.obj
 0002:00025360       ??Bsentry@?$basic_ostream@DU?$char_traits@D@std@@@std@@QEBA_NXZ 00000001400b1360 f i gpcDRCos.obj
 0002:000253c0       ??DF4@@QEBA?AV0@M@Z        00000001400b13c0 f i gpcDRCos.obj
 0002:000254c0       ??DF4@@QEBAMAEBV0@@Z       00000001400b14c0 f i gpcDRCos.obj
 0002:000255a0       ??GI4x4@@QEBA?AV0@AEBV0@@Z 00000001400b15a0 f i gpcDRCos.obj
 0002:000256b0       ??HF4@@QEBA?AV0@AEBV0@@Z   00000001400b16b0 f i gpcDRCos.obj
 0002:000257c0       ??HI4x4@@QEBA?AV0@AEBV0@@Z 00000001400b17c0 f i gpcDRCos.obj
 0002:000258c0       ??HI8x2@@QEBA?AV0@AEBV0@@Z 00000001400b18c0 f i gpcDRCos.obj
 0002:00025970       ??II8x2@@QEBA?AV0@AEBV0@@Z 00000001400b1970 f i gpcDRCos.obj
 0002:00025a30       ??KI8x2@@QEBA?AV0@AEBV0@@Z 00000001400b1a30 f i gpcDRCos.obj
 0002:00025b60       ??KI8x2@@QEBA?AV0@_J@Z     00000001400b1b60 f i gpcDRCos.obj
 0002:00025c10       ??KI8x4@@QEBA?AV0@_J@Z     00000001400b1c10 f i gpcDRCos.obj
 0002:00025d30       ??XF4x4@@QEAAAEAV0@AEBV0@@Z 00000001400b1d30 f i gpcDRCos.obj
 0002:00026040       ??XI4x2@@QEAAAEAV0@H@Z     00000001400b2040 f i gpcDRCos.obj
 0002:00026120       ??YI4x2@@QEAAAEAV0@AEBV0@@Z 00000001400b2120 f i gpcDRCos.obj
 0002:000261d0       ??YI4x2@@QEAAAEAV0@H@Z     00000001400b21d0 f i gpcDRCos.obj
 0002:00026290       ??YI4x4@@QEAAAEAV0@AEBV0@@Z 00000001400b2290 f i gpcDRCos.obj
 0002:00026380       ??ZI4x2@@QEAAAEAV0@AEBV0@@Z 00000001400b2380 f i gpcDRCos.obj
 0002:00026430       ??_1I4x2@@QEAAAEAV0@H@Z    00000001400b2430 f i gpcDRCos.obj
 0002:00026510       ?ABC@F4x4@@QEAAAEAV1@VF4@@M@Z 00000001400b2510 f i gpcDRCos.obj
 0002:00026640       ?GTdrcOSrob@gpcGT@@QEAAPEAVgpcLZY@@PEAV2@PEAEAEAVgpcMASS@@_KI@Z 00000001400b2640 f   gpcDRCos.obj
 0002:00028ac0       ?LZY@gpcLZYall@@QEAAPEAVgpcLZY@@VI8x2@@@Z 00000001400b4ac0 f i gpcDRCos.obj
 0002:00029060       ?XdivRQ@I4x2@@QEAAAEAV1@H@Z 00000001400b5060 f i gpcDRCos.obj
 0002:000290f0       ?YdivQR@I4x2@@QEAAAEAV1@H@Z 00000001400b50f0 f i gpcDRCos.obj
 0002:00029240       ?a@F4x4@@QEAAAEAV1@MM@Z    00000001400b5240 f i gpcDRCos.obj
 0002:000293e0       ?abs0@I4x4@@QEBA?AV1@XZ    00000001400b53e0 f i gpcDRCos.obj
 0002:00029530       ?b@F4x4@@QEAAAEAV1@MM@Z    00000001400b5530 f i gpcDRCos.obj
 0002:000296d0       ?c@F4x4@@QEAAAEAV1@MM@Z    00000001400b56d0 f i gpcDRCos.obj
 0002:00029870       ?cageXYZ@gpcDrc@@QEAA?AVI4x4@@HI@Z 00000001400b5870 f   gpcDRCos.obj
 0002:00029ab0       ?cageXYZ@gpcDrc@@QEAA?AVI4x4@@V2@HI@Z 00000001400b5ab0 f   gpcDRCos.obj
 0002:00029cf0       ?cageXYZ@gpcDrc@@QEAA?AVI4x4@@V2@HPEAV2@I1I@Z 00000001400b5cf0 f   gpcDRCos.obj
 0002:00029fb0       ?col4x4@F4@@QEAAAEAV1@PEBM@Z 00000001400b5fb0 f i gpcDRCos.obj
 0002:0002a0c0       ?cos@@YAMM@Z               00000001400b60c0 f i gpcDRCos.obj
 0002:0002a120       ?eof@?$_Narrow_char_traits@DH@std@@SAHXZ 00000001400b6120 f i gpcDRCos.obj
 0002:0002a170       ?eq_int_type@?$_Narrow_char_traits@DH@std@@SA_NAEBH0@Z 00000001400b6170 f i gpcDRCos.obj
 0002:0002a210       ?format@gpcDrc@@QEAAAEAV1@I@Z 00000001400b6210 f i gpcDRCos.obj
 0002:0002a770       ?gpfSTR2I8@@YA_JPEAX0@Z    00000001400b6770 f i gpcDRCos.obj
 0002:0002a9f0       ?gpfUTF8@@YAIPEBEPEAPEAE@Z 00000001400b69f0 f i gpcDRCos.obj
 0002:0002ac90       ?gpfVAN@@YA_KPEBE0AEA_K_N@Z 00000001400b6c90 f i gpcDRCos.obj
 0002:0002b1c0       ?gr2cr@F4@@QEAAAEAV1@VI4x2@@N@Z 00000001400b71c0 f i gpcDRCos.obj
 0002:0002b480       ?jdPRGstp@gpcDrc@@QEAA_NI@Z 00000001400b7480 f   gpcDRCos.obj
 0002:0002ce30       ?length@?$_Narrow_char_traits@DH@std@@SA_KQEBD@Z 00000001400b8e30 f i gpcDRCos.obj
 0002:0002ced0       ?lim_mx@I4x4@@QEAA?AV1@H@Z 00000001400b8ed0 f i gpcDRCos.obj
 0002:0002cfd0       ?lim_mx@I4x4@@QEBA?AV1@AEBV1@H@Z 00000001400b8fd0 f i gpcDRCos.obj
 0002:0002d170       ?lzyADD@gpcLZY@@QEAAPEAV1@PEBX_KAEA_KE@Z 00000001400b9170 f i gpcDRCos.obj
 0002:0002d8e0       ?lzy_exp@gpcLZY@@QEAAPEAV1@AEA_K_K1E@Z 00000001400b98e0 f i gpcDRCos.obj
 0002:0002dfa0       ?lzy_exp_rand@gpcLZY@@QEAAPEAV1@AEA_K_K1E@Z 00000001400b9fa0 f i gpcDRCos.obj
 0002:0002e160       ?mx@I4x4@@QEAA?AVI4x2@@XZ  00000001400ba160 f i gpcDRCos.obj
 0002:0002e290       ?mx_mx@I4x4@@QEAA?AV1@H@Z  00000001400ba290 f i gpcDRCos.obj
 0002:0002e470       ?null@I4x2@@QEAAAEAV1@XZ   00000001400ba470 f i gpcDRCos.obj
 0002:0002e4f0       ?null@I4x4@@QEAAAEAV1@XZ   00000001400ba4f0 f i gpcDRCos.obj
 0002:0002e570       ?pSTR@I4x4@@QEAAPEADPEADPEBD1@Z 00000001400ba570 f i gpcDRCos.obj
 0002:0002e610       ?qlen_xyz@F4@@QEBANXZ      00000001400ba610 f i gpcDRCos.obj
 0002:0002e6d0       ?qlen_xyz@I4x4@@QEBA_JXZ   00000001400ba6d0 f i gpcDRCos.obj
 0002:0002e790       ?rdAN@gpcLZYall@@AEAA?AVI8x2@@I@Z 00000001400ba790 f i gpcDRCos.obj
 0002:0002e860       ?sin@@YAMM@Z               00000001400ba860 f i gpcDRCos.obj
 0002:0002e8c0       ?snail@I4x2@@QEAAAEAV1@H@Z 00000001400ba8c0 f i gpcDRCos.obj
 0002:0002eba0       ?str@I4x4@@QEAA_KPEADPEBD1@Z 00000001400baba0 f i gpcDRCos.obj
 0002:0002ecb0       ?sum@I4x2@@QEBA_JXZ        00000001400bacb0 f i gpcDRCos.obj
 0002:0002ed20       ?swp@I4x2@@QEAAAEAV1@XZ    00000001400bad20 f i gpcDRCos.obj
 0002:0002edb0       ?wrAN@gpcLZYall@@AEAAAEAVI8x2@@I@Z 00000001400badb0 f i gpcDRCos.obj
 0002:0002ee90       ?xyz0@I4x4@@QEBA?AV1@XZ    00000001400bae90 f i gpcDRCos.obj
 0002:0002ef30       ?xyz_@I4x4@@QEAAAEAV1@V1@@Z 00000001400baf30 f i gpcDRCos.obj
 0002:0002efe0       __local_stdio_printf_options 00000001400bafe0 f i gpcDRCos.obj
 0002:0002f030       _vsnprintf_l               00000001400bb030 f i gpcDRCos.obj
 0002:0002f120       _vsprintf_l                00000001400bb120 f i gpcDRCos.obj
 0002:0002f1c0       sprintf                    00000001400bb1c0 f i gpcDRCos.obj
 0002:0002f280       ??DF4@@QEBA?AV0@AEBVF4x4@@@Z 00000001400bb280 f   gpcF4.obj
 0002:0002f470       ??GF4@@QEBA?AV0@AEBV0@@Z   00000001400bb470 f i gpcF4.obj
 0002:0002f580       ??KF4@@QEBA?AV0@AEBVF4x4@@@Z 00000001400bb580 f   gpcF4.obj
 0002:0002f6f0       ??XF4@@QEAAAEAV0@AEBVF4x4@@@Z 00000001400bb6f0 f   gpcF4.obj
 0002:0002f8f0       ??ZF2@@QEAAAEAV0@AEBV0@@Z  00000001400bb8f0 f i gpcF4.obj
 0002:0002f9b0       ??ZF4@@QEAAAEAV0@AEBV0@@Z  00000001400bb9b0 f i gpcF4.obj
 0002:0002faa0       ??_0F4@@QEAAAEAV0@AEBVF4x4@@@Z 00000001400bbaa0 f   gpcF4.obj
 0002:0002fbb0       ??0I4x2@@QEAA@XZ           00000001400bbbb0 f i gpcGL.obj
 0002:0002fc10       ??0gpcGL@@QEAA@AEAVgpcWIN@@@Z 00000001400bbc10 f   gpcGL.obj
 0002:00030250       ??0gpcGLSL@@AEAA@AEBVI8x2@@PEBD1@Z 00000001400bc250 f i gpcGL.obj
 0002:00030400       ??1gpcGLSL@@QEAA@XZ        00000001400bc400 f i gpcGL.obj
 0002:000304d0       ??1gpcLZY@@QEAA@XZ         00000001400bc4d0 f i gpcGL.obj
 0002:00030540       ??9I4x2@@QEBA_NAEBV0@@Z    00000001400bc540 f i gpcGL.obj
 0002:00030600       ??_GgpcGLSL@@QEAAPEAXI@Z   00000001400bc600 f i gpcGL.obj
 0002:00030690       ?GLSLfrg@gpcGL@@QEAAIPEBD@Z 00000001400bc690 f   gpcGL.obj
 0002:00030ba0       ?GLSLfrg@gpcGLSL@@AEAAHPEBD@Z 00000001400bcba0 f   gpcGL.obj
 0002:00030f20       ?GLSLlnk@gpcGLSL@@AEAAHPEAPEBD@Z 00000001400bcf20 f   gpcGL.obj
 0002:00031640       ?GLSLset@gpcGL@@QEAAPEAV1@AEBVI8x2@@PEBD1@Z 00000001400bd640 f   gpcGL.obj
 0002:00032250       ?GLSLset@gpcGL@@QEAAPEAV1@AEBVgpcALU@@PEBD1@Z 00000001400be250 f   gpcGL.obj
 0002:000323a0       ?GLSLvtx@gpcGL@@QEAAIPEBD@Z 00000001400be3a0 f   gpcGL.obj
 0002:000328b0       ?GLSLvtx@gpcGLSL@@AEAAHPEBD@Z 00000001400be8b0 f   gpcGL.obj
 0002:00032c10       ?bSTR@gpcALU@@QEBA_NXZ     00000001400bec10 f i gpcGL.obj
 0002:00032ca0       ?fndTX@gpcGLSL@@QEAAHPEBD@Z 00000001400beca0 f i gpcGL.obj
 0002:00032e50       ?glSETtrg@gpcGL@@QEAAPEAV1@PEAVgpcPIC@@VI4x2@@_N2@Z 00000001400bee50 f   gpcGL.obj
 0002:00033400       ?gp_memcmp@@YA_KPEBX0_K@Z  00000001400bf400 f i gpcGL.obj
 0002:00033640       ?gpfSTR2U8@@YA_KPEAX0@Z    00000001400bf640 f i gpcGL.obj
 0002:00033870       ?lzyINS@gpcLZY@@QEAAPEAV1@PEBE_KAEA_K1E@Z 00000001400bf870 f i gpcGL.obj
 0002:00033a20       ?lzyRST@gpcLZY@@QEAAPEAV1@XZ 00000001400bfa20 f i gpcGL.obj
 0002:00033c90       ?pNEW@gpcGLSL@@QEAAPEAV1@AEBVI8x2@@PEBD1111@Z 00000001400bfc90 f   gpcGL.obj
 0002:00033f90       ??0I8x2@@QEAA@W4gpeALF@@_J@Z 00000001400bff90 f i gpcgt.obj
 0002:00034030       ??0U4x4@@QEAA@XZ           00000001400c0030 f i gpcgt.obj
 0002:00034090       ??0gpcGT@@QEAA@VI8x2@@H_K@Z 00000001400c0090 f i gpcgt.obj
 0002:00034210       ??0gpcGTall@@QEAA@XZ       00000001400c0210 f i gpcgt.obj
 0002:00034290       ??0gpcHUD@@QEAA@XZ         00000001400c0290 f i gpcgt.obj
 0002:00034310       ??1gpcGT@@QEAA@XZ          00000001400c0310 f i gpcgt.obj
 0002:00034390       ??1gpcHUD@@QEAA@XZ         00000001400c0390 f i gpcgt.obj
 0002:00034430       ??_GgpcGT@@QEAAPEAXI@Z     00000001400c0430 f i gpcgt.obj
 0002:000344c0       ??_GgpcHUD@@QEAAPEAXI@Z    00000001400c04c0 f i gpcgt.obj
 0002:00034550       ??_GgpcLZY@@QEAAPEAXI@Z    00000001400c0550 f i gpcgt.obj
 0002:000345e0       ?DO@gpcLZY@@QEAAXXZ        00000001400c05e0 f i gpcgt.obj
 0002:00034670       ?GT@gpcGTall@@QEAAPEAVgpcGT@@W4gpeALF@@H@Z 00000001400c0670 f   gpcgt.obj
 0002:00034cf0       ?GT@gpcGTall@@QEAAPEAVgpcGT@@W4gpeALF@@PEAEI@Z 00000001400c0cf0 f   gpcgt.obj
 0002:00035680       ?GT@gpcGTall@@QEAAPEAVgpcGT@@_K@Z 00000001400c1680 f   gpcgt.obj
 0002:000357d0       ?GTacc@gpcGTall@@QEAAPEAVgpcGT@@_KH@Z 00000001400c17d0 f   gpcgt.obj
 0002:00035e50       ?GTclose@gpcGT@@QEAAPEAV1@XZ 00000001400c1e50 f i gpcgt.obj
 0002:00035ef0       ?GTclr@gpcGT@@QEAAPEAV1@XZ 00000001400c1ef0 f i gpcgt.obj
 0002:000364b0       ?GTcnct@gpcGT@@QEAA_JAEAVgpcWIN@@@Z 00000001400c24b0 f   gpcgt.obj
 0002:00037950       ?GTerr@gpcGT@@QEAAHPEADPEAPEAD@Z 00000001400c3950 f   gpcgt.obj
 0002:00037d30       ?GTlst@gpcGT@@QEAA_JAEAVgpcWIN@@AEAVgpcGTall@@@Z 00000001400c3d30 f   gpcgt.obj
 0002:00039d40       ?GTopt@gpcGT@@QEAAEPEADPEAPEADHI@Z 00000001400c5d40 f   gpcgt.obj
 0002:0003a7b0       ?GTprmpt@gpcGT@@QEAA_N_N@Z 00000001400c67b0 f i gpcgt.obj
 0002:0003a930       ?GTrcv@gpcGT@@QEAAPEADPEAD0I@Z 00000001400c6930 f   gpcgt.obj
 0002:0003ac00       ?GTsnd@gpcGT@@QEAAPEADPEAD0I@Z 00000001400c6c00 f   gpcgt.obj
 0002:0003b530       ?bGTdie@gpcGT@@QEAA_NXZ    00000001400c7530 f i gpcgt.obj
 0002:0003b5f0       ?clr@gpcGTall@@QEAAXXZ     00000001400c75f0 f   gpcgt.obj
 0002:0003b770       ?gpfSOC_CLOSE@@YA_KAEA_K@Z 00000001400c7770 f i gpcgt.obj
 0002:0003b810       ?iGT@gpcGTall@@QEAAPEAVgpcGT@@I@Z 00000001400c7810 f i gpcgt.obj
 0002:0003b920       ?isFD@gpcFD@@QEAA_N_K@Z    00000001400c7920 f i gpcgt.obj
 0002:0003b9d0       ?join@gpcGT_DWNL@@QEAAPEAVgpcLZY@@PEAV2@AEAVgpcGT@@0@Z 00000001400c79d0 f   gpcgt.obj
 0002:0003bc60       ?lzyPLUS@gpcLZY@@QEAAPEAV1@PEBV1@AEA_K@Z 00000001400c7c60 f i gpcgt.obj
 0002:0003bd30       ?lzySUB@gpcLZY@@QEAAPEAV1@AEA_K_K@Z 00000001400c7d30 f i gpcgt.obj
 0002:0003bfa0       ?lzy_reqCLOSE@gpcLZY@@QEAAPEAV1@XZ 00000001400c7fa0 f i gpcgt.obj
 0002:0003c030       ?put@gpcHUD@@QEAAPEAV1@PEBX_J@Z 00000001400c8030 f   gpcgt.obj
 0002:0003c390       ?qCLOSE@gpcLZY@@QEAA_NXZ   00000001400c8390 f i gpcgt.obj
 0002:0003c430       ?qEVENT@gpcLZY@@QEAAPEAV1@XZ 00000001400c8430 f   gpcgt.obj
 0002:0003c5d0       ?setFD@gpcFD@@QEAAI_K@Z    00000001400c85d0 f i gpcgt.obj
 0002:0003c780       ?strstr@@YAPEADQEADQEBD@Z  00000001400c8780 f i gpcgt.obj
 0002:0003c7f0       ?zero@gpcFD@@QEAAXI@Z      00000001400c87f0 f i gpcgt.obj
 0002:0003c8e0       ??0I8x4@@QEAA@_J000@Z      00000001400c88e0 f i gpcgtos.obj
 0002:0003c9b0       ??0gpcPIC@@QEAA@VI8x2@@I@Z 00000001400c89b0 f i gpcgtos.obj
 0002:0003cb20       ??0gpcSYNC@@QEAA@W4gpeNET4@@_KI1I@Z 00000001400c8b20 f i gpcgtos.obj
 0002:0003cc20       ??0thread@std@@QEAA@XZ     00000001400c8c20 f i gpcgtos.obj
 0002:0003cca0       ??4U4x2@@QEAAAEAV0@H@Z     00000001400c8ca0 f i gpcgtos.obj
 0002:0003cd50       ??4U4x4@@QEAAAEAV0@H@Z     00000001400c8d50 f i gpcgtos.obj
 0002:0003ce20       ??9gpcSYNC@@QEBA_NV0@@Z    00000001400c8e20 f i gpcgtos.obj
 0002:0003cee0       ??DU4x2@@QEBA_KAEBV0@@Z    00000001400c8ee0 f i gpcgtos.obj
 0002:0003cf80       ?GTos@gpcGT@@QEAAXAEAV1@PEAVgpcWIN@@PEAVgpcGTall@@@Z 00000001400c8f80 f   gpcgtos.obj
 0002:000412f0       ?GTos_GATELIST@gpcGT@@QEAAPEAVgpcLZY@@PEAV2@PEBD1@Z 00000001400cd2f0 f   gpcgtos.obj
 0002:00041710       ?GTout@gpcGT@@QEAA_KPEAVgpcWIN@@@Z 00000001400cd710 f   gpcgtos.obj
 0002:00041ea0       ?MAPalloc@gpcMAP@@QEAAPEAIAEBVU4x2@@AEAVU4x4@@I@Z 00000001400cdea0 f i gpcgtos.obj
 0002:00042c90       ?PIC@gpcPICall@@QEAAPEAVgpcPIC@@I@Z 00000001400cec90 f i gpcgtos.obj
 0002:00042de0       ?PIC@gpcPICall@@QEAAPEAVgpcPIC@@VI8x2@@@Z 00000001400cede0 f i gpcgtos.obj
 0002:000432e0       ?SYNrdy@gpcLZY@@QEAAPEAV1@I@Z 00000001400cf2e0 f i gpcgtos.obj
 0002:00043490       ?an2str@I8x2@@QEAA_KPEAXPEBE_N2@Z 00000001400cf490 f i gpcgtos.obj
 0002:000436a0       ?bINI_hst_usr@gpcWIN@@QEAA_NXZ 00000001400cf6a0 f i gpcgtos.obj
 0002:00043850       ?bLOOP@gpcGT@@QEAA_NXZ     00000001400cf850 f i gpcgtos.obj
 0002:000438e0       ?bSW@gpcSYNC@@QEAA_N_K@Z   00000001400cf8e0 f i gpcgtos.obj
 0002:00043980       ?bTEL@gpcGT@@QEAA_NXZ      00000001400cf980 f i gpcgtos.obj
 0002:00043a20       ?gpfACE@@YAHPEBDH@Z        00000001400cfa20 f i gpcgtos.obj
 0002:00043ab0       ?gpfALF2STR@@YA_KPEAX_J@Z  00000001400cfab0 f i gpcgtos.obj
 0002:00043cb0       ?gpfMset@@YAPEAXPEAX_K01@Z 00000001400cfcb0 f i gpcgtos.obj
 0002:00043eb0       ?iB@gpcSRC@@QEAA_KXZ       00000001400cfeb0 f i gpcgtos.obj
 0002:000441d0       ?iPUB@gpcSRC@@QEAA_KXZ     00000001400d01d0 f i gpcgtos.obj
 0002:00044240       ?lurd@I8x4@@QEAA?AV1@XZ    00000001400d0240 f i gpcgtos.obj
 0002:00044380       ?lzyRD@gpcLZY@@QEAAPEAV1@PEBDAEA_KE@Z 00000001400d0380 f i gpcgtos.obj
 0002:00044640       ?nB@gpcSYNC@@QEAAII@Z      00000001400d0640 f i gpcgtos.obj
 0002:000446f0       ?nB@gpcSYNC@@QEAAIXZ       00000001400d06f0 f i gpcgtos.obj
 0002:00044750       ?nLD@gpcLZY@@QEAA_K_K@Z    00000001400d0750 f i gpcgtos.obj
 0002:000447f0       ?nS@gpcSYNC@@QEAAIXZ       00000001400d07f0 f i gpcgtos.obj
 0002:00044860       ?n_ld@gpcSRC@@QEAA_K_K@Z   00000001400d0860 f i gpcgtos.obj
 0002:00044960       ?n_ld_add@gpcSRC@@QEAA_K_J@Z 00000001400d0960 f i gpcgtos.obj
 0002:00044a10       ?null@U4x2@@QEAAAEAV1@XZ   00000001400d0a10 f i gpcgtos.obj
 0002:00044a90       ?null@gpcHUD@@QEAAAEAV1@XZ 00000001400d0a90 f i gpcgtos.obj
 0002:00044b10       ?pM@gpcMASS@@QEAAPEAIAEAVU4x2@@E@Z 00000001400d0b10 f i gpcgtos.obj
 0002:00044c20       ?pPUB@gpcSRC@@QEAAPEAEXZ   00000001400d0c20 f i gpcgtos.obj
 0002:00044da0       ?pRE@gpcLAY@@QEAAPEAXIIII@Z 00000001400d0da0 f i gpcgtos.obj
 0002:00045000       ?pSRCstart@gpcSRC@@QEAAPEAE_NE@Z 00000001400d1000 f i gpcgtos.obj
 0002:00045320       ?ppSRC@gpcMASS@@AEAAPEAPEAVgpcSRC@@XZ 00000001400d1320 f i gpcgtos.obj
 0002:000453c0       ?putDBG@gpcWIN@@QEAAPEAVgpcLZY@@PEAV2@W4gpeNET4@@VI8x4@@PEAD@Z 00000001400d13c0 f i gpcgtos.obj
 0002:00045940       ?putLIST@gpcWIN@@QEAAPEAVgpcLZY@@PEAV2@W4gpeNET4@@VI8x4@@PEAD@Z 00000001400d1940 f i gpcgtos.obj
 0002:00045ec0       ?putMINI@gpcWIN@@QEAAPEAVgpcLZY@@PEAV2@W4gpeNET4@@VI8x4@@PEAD@Z 00000001400d1ec0 f i gpcgtos.obj
 0002:00046440       ?putPIC@gpcLZY@@QEAAPEAV1@PEAEI0I@Z 00000001400d2440 f i gpcgtos.obj
 0002:000466c0       ?putSYN@gpcLZY@@QEAAPEAV1@PEAV1@I_K1@Z 00000001400d26c0 f i gpcgtos.obj
 0002:00046b00       ?putZN@gpcLZY@@QEAAPEAV1@PEAEIW4gpeNET4@@II@Z 00000001400d2b00 f i gpcgtos.obj
 0002:00046cb0       ?srcFND@gpcMASS@@QEAAPEAVgpcSRC@@I@Z 00000001400d2cb0 f i gpcgtos.obj
 0002:00046e90       ?sum@U4x2@@QEBA_KXZ        00000001400d2e90 f i gpcgtos.obj
 0002:00046f30       ?syncADD@gpcLZY@@QEAAPEAV1@VgpcSYNC@@AEAI@Z 00000001400d2f30 f i gpcgtos.obj
 0002:000471f0       ?typ@gpcSYNC@@QEAA?AW4gpeNET4@@XZ 00000001400d31f0 f i gpcgtos.obj
 0002:00047250       ??0U4x4@@QEAA@IIII@Z       00000001400d3250 f i gpcGTslmp.obj
 0002:00047310       ??0gpcROB@@QEAA@AEBVgpcDrc@@@Z 00000001400d3310 f   gpcGTslmp.obj
 0002:000473c0       ??0gpcROB@@QEAA@XZ         00000001400d33c0 f i gpcGTslmp.obj
 0002:00047440       ??0gpcSLMP@@QEAA@GEEGEGGGGIEG@Z 00000001400d3440 f i gpcGTslmp.obj
 0002:000475b0       ??4gpcROB@@QEAAAEAV0@AEBVgpcDrc@@@Z 00000001400d35b0 f   gpcGTslmp.obj
 0002:000477e0       ??_4gpcROB@@QEAAAEAV0@AEBVgpcDrc@@@Z 00000001400d37e0 f   gpcGTslmp.obj
 0002:00047880       ?GTback@gpcGT@@QEAAPEAVgpcLZY@@XZ 00000001400d3880 f i gpcGTslmp.obj
 0002:00047a00       ?GTslmpBINref@gpcGT@@QEAAXAEAV1@PEAVgpcWIN@@PEAVgpcGTall@@@Z 00000001400d3a00 f   gpcGTslmp.obj
 0002:00048940       ?GTslmpDrcRob@gpcGT@@QEAAXAEAV1@PEAVgpcWIN@@PEAVgpcGTall@@@Z 00000001400d4940 f   gpcGTslmp.obj
 0002:0004ad30       ?GTslmpREF@gpcGT@@QEAAXAEAV1@PEAVgpcWIN@@PEAVgpcGTall@@@Z 00000001400d6d30 f   gpcGTslmp.obj
 0002:0004c900       ?bHS1o@gpcDrc@@QEBA_NXZ    00000001400d8900 f i gpcGTslmp.obj
 0002:0004c990       ?bNEXT@gpcROBnD@@QEAA_NXZ  00000001400d8990 f i gpcGTslmp.obj
 0002:0004ca20       ?bPULL@gpcROBnD@@QEAA_NXZ  00000001400d8a20 f i gpcGTslmp.obj
 0002:0004caf0       ?bWAIT@gpcROBnD@@QEAA_NXZ  00000001400d8af0 f i gpcGTslmp.obj
 0002:0004cbb0       ?format@gpcROBnD@@QEAAPEAV1@XZ 00000001400d8bb0 f i gpcGTslmp.obj
 0002:0004cd70       ?gpcGTslmpSTAT@gpcGT@@QEAAPEAVgpcLZY@@PEAV2@PEAG@Z 00000001400d8d70 f   gpcGTslmp.obj
 0002:0004cff0       ?gpfMM@@YA_KPEAE_K01PEAPEAE@Z 00000001400d8ff0 f i gpcGTslmp.obj
 0002:0004d1b0       ?iEndCD@gpcSLMP@@QEAA_KXZ  00000001400d91b0 f i gpcGTslmp.obj
 0002:0004d210       ?iWR@gpcROBnD@@QEAAEXZ     00000001400d9210 f i gpcGTslmp.obj
 0002:0004d270       ?ioROB@gpcROBnD@@QEAAAEAVgpcROB@@XZ 00000001400d9270 f i gpcGTslmp.obj
 0002:0004d2f0       ?nEND@gpcSLMP@@QEAA_KXZ    00000001400d92f0 f i gpcGTslmp.obj
 0002:0004d390       ?null@gpcROB@@QEAAAEAV1@XZ 00000001400d9390 f i gpcGTslmp.obj
 0002:0004d490       ?pCPY@gpcSLMP@@QEAAPEAEXZ  00000001400d9490 f i gpcGTslmp.obj
 0002:0004d500       ?pROBioU2@gpcROBnD@@QEAAPEAGXZ 00000001400d9500 f i gpcGTslmp.obj
 0002:0004d590       ?pU2inp@gpcROBnD@@QEAAPEAGXZ 00000001400d9590 f i gpcGTslmp.obj
 0002:0004d620       ?reset@gpcROBnD@@QEAAPEAV1@E@Z 00000001400d9620 f i gpcGTslmp.obj
 0002:0004d730       ?setIDev@gpcSLMP@@QEAAII@Z 00000001400d9730 f i gpcGTslmp.obj
 0002:0004d7d0       ?stpPULL@gpcROBnD@@QEAAIXZ 00000001400d97d0 f i gpcGTslmp.obj
 0002:0004d850       ?stpPUSH@gpcROBnD@@QEAAI_N@Z 00000001400d9850 f i gpcGTslmp.obj
 0002:0004d970       ??0F4@@QEAA@HHHH@Z         00000001400d9970 f i gpcGTslmpZS.obj
 0002:0004da40       ??0F4@@QEAA@NNNN@Z         00000001400d9a40 f i gpcGTslmpZS.obj
 0002:0004db20       ??0F4x4@@QEAA@M@Z          00000001400d9b20 f i gpcGTslmpZS.obj
 0002:0004dc80       ??0I4x4@@QEAA@VI4x2@@0@Z   00000001400d9c80 f i gpcGTslmpZS.obj
 0002:0004dd30       ??0I8x4@@QEAA@AEBVI4x4@@@Z 00000001400d9d30 f i gpcGTslmpZS.obj
 0002:0004de00       ??0gpcDrc@@QEAA@AEBVgpcZS@@I@Z 00000001400d9e00 f   gpcGTslmpZS.obj
 0002:0004e2e0       ??0gpcDrc@@QEAA@PEADVI4x4@@11@Z 00000001400da2e0 f   gpcGTslmpZS.obj
 0002:00050830       ??0gpcZS@@QEAA@AEBVgpcDrc@@@Z 00000001400dc830 f   gpcGTslmpZS.obj
 0002:00050950       ??1thread@std@@QEAA@XZ     00000001400dc950 f i gpcGTslmpZS.obj
 0002:000509d0       ??4gpcDrc@@QEAAAEAV0@AEBVgpcZS@@@Z 00000001400dc9d0 f   gpcGTslmpZS.obj
 0002:00051510       ??4gpcZS@@QEAAAEAV0@AEBVgpcDrc@@@Z 00000001400dd510 f   gpcGTslmpZS.obj
 0002:00051880       ??8I4x4@@QEBA_NAEBV0@@Z    00000001400dd880 f i gpcGTslmpZS.obj
 0002:00051920       ??9I4x4@@QEBA_NAEBV0@@Z    00000001400dd920 f i gpcGTslmpZS.obj
 0002:00051a30       ??HI8x4@@QEBA?AV0@AEBV0@@Z 00000001400dda30 f i gpcGTslmpZS.obj
 0002:00051b80       ??KF4@@QEBA?AV0@M@Z        00000001400ddb80 f i gpcGTslmpZS.obj
 0002:00051c80       ??KI4x2@@QEBA?AV0@H@Z      00000001400ddc80 f i gpcGTslmpZS.obj
 0002:00051df0       ??KI4x4@@QEBA?AV0@H@Z      00000001400dddf0 f i gpcGTslmpZS.obj
 0002:00051f20       ??KI8x2@@QEBA?AV0@AEBVI4x2@@@Z 00000001400ddf20 f i gpcGTslmpZS.obj
 0002:00052070       ??KI8x2@@QEBA?AV0@H@Z      00000001400de070 f i gpcGTslmpZS.obj
 0002:00052110       ??KI8x4@@QEBA?AV0@H@Z      00000001400de110 f i gpcGTslmpZS.obj
 0002:00052230       ??XI4x4@@QEAAAEAV0@H@Z     00000001400de230 f i gpcGTslmpZS.obj
 0002:000522f0       ??_0F2@@QEAAAEAV0@M@Z      00000001400de2f0 f i gpcGTslmpZS.obj
 0002:000523a0       ??_0F4@@QEAAAEAV0@M@Z      00000001400de3a0 f i gpcGTslmpZS.obj
 0002:00052460       ??_0I4x2@@QEAAAEAV0@H@Z    00000001400de460 f i gpcGTslmpZS.obj
 0002:00052550       ??_0I4x4@@QEAAAEAV0@H@Z    00000001400de550 f i gpcGTslmpZS.obj
 0002:00052610       ??_4gpcZS@@QEAAAEAV0@AEBVgpcDrc@@@Z 00000001400de610 f   gpcGTslmpZS.obj
 0002:000526b0       ?GTdrcOSzs@gpcGT@@QEAAPEAVgpcLZY@@PEAV2@PEAEAEAVgpcMASS@@_KI@Z 00000001400de6b0 f   gpcGTslmpZS.obj
 0002:000549a0       ?GTslmpDrcZS@gpcGT@@QEAAXAEAV1@PEAVgpcWIN@@PEAVgpcGTall@@@Z 00000001400e09a0 f   gpcGTslmpZS.obj
 0002:00056e50       ?N3@F4@@QEBA?AV1@XZ        00000001400e2e50 f i gpcGTslmpZS.obj
 0002:00056f50       ?X3@F4@@QEBA?AV1@V1@@Z     00000001400e2f50 f i gpcGTslmpZS.obj
 0002:000570b0       ?acos@@YAMM@Z              00000001400e30b0 f i gpcGTslmpZS.obj
 0002:00057110       ?bHS1i@gpcDrc@@QEBA_NXZ    00000001400e3110 f i gpcGTslmpZS.obj
 0002:000571a0       ?bHS2i@gpcDrc@@QEBA_NXZ    00000001400e31a0 f i gpcGTslmpZS.obj
 0002:00057230       ?bNEXT@gpcZSnD@@QEAA_NXZ   00000001400e3230 f i gpcGTslmpZS.obj
 0002:000572c0       ?bPULL@gpcZSnD@@QEAA_NXZ   00000001400e32c0 f i gpcGTslmpZS.obj
 0002:00057390       ?bWAIT@gpcZSnD@@QEAA_NXZ   00000001400e3390 f i gpcGTslmpZS.obj
 0002:00057450       ?eulABC@F4x4@@QEAA?AVF4@@XZ 00000001400e3450 f i gpcGTslmpZS.obj
 0002:00057790       ?fabs@@YAMM@Z              00000001400e3790 f i gpcGTslmpZS.obj
 0002:000577f0       ?format@gpcZSnD@@QEAAPEAV1@XZ 00000001400e37f0 f i gpcGTslmpZS.obj
 0002:000579b0       ?iDrc@gpcZSnD@@QEAAE_N@Z   00000001400e39b0 f   gpcGTslmpZS.obj
 0002:00057a60       ?iWR@gpcZSnD@@QEAAEXZ      00000001400e3a60 f i gpcGTslmpZS.obj
 0002:00057ac0       ?ioZS@gpcZSnD@@QEAAAEAVgpcZS@@XZ 00000001400e3ac0 f i gpcGTslmpZS.obj
 0002:00057b40       ?joinable@thread@std@@QEBA_NXZ 00000001400e3b40 f i gpcGTslmpZS.obj
 0002:00057bd0       ?judoZS@gpcDrc@@QEAAAEAV1@AEAVgpcZS@@I@Z 00000001400e3bd0 f   gpcGTslmpZS.obj
 0002:0005aa00       ?len_xyz@I4x4@@QEAA?AV1@H@Z 00000001400e6a00 f i gpcGTslmpZS.obj
 0002:0005ab90       ?lim_xyz@I4x4@@QEBA?AV1@AEBV1@H@Z 00000001400e6b90 f i gpcGTslmpZS.obj
 0002:0005ad20       ?lzyZSnDstat@gpcLZY@@QEAAPEAV1@AEA_KAEAVgpcZSnD@@E@Z 00000001400e6d20 f   gpcGTslmpZS.obj
 0002:0005aec0       ?null@gpcZS@@QEAAAEAV1@XZ  00000001400e6ec0 f i gpcGTslmpZS.obj
 0002:0005af40       ?oHS1o@gpcDrc@@QEAAIXZ     00000001400e6f40 f i gpcGTslmpZS.obj
 0002:0005aff0       ?oHS2o@gpcDrc@@QEAAIXZ     00000001400e6ff0 f i gpcGTslmpZS.obj
 0002:0005b0a0       ?pSTR@F4@@QEAAPEADPEADPEBD1@Z 00000001400e70a0 f i gpcGTslmpZS.obj
 0002:0005b140       ?pU2inp@gpcZSnD@@QEAAPEAGXZ 00000001400e7140 f i gpcGTslmpZS.obj
 0002:0005b1d0       ?pZSioU2@gpcZSnD@@QEAAPEAGXZ 00000001400e71d0 f i gpcGTslmpZS.obj
 0002:0005b260       ?pulling@gpcZSnD@@QEAAPEAVgpcLZY@@PEAV2@PEAVU4x4@@@Z 00000001400e7260 f   gpcGTslmpZS.obj
 0002:0005b3f0       ?reset@gpcZSnD@@QEAAPEAV1@E@Z 00000001400e73f0 f i gpcGTslmpZS.obj
 0002:0005b500       ?sqrt@@YAMM@Z              00000001400e7500 f i gpcGTslmpZS.obj
 0002:0005b560       ?srt3@I4x4@@QEAA?AV1@XZ    00000001400e7560 f i gpcGTslmpZS.obj
 0002:0005b6d0       ?stpPULL@gpcZSnD@@QEAAIXZ  00000001400e76d0 f i gpcGTslmpZS.obj
 0002:0005b750       ?stpPUSH@gpcZSnD@@QEAAI_N@Z 00000001400e7750 f i gpcGTslmpZS.obj
 0002:0005b870       ?str@F4@@QEAA_KPEADPEBD1@Z 00000001400e7870 f i gpcGTslmpZS.obj
 0002:0005b990       ?swpYX@I4x4@@QEAAAEAV1@XZ  00000001400e7990 f i gpcGTslmpZS.obj
 0002:0005ba30       ?swpZX@I4x4@@QEAAAEAV1@XZ  00000001400e7a30 f i gpcGTslmpZS.obj
 0002:0005bad0       ?swpZY@I4x4@@QEAAAEAV1@XZ  00000001400e7ad0 f i gpcGTslmpZS.obj
 0002:0005bb70       ?xHS1o@gpcDrc@@QEAAIXZ     00000001400e7b70 f i gpcGTslmpZS.obj
 0002:0005bc20       ?xHS2o@gpcDrc@@QEAAIXZ     00000001400e7c20 f i gpcGTslmpZS.obj
 0002:0005bcd0       ?xyz_@F4@@QEAAAEAV1@V1@@Z  00000001400e7cd0 f i gpcGTslmpZS.obj
 0002:0005bd80       fabsf                      00000001400e7d80 f i gpcGTslmpZS.obj
 0002:0005bde0       ??0I4x2@@QEAA@VI8x2@@@Z    00000001400e7de0 f   gpcI4x2.obj
 0002:0005be70       ??0I8x2@@QEAA@VI4x2@@@Z    00000001400e7e70 f i gpcI4x2.obj
 0002:0005bf00       ??4I4x2@@QEAAAEAV0@AEBVI8x2@@@Z 00000001400e7f00 f   gpcI4x2.obj
 0002:0005bf90       ??DI4x2@@QEBA?AVI8x2@@H@Z  00000001400e7f90 f   gpcI4x2.obj
 0002:0005c0f0       ??DI4x2@@QEBA?AVI8x2@@_J@Z 00000001400e80f0 f   gpcI4x2.obj
 0002:0005c250       ??GI4x2@@QEBA?AVI8x2@@AEBV1@@Z 00000001400e8250 f   gpcI4x2.obj
 0002:0005c300       ??HI4x2@@QEBA?AVI8x2@@AEBV1@@Z 00000001400e8300 f   gpcI4x2.obj
 0002:0005c3b0       ??II4x2@@QEBA?AVI8x2@@AEBV0@@Z 00000001400e83b0 f   gpcI4x2.obj
 0002:0005c460       ??KI4x2@@QEBA?AV0@AEBVI8x2@@@Z 00000001400e8460 f   gpcI4x2.obj
 0002:0005c580       ?xxxy@I4x2@@QEBA?AVI4x4@@XZ 00000001400e8580 f   gpcI4x2.obj
 0002:0005c630       ??0F2@@QEAA@MM@Z           00000001400e8630 f i gpcI4x4.obj
 0002:0005c6d0       ??0I4x2@@QEAA@VU4x2@@@Z    00000001400e86d0 f i gpcI4x4.obj
 0002:0005c750       ??0I4x4@@QEAA@VF4@@@Z      00000001400e8750 f   gpcI4x4.obj
 0002:0005c820       ??0I4x4@@QEAA@VI8x4@@@Z    00000001400e8820 f   gpcI4x4.obj
 0002:0005c8e0       ??4F4@@QEAAAEAV0@VI4x4@@@Z 00000001400e88e0 f i gpcI4x4.obj
 0002:0005c9d0       ??4I4x2@@QEAAAEAV0@AEBVU4x2@@@Z 00000001400e89d0 f i gpcI4x4.obj
 0002:0005cad0       ??4I4x4@@QEAAAEAV0@VF4@@@Z 00000001400e8ad0 f   gpcI4x4.obj
 0002:0005cba0       ??DF2@@QEBAMAEBV0@@Z       00000001400e8ba0 f i gpcI4x4.obj
 0002:0005cc40       ??DI4x2@@QEBA_JAEBV0@@Z    00000001400e8c40 f i gpcI4x4.obj
 0002:0005cce0       ??DI4x4@@QEBA?AVI8x4@@H@Z  00000001400e8ce0 f   gpcI4x4.obj
 0002:0005ce00       ??DI4x4@@QEBA?AVI8x4@@M@Z  00000001400e8e00 f   gpcI4x4.obj
 0002:0005ce90       ??DI4x4@@QEBA?AVI8x4@@N@Z  00000001400e8e90 f   gpcI4x4.obj
 0002:0005cf20       ??DI4x4@@QEBA?AVI8x4@@_J@Z 00000001400e8f20 f   gpcI4x4.obj
 0002:0005d040       ??DI4x4@@QEBA_JAEBV0@@Z    00000001400e9040 f i gpcI4x4.obj
 0002:0005d150       ??DI8x2@@QEBA?AV0@_J@Z     00000001400e9150 f i gpcI4x4.obj
 0002:0005d200       ??DI8x4@@QEBA?AV0@_J@Z     00000001400e9200 f i gpcI4x4.obj
 0002:0005d320       ??DI8x4@@QEBA_JAEBV0@@Z    00000001400e9320 f i gpcI4x4.obj
 0002:0005d400       ??GI8x2@@QEBA?AV0@AEBV0@@Z 00000001400e9400 f i gpcI4x4.obj
 0002:0005d4c0       ??GI8x4@@QEBA?AV0@AEBV0@@Z 00000001400e94c0 f i gpcI4x4.obj
 0002:0005d610       ??II4x4@@QEBA?AVI8x4@@AEBV0@@Z 00000001400e9610 f   gpcI4x4.obj
 0002:0005d760       ??II4x4@@QEBA?AVI8x4@@AEBVI4x2@@@Z 00000001400e9760 f   gpcI4x4.obj
 0002:0005d880       ??II4x4@@QEBA?AVI8x4@@AEBVU4x2@@@Z 00000001400e9880 f   gpcI4x4.obj
 0002:0005d9e0       ??II8x4@@QEBA?AV0@AEBV0@@Z 00000001400e99e0 f i gpcI4x4.obj
 0002:0005daf0       ??XF2@@QEAAAEAV0@M@Z       00000001400e9af0 f i gpcI4x4.obj
 0002:0005dba0       ??XF4@@QEAAAEAV0@M@Z       00000001400e9ba0 f i gpcI4x4.obj
 0002:0005dc60       ??XI8x4@@QEAAAEAV0@_J@Z    00000001400e9c60 f i gpcI4x4.obj
 0002:0005ddb0       ??YI8x2@@QEAAAEAV0@AEBVI4x2@@@Z 00000001400e9db0 f i gpcI4x4.obj
 0002:0005de60       ??YI8x4@@QEAAAEAV0@AEBVI4x4@@@Z 00000001400e9e60 f i gpcI4x4.obj
 0002:0005df50       ??_0I8x4@@QEAAAEAV0@_J@Z   00000001400e9f50 f i gpcI4x4.obj
 0002:0005e0f0       ?ABC2xyz@I4x4@@QEBA?AV1@V1@AEBV1@@Z 00000001400ea0f0 f   gpcI4x4.obj
 0002:0005e5e0       ?TSrBALL@I4x4@@QEAA?AV1@V1@_J@Z 00000001400ea5e0 f   gpcI4x4.obj
 0002:0005eb00       ?TSrBOX@I4x4@@QEAA?AV1@V1@_J@Z 00000001400eab00 f   gpcI4x4.obj
 0002:0005eee0       ?abs0@F4@@QEBA?AV1@XZ      00000001400eaee0 f i gpcI4x4.obj
 0002:0005f070       ?abs0@I8x4@@QEBA?AV1@XZ    00000001400eb070 f i gpcI4x4.obj
 0002:0005f1d0       ?drop@I4x4@@QEBA?AV1@V1@0_J11@Z 00000001400eb1d0 f   gpcI4x4.obj
 0002:0005fae0       ?dropRAD@I4x4@@QEBANV1@0_J11@Z 00000001400ebae0 f   gpcI4x4.obj
 0002:0005fee0       ?mmABC@I4x4@@QEBA?AV1@AEBV1@MM@Z 00000001400ebee0 f   gpcI4x4.obj
 0002:000603f0       ?mx@F4@@QEAAMXZ            00000001400ec3f0 f i gpcI4x4.obj
 0002:000604b0       ?mx@I8x4@@QEAA?AVI8x2@@XZ  00000001400ec4b0 f i gpcI4x4.obj
 0002:00060600       ?mxR@I4x4@@QEAA?AV1@_J@Z   00000001400ec600 f   gpcI4x4.obj
 0002:00060760       ?qlen_xyz@I8x4@@QEAA_JXZ   00000001400ec760 f i gpcI4x4.obj
 0002:00060810       ?right@F2@@QEAA?AV1@XZ     00000001400ec810 f i gpcI4x4.obj
 0002:000608b0       ?srt3@F4@@QEAA?AV1@XZ      00000001400ec8b0 f i gpcI4x4.obj
 0002:00060a50       ?swpYX@F4@@QEAAAEAV1@XZ    00000001400eca50 f i gpcI4x4.obj
 0002:00060af0       ?swpZX@F4@@QEAAAEAV1@XZ    00000001400ecaf0 f i gpcI4x4.obj
 0002:00060b90       ?swpZY@F4@@QEAAAEAV1@XZ    00000001400ecb90 f i gpcI4x4.obj
 0002:00060c40       ??4I8x2@@QEAAAEAV0@PEBD@Z  00000001400ecc40 f   gpcI8x2.obj
 0002:00060cb0       ??4I8x2@@QEAAAEAV0@PEBE@Z  00000001400eccb0 f   gpcI8x2.obj
 0002:00060e60       ?cdrMILLalf@I8x2@@QEAA?AW4gpeTYP@@PEBDI@Z 00000001400ece60 f   gpcI8x2.obj
 0002:00061020       ?cdrMILLnum@I8x2@@QEAA?AW4gpeTYP@@PEBDI@Z 00000001400ed020 f   gpcI8x2.obj
 0002:00061290       ?null@I8x2@@QEAAAEAV1@XZ   00000001400ed290 f i gpcI8x2.obj
 0002:00061310       ??$log2@IX@@YANI@Z         00000001400ed310 f i gpcLAZY.obj
 0002:00061380       ?lzyFRMT@gpcLZY@@QEAAPEAV1@AEA_KPEBDZZ 00000001400ed380 f   gpcLAZY.obj
 0002:000614a0       ?lzyHEXb@gpcLZY@@QEAAPEAV1@AEA_KPEAEI@Z 00000001400ed4a0 f   gpcLAZY.obj
 0002:000619f0       ?lzyHEXl@gpcLZY@@QEAAPEAV1@AEA_KPEAEI@Z 00000001400ed9f0 f   gpcLAZY.obj
 0002:00061f40       ?lzyHEXw@gpcLZY@@QEAAPEAV1@AEA_KPEAEI@Z 00000001400edf40 f   gpcLAZY.obj
 0002:00062490       ?null@I8x4@@QEAAAEAV1@XZ   00000001400ee490 f i gpcLAZY.obj
 0002:00062510       ?null@U4x4@@QEAAAEAV1@XZ   00000001400ee510 f i gpcLAZY.obj
 0002:00062590       ?null@U8x4@@QEAAAEAV1@XZ   00000001400ee590 f i gpcLAZY.obj
 0002:00062610       ?tree_add@I8x4@@QEAA_J_J0@Z 00000001400ee610 f i gpcLAZY.obj
 0002:00062860       ?tree_add@U4x4@@QEAAIII@Z  00000001400ee860 f i gpcLAZY.obj
 0002:00062aa0       ?tree_add@U8x4@@QEAA_K_K0@Z 00000001400eeaa0 f i gpcLAZY.obj
 0002:00062cd0       ?tree_add@gpcLZY@@QEAAPEAV1@IAEAI@Z 00000001400eecd0 f   gpcLAZY.obj
 0002:00062e90       ?tree_add@gpcLZY@@QEAAPEAV1@_JAEA_J@Z 00000001400eee90 f   gpcLAZY.obj
 0002:00063070       ?tree_add@gpcLZY@@QEAAPEAV1@_KAEA_K@Z 00000001400ef070 f   gpcLAZY.obj
 0002:00063240       ?tree_fnd@I8x4@@QEAA_J_J0@Z 00000001400ef240 f i gpcLAZY.obj
 0002:00063390       ?tree_fnd@U4x4@@QEAAIII@Z  00000001400ef390 f i gpcLAZY.obj
 0002:000634e0       ?tree_fnd@U8x4@@QEAA_K_K0@Z 00000001400ef4e0 f i gpcLAZY.obj
 0002:00063630       ?tree_fnd@gpcLZY@@QEAAIIAEAI@Z 00000001400ef630 f   gpcLAZY.obj
 0002:00063740       ?tree_fnd@gpcLZY@@QEAA_J_JAEA_J@Z 00000001400ef740 f   gpcLAZY.obj
 0002:00063850       ?tree_fnd@gpcLZY@@QEAA_K_KAEA_K@Z 00000001400ef850 f   gpcLAZY.obj
 0002:00063960       vsprintf                   00000001400ef960 f i gpcLAZY.obj
 0002:000639f0       ??0gpcCMPL@@QEAA@_J@Z      00000001400ef9f0 f i gpcOPCD.obj
 0002:00063a90       ??0gpcLZYdct@@QEAA@_K@Z    00000001400efa90 f i gpcOPCD.obj
 0002:00063b50       ??0gpcOPCD@@QEAA@PEBV0@PEBDDD_J_KNW4gpeALF@@4@Z 00000001400efb50 f   gpcOPCD.obj
 0002:00063d50       ?cmpl_add@gpcCMPL@@QEAAPEAVgpcLZY@@PEAV2@PEAEI@Z 00000001400efd50 f   gpcOPCD.obj
 0002:00064170       ?cmpl_best@gpcCMPL@@QEAAIPEAVgpcLZY@@PEAEI@Z 00000001400f0170 f   gpcOPCD.obj
 0002:00064560       ?cmpl_find@gpcCMPL@@QEAAIPEAVgpcLZY@@PEAEI@Z 00000001400f0560 f   gpcOPCD.obj
 0002:00064860       ?dctADD@gpcLZYdct@@QEAAPEAV1@PEAE_K@Z 00000001400f0860 f i gpcOPCD.obj
 0002:00064c90       ?dctFND@gpcLZYdct@@QEAAIPEAE_KAEAI@Z 00000001400f0c90 f i gpcOPCD.obj
 0002:00064fe0       ?iKID@gpcCMPL@@QEAAIPEAVgpcLZY@@I@Z 00000001400f0fe0 f   gpcOPCD.obj
 0002:00065100       ?nIX@gpcLZYdct@@QEAA_KXZ   00000001400f1100 f i gpcOPCD.obj
 0002:000651a0       ?nKID@gpcCMPL@@QEAAIXZ     00000001400f11a0 f i gpcOPCD.obj
 0002:00065270       ?nPC@gpcLZY@@QEAAIXZ       00000001400f1270 f   gpcOPCD.obj
 0002:000652f0       ?pPC@gpcLZY@@QEAAPEAVgpcCMPL@@IPEAE@Z 00000001400f12f0 f   gpcOPCD.obj
 0002:00065500       ?pSPARE@gpcLZY@@QEAAPEAVgpcCMPL@@IW4gpeALF@@PEAE@Z 00000001400f1500 f   gpcOPCD.obj
 0002:000657e0       ?sASM@gpcCMPL@@QEAAPEADPEAE0PEADPEAVgpcLZY@@PEAV1@3@Z 00000001400f17e0 f   gpcOPCD.obj
 0002:00065c80       ?sDST@gpcCMPL@@QEAADPEAEIPEADPEBD2@Z 00000001400f1c80 f   gpcOPCD.obj
 0002:00065e60       ?sKIDlst@gpcCMPL@@QEAAPEAV1@PEAE0PEAVgpcLZY@@D@Z 00000001400f1e60 f   gpcOPCD.obj
 0002:00066250       ?sLOG@gpcCMPL@@QEAAPEADPEAEPEAD1PEAVgpcLZY@@@Z 00000001400f2250 f   gpcOPCD.obj
 0002:00066b20       ?sOP@gpcCMPL@@QEAADPEAD@Z  00000001400f2b20 f   gpcOPCD.obj
 0002:00066d40       ?sSTRix@gpcLZYdct@@QEAAPEBD_KPEBD@Z 00000001400f2d40 f i gpcOPCD.obj
 0002:00066df0       ??0gpINST@@QEAA@XZ         00000001400f2df0 f i gpCORE.obj
 0002:00066e60       ??4U4x4@@QEAAAEAV0@I@Z     00000001400f2e60 f i gpCORE.obj
 0002:00066f10       ??4gpINST@@QEAAAEAV0@I@Z   00000001400f2f10 f i gpCORE.obj
 0002:000670b0       ??4gpINST@@QEAAAEAV0@VI4x4@@@Z 00000001400f30b0 f i gpCORE.obj
 0002:00067190       ?C@gpCORE@@QEAA?AW4gpeCsz@@AEAIII@Z 00000001400f3190 f i gpCORE.obj
 0002:00067630       ?Ux@gpcLZY@@QEAAPEAE_JI_NI@Z 00000001400f3630 f i gpCORE.obj
 0002:00067850       ?cIDfnd@gpC@@QEAAIAEAVgpcLZY@@IAEAH@Z 00000001400f3850 f i gpCORE.obj
 0002:00067b40       ?coreARY@U4x4@@QEAAII@Z    00000001400f3b40 f i gpCORE.obj
 0002:00067c20       ?coreC@U4x4@@QEBAIXZ       00000001400f3c20 f i gpCORE.obj
 0002:00067c80       ?coreCsz@U4x4@@QEBA?AW4gpeCsz@@XZ 00000001400f3c80 f i gpCORE.obj
 0002:00067ce0       ?coreLNK@gpCORE@@QEAAIPEAVI4x4@@IPEAVI8x4@@PEADPEAVgpcLZY@@@Z 00000001400f3ce0 f   gpCORE.obj
 0002:00068460       ?ea@gpCORE@@QEAAPEAEIPEA_J0@Z 00000001400f4460 f i gpCORE.obj
 0002:00068880       ?entryOBJ2A0@gpCORE@@QEAAIPEAVI8x4@@PEADPEAVgpcLZY@@PEAVgpcWIN@@AEA_KI@Z 00000001400f4880 f   gpCORE.obj
 0002:00069440       ?getSTR@gpcREG@@QEAAPEAEXZ 00000001400f5440 f i gpCORE.obj
 0002:00069540       ?i8@gpcREG@@QEAA_JXZ       00000001400f5540 f i gpCORE.obj
 0002:00069630       ?ix_reg@gpCORE@@QEAAIAEAVgpcREG@@I@Z 00000001400f5630 f i gpCORE.obj
 0002:000699d0       ?ix_str@gpCORE@@QEAAIPEADII@Z 00000001400f59d0 f i gpCORE.obj
 0002:00069f60       ?null@gpSTK@@QEAAAEAV1@XZ  00000001400f5f60 f i gpCORE.obj
 0002:00069fe0       ?oIDfnd@gpCORE@@QEAAPEAVgpO@@IAEAI@Z 00000001400f5fe0 f i gpCORE.obj
 0002:0006a190       ?pCLASS@gpCORE@@QEAAPEAVgpC@@I@Z 00000001400f6190 f i gpCORE.obj
 0002:0006a290       ?pCLASSlnk@gpCORE@@QEAAPEAVgpC@@I@Z 00000001400f6290 f i gpCORE.obj
 0002:0006a880       ?pOBJlnk@gpCORE@@QEAAPEAVgpO@@III_N@Z 00000001400f6880 f i gpCORE.obj
 0002:0006ab50       ?sOF@gpC@@QEAAIAEAVgpcLZY@@@Z 00000001400f6b50 f i gpCORE.obj
 0002:0006adc0       ?sOF@gpCORE@@QEAAII@Z      00000001400f6dc0 f i gpCORE.obj
 0002:0006af60       ??$?0$$V@?$_Compressed_pair@V?$allocator@E@std@@V?$_Vector_val@U?$_Simple_types@E@std@@@2@$00@std@@QEAA@U_Zero_then_variadic_args_t@1@@Z 00000001400f6f60 f i gpcpic.obj
 0002:0006aff0       ??$?0A6AXPEAVgpcTHRD_CAM@@@Z@?$_Tuple_val@P6AXPEAVgpcTHRD_CAM@@@Z@std@@QEAA@A6AXPEAVgpcTHRD_CAM@@@Z@Z 00000001400f6ff0 f i gpcpic.obj
 0002:0006b070       ??$?0A6AXPEAVgpcTHRD_CAM@@@ZPEAV0@$0A@@?$tuple@P6AXPEAVgpcTHRD_CAM@@@ZPEAV1@@std@@QEAA@A6AXPEAVgpcTHRD_CAM@@@Z$$QEAPEAV2@@Z 00000001400f7070 f i gpcpic.obj
 0002:0006b170       ??$?0A6AXPEAVgpcTHRD_CAM@@@ZPEAV0@X@thread@std@@QEAA@A6AXPEAVgpcTHRD_CAM@@@Z$$QEAPEAV2@@Z 00000001400f7170 f i gpcpic.obj
 0002:0006b300       ??$?0AEAPEAV?$tuple@P6AXPEAVgpcTHRD_CAM@@@ZPEAV1@@std@@@?$_Compressed_pair@U?$default_delete@V?$tuple@P6AXPEAVgpcTHRD_CAM@@@ZPEAV1@@std@@@std@@PEAV?$tuple@P6AXPEAVgpcTHRD_CAM@@@ZPEAV1@@2@$00@std@@QEAA@U_Zero_then_variadic_args_t@1@AEAPEAV?$tuple@P6AXPEAVgpcTHRD_CAM@@@ZPEAV1@@1@@Z 00000001400f7300 f i gpcpic.obj
 0002:0006b390       ??$?0E@?$allocator@U_Container_proxy@std@@@std@@QEAA@AEBV?$allocator@E@1@@Z 00000001400f7390 f i gpcpic.obj
 0002:0006b3f0       ??$?0PEAVgpcTHRD_CAM@@@?$_Tuple_val@PEAVgpcTHRD_CAM@@@std@@QEAA@$$QEAPEAVgpcTHRD_CAM@@@Z 00000001400f73f0 f i gpcpic.obj
 0002:0006b470       ??$?0U?$default_delete@V?$tuple@P6AXPEAVgpcTHRD_CAM@@@ZPEAV1@@std@@@std@@$0A@@?$unique_ptr@V?$tuple@P6AXPEAVgpcTHRD_CAM@@@ZPEAV1@@std@@U?$default_delete@V?$tuple@P6AXPEAVgpcTHRD_CAM@@@ZPEAV1@@std@@@2@@std@@QEAA@PEAV?$tuple@P6AXPEAVgpcTHRD_CAM@@@ZPEAV1@@1@@Z 00000001400f7470 f i gpcpic.obj
 0002:0006b510       ??$?0U_Exact_args_t@std@@$0A@@?$tuple@$$V@std@@QEAA@U_Exact_args_t@1@@Z 00000001400f7510 f i gpcpic.obj
 0002:0006b570       ??$?0U_Exact_args_t@std@@A6AXPEAVgpcTHRD_CAM@@@ZPEAV2@$0A@@?$tuple@P6AXPEAVgpcTHRD_CAM@@@ZPEAV1@@std@@QEAA@U_Exact_args_t@1@A6AXPEAVgpcTHRD_CAM@@@Z$$QEAPEAV3@@Z 00000001400f7570 f i gpcpic.obj
 0002:0006b680       ??$?0U_Exact_args_t@std@@PEAVgpcTHRD_CAM@@$$V$0A@@?$tuple@PEAVgpcTHRD_CAM@@@std@@QEAA@U_Exact_args_t@1@$$QEAPEAVgpcTHRD_CAM@@@Z 00000001400f7680 f i gpcpic.obj
 0002:0006b750       ??$_Alloc_proxy@V?$allocator@U_Container_proxy@std@@@std@@@_Container_base12@std@@QEAAX$$QEAV?$allocator@U_Container_proxy@std@@@1@@Z 00000001400f7750 f i gpcpic.obj
 0002:0006b820       ??$_Allocate@$0BA@U_Default_allocate_traits@std@@$0A@@std@@YAPEAX_K@Z 00000001400f7820 f i gpcpic.obj
 0002:0006b8c0       ??$_Allocate_manually_vector_aligned@U_Default_allocate_traits@std@@@std@@YAPEAX_K@Z 00000001400f78c0 f i gpcpic.obj
 0002:0006ba40       ??$_Call@P6AXPEAVgpcTHRD_CAM@@@ZPEAV1@@_Invoker_functor@std@@SAX$$QEAP6AXPEAVgpcTHRD_CAM@@@Z$$QEAPEAV2@@Z 00000001400f7a40 f i gpcpic.obj
 0002:0006bae0       ??$_Construct_in_place@U_Container_proxy@std@@PEAU_Container_base12@2@@std@@YAXAEAU_Container_proxy@0@$$QEAPEAU_Container_base12@0@@Z 00000001400f7ae0 f i gpcpic.obj
 0002:0006bba0       ??$_Copy_memmove@PEAEPEAE@std@@YAPEAEPEAE00@Z 00000001400f7ba0 f i gpcpic.obj
 0002:0006bc70       ??$_Deallocate@$0BA@$0A@@std@@YAXPEAX_K@Z 00000001400f7c70 f i gpcpic.obj
 0002:0006bd10       ??$_Deallocate_plain@V?$allocator@U_Container_proxy@std@@@std@@@std@@YAXAEAV?$allocator@U_Container_proxy@std@@@0@QEAU_Container_proxy@0@@Z 00000001400f7d10 f i gpcpic.obj
 0002:0006bd90       ??$_Delete_plain_internal@V?$allocator@U_Container_proxy@std@@@std@@@std@@YAXAEAV?$allocator@U_Container_proxy@std@@@0@QEAU_Container_proxy@0@@Z 00000001400f7d90 f i gpcpic.obj
 0002:0006be00       ??$_Destroy_range@V?$allocator@E@std@@@std@@YAXPEAEQEAEAEAV?$allocator@E@0@@Z 00000001400f7e00 f i gpcpic.obj
 0002:0006be60       ??$_Get_size_of_n@$00@std@@YA_K_K@Z 00000001400f7e60 f i gpcpic.obj
 0002:0006bec0       ??$_Get_size_of_n@$0BA@@std@@YA_K_K@Z 00000001400f7ec0 f i gpcpic.obj
 0002:0006bf50       ??$_Get_unwrapped@E@std@@YAPEAEQEAE@Z 00000001400f7f50 f i gpcpic.obj
 0002:0006bfb0       ??$_Invoke@V?$tuple@P6AXPEAVgpcTHRD_CAM@@@ZPEAV1@@std@@$0A@$00@thread@std@@CAIPEAX@Z 00000001400f7fb0 f i gpcpic.obj
 0002:0006c0d0       ??$_Min_value@_K@std@@YAAEB_KAEB_K0@Z 00000001400f80d0 f i gpcpic.obj
 0002:0006c190       ??$_Resize@U_Value_init_tag@std@@@?$vector@EV?$allocator@E@std@@@std@@AEAAX_KAEBU_Value_init_tag@1@@Z 00000001400f8190 f i gpcpic.obj
 0002:0006c3a0       ??$_Resize_reallocate@U_Value_init_tag@std@@@?$vector@EV?$allocator@E@std@@@std@@AEAAX_KAEBU_Value_init_tag@1@@Z 00000001400f83a0 f i gpcpic.obj
 0002:0006c5a0       ??$_Unfancy@E@std@@YAPEAEPEAE@Z 00000001400f85a0 f i gpcpic.obj
 0002:0006c600       ??$_Unfancy@U_Container_proxy@std@@@std@@YAPEAU_Container_proxy@0@PEAU10@@Z 00000001400f8600 f i gpcpic.obj
 0002:0006c660       ??$_Uninitialized_move@PEAEV?$allocator@E@std@@@std@@YAPEAEQEAE0PEAEAEAV?$allocator@E@0@@Z 00000001400f8660 f i gpcpic.obj
 0002:0006c730       ??$_Uninitialized_value_construct_n@V?$allocator@E@std@@@std@@YAPEAEPEAE_KAEAV?$allocator@E@0@@Z 00000001400f8730 f i gpcpic.obj
 0002:0006c7e0       ??$_Zero_range@PEAE@std@@YAPEAEQEAE0@Z 00000001400f87e0 f i gpcpic.obj
 0002:0006c880       ??$addressof@U_Container_proxy@std@@@std@@YAPEAU_Container_proxy@0@AEAU10@@Z 00000001400f8880 f i gpcpic.obj
 0002:0006c8e0       ??$exchange@PEAU_Container_proxy@std@@$$T@std@@YAPEAU_Container_proxy@0@AEAPEAU10@$$QEA$$T@Z 00000001400f88e0 f i gpcpic.obj
 0002:0006c970       ??$exchange@PEAV?$tuple@P6AXPEAVgpcTHRD_CAM@@@ZPEAV1@@std@@PEAV12@@std@@YAPEAV?$tuple@P6AXPEAVgpcTHRD_CAM@@@ZPEAV1@@0@AEAPEAV10@$$QEAPEAV10@@Z 00000001400f8970 f i gpcpic.obj
 0002:0006ca00       ??$exchange@U_Thrd_t@@U1@@std@@YA?AU_Thrd_t@@AEAU1@$$QEAU1@@Z 00000001400f8a00 f i gpcpic.obj
 0002:0006cae0       ??$forward@A6AXPEAVgpcTHRD_CAM@@@Z@std@@YAA6AXPEAVgpcTHRD_CAM@@@ZA6AX0@Z@Z 00000001400f8ae0 f i gpcpic.obj
 0002:0006cb40       ??$forward@AEAPEAV?$tuple@P6AXPEAVgpcTHRD_CAM@@@ZPEAV1@@std@@@std@@YAAEAPEAV?$tuple@P6AXPEAVgpcTHRD_CAM@@@ZPEAV1@@0@AEAPEAV10@@Z 00000001400f8b40 f i gpcpic.obj
 0002:0006cba0       ??$forward@P6AXPEAVgpcTHRD_CAM@@@Z@std@@YA$$QEAP6AXPEAVgpcTHRD_CAM@@@ZAEAP6AX0@Z@Z 00000001400f8ba0 f i gpcpic.obj
 0002:0006cc00       ??$forward@PEAU_Container_base12@std@@@std@@YA$$QEAPEAU_Container_base12@0@AEAPEAU10@@Z 00000001400f8c00 f i gpcpic.obj
 0002:0006cc60       ??$forward@PEAVgpcTHRD_CAM@@@std@@YA$$QEAPEAVgpcTHRD_CAM@@AEAPEAV1@@Z 00000001400f8c60 f i gpcpic.obj
 0002:0006ccc0       ??$get@$00P6AXPEAVgpcTHRD_CAM@@@ZPEAV1@@std@@YAAEAPEAVgpcTHRD_CAM@@AEAV?$tuple@P6AXPEAVgpcTHRD_CAM@@@ZPEAV1@@0@@Z 00000001400f8cc0 f i gpcpic.obj
 0002:0006cd20       ??$get@$0A@P6AXPEAVgpcTHRD_CAM@@@ZPEAV1@@std@@YAAEAP6AXPEAVgpcTHRD_CAM@@@ZAEAV?$tuple@P6AXPEAVgpcTHRD_CAM@@@ZPEAV1@@0@@Z 00000001400f8d20 f i gpcpic.obj
 0002:0006cd80       ??$invoke@P6AXPEAVgpcTHRD_CAM@@@ZPEAV1@@std@@YAX$$QEAP6AXPEAVgpcTHRD_CAM@@@Z$$QEAPEAV1@@Z 00000001400f8d80 f i gpcpic.obj
 0002:0006ce20       ??$make_unique@V?$tuple@P6AXPEAVgpcTHRD_CAM@@@ZPEAV1@@std@@A6AXPEAVgpcTHRD_CAM@@@ZPEAV3@$0A@@std@@YA?AV?$unique_ptr@V?$tuple@P6AXPEAVgpcTHRD_CAM@@@ZPEAV1@@std@@U?$default_delete@V?$tuple@P6AXPEAVgpcTHRD_CAM@@@ZPEAV1@@std@@@2@@0@A6AXPEAVgpcTHRD_CAM@@@Z$$QEAPEAV2@@Z 00000001400f8e20 f i gpcpic.obj
 0002:0006cf50       ??$move@AEAP6AXPEAVgpcTHRD_CAM@@@Z@std@@YA$$QEAP6AXPEAVgpcTHRD_CAM@@@ZAEAP6AX0@Z@Z 00000001400f8f50 f i gpcpic.obj
 0002:0006cfb0       ??$move@AEAPEAVgpcTHRD_CAM@@@std@@YA$$QEAPEAVgpcTHRD_CAM@@AEAPEAV1@@Z 00000001400f8fb0 f i gpcpic.obj
 0002:0006d010       ??0?$_Vector_val@U?$_Simple_types@E@std@@@std@@QEAA@XZ 00000001400f9010 f i gpcpic.obj
 0002:0006d0c0       ??0?$allocator@E@std@@QEAA@XZ 00000001400f90c0 f i gpcpic.obj
 0002:0006d120       ??0?$vector@EV?$allocator@E@std@@@std@@QEAA@XZ 00000001400f9120 f i gpcpic.obj
 0002:0006d1f0       ??0_Container_base12@std@@QEAA@XZ 00000001400f91f0 f i gpcpic.obj
 0002:0006d260       ??0_Container_proxy@std@@QEAA@PEAU_Container_base12@1@@Z 00000001400f9260 f i gpcpic.obj
 0002:0006d2f0       ??0bad_alloc@std@@AEAA@QEBD@Z 00000001400f92f0 f i gpcpic.obj
 0002:0006d390       ??0bad_alloc@std@@QEAA@AEBV01@@Z 00000001400f9390 f i gpcpic.obj
 0002:0006d410       ??0bad_array_new_length@std@@QEAA@AEBV01@@Z 00000001400f9410 f i gpcpic.obj
 0002:0006d490       ??0bad_array_new_length@std@@QEAA@XZ 00000001400f9490 f i gpcpic.obj
 0002:0006d520       ??0exception@std@@QEAA@AEBV01@@Z 00000001400f9520 f i gpcpic.obj
 0002:0006d5e0       ??0exception@std@@QEAA@QEBDH@Z 00000001400f95e0 f i gpcpic.obj
 0002:0006d690       ??0gpcTHRD_CAM@@QEAA@XZ    00000001400f9690 f i gpcpic.obj
 0002:0006d710       ??1?$unique_ptr@V?$tuple@P6AXPEAVgpcTHRD_CAM@@@ZPEAV1@@std@@U?$default_delete@V?$tuple@P6AXPEAVgpcTHRD_CAM@@@ZPEAV1@@std@@@2@@std@@QEAA@XZ 00000001400f9710 f i gpcpic.obj
 0002:0006d7c0       ??1?$vector@EV?$allocator@E@std@@@std@@QEAA@XZ 00000001400f97c0 f i gpcpic.obj
 0002:0006d8a0       ??1bad_alloc@std@@UEAA@XZ  00000001400f98a0 f i gpcpic.obj
 0002:0006d8f0       ??1bad_array_new_length@std@@UEAA@XZ 00000001400f98f0 f i gpcpic.obj
 0002:0006d940       ??1exception@std@@UEAA@XZ  00000001400f9940 f i gpcpic.obj
 0002:0006d9c0       ??2@YAPEAX_KPEAX@Z         00000001400f99c0 f i gpcpic.obj
 0002:0006da20       ??4thread@std@@QEAAAEAV01@$$QEAV01@@Z 00000001400f9a20 f i gpcpic.obj
 0002:0006db20       ??A?$vector@EV?$allocator@E@std@@@std@@QEAAAEAE_K@Z 00000001400f9b20 f i gpcpic.obj
 0002:0006dc60       ??D?$unique_ptr@V?$tuple@P6AXPEAVgpcTHRD_CAM@@@ZPEAV1@@std@@U?$default_delete@V?$tuple@P6AXPEAVgpcTHRD_CAM@@@ZPEAV1@@std@@@2@@std@@QEBAAEAV?$tuple@P6AXPEAVgpcTHRD_CAM@@@ZPEAV1@@1@XZ 00000001400f9c60 f i gpcpic.obj
 0002:0006dcc0       ??R?$default_delete@V?$tuple@P6AXPEAVgpcTHRD_CAM@@@ZPEAV1@@std@@@std@@QEBAXPEAV?$tuple@P6AXPEAVgpcTHRD_CAM@@@ZPEAV1@@1@@Z 00000001400f9cc0 f i gpcpic.obj
 0002:0006dd40       ??_Ebad_alloc@std@@UEAAPEAXI@Z 00000001400f9d40 f i gpcpic.obj
 0002:0006dd40       ??_Gbad_alloc@std@@UEAAPEAXI@Z 00000001400f9d40 f i gpcpic.obj
 0002:0006ddd0       ??_Ebad_array_new_length@std@@UEAAPEAXI@Z 00000001400f9dd0 f i gpcpic.obj
 0002:0006ddd0       ??_Gbad_array_new_length@std@@UEAAPEAXI@Z 00000001400f9dd0 f i gpcpic.obj
 0002:0006de60       ??_Gexception@std@@UEAAPEAXI@Z 00000001400f9e60 f i gpcpic.obj
 0002:0006de60       ??_Eexception@std@@UEAAPEAXI@Z 00000001400f9e60 f i gpcpic.obj
 0002:0006def0       ?_Adjust_manually_vector_aligned@std@@YAXAEAPEAXAEA_K@Z 00000001400f9ef0 f i gpcpic.obj
 0002:0006e150       ?_Allocate@_Default_allocate_traits@std@@SAPEAX_K@Z 00000001400fa150 f i gpcpic.obj
 0002:0006e1b0       ?_Calculate_growth@?$vector@EV?$allocator@E@std@@@std@@AEBA_K_K@Z 00000001400fa1b0 f i gpcpic.obj
 0002:0006e2b0       ?_Change_array@?$vector@EV?$allocator@E@std@@@std@@AEAAXQEAE_K1@Z 00000001400fa2b0 f i gpcpic.obj
 0002:0006e450       ?_Destroy@?$vector@EV?$allocator@E@std@@@std@@AEAAXPEAE0@Z 00000001400fa450 f i gpcpic.obj
 0002:0006e4e0       ?_Get_first@?$_Compressed_pair@U?$default_delete@V?$tuple@P6AXPEAVgpcTHRD_CAM@@@ZPEAV1@@std@@@std@@PEAV?$tuple@P6AXPEAVgpcTHRD_CAM@@@ZPEAV1@@2@$00@std@@QEAAAEAU?$default_delete@V?$tuple@P6AXPEAVgpcTHRD_CAM@@@ZPEAV1@@std@@@2@XZ 00000001400fa4e0 f i gpcpic.obj
 0002:0006e540       ?_Get_first@?$_Compressed_pair@V?$allocator@E@std@@V?$_Vector_val@U?$_Simple_types@E@std@@@2@$00@std@@QEAAAEAV?$allocator@E@2@XZ 00000001400fa540 f i gpcpic.obj
 0002:0006e5a0       ?_Get_first@?$_Compressed_pair@V?$allocator@E@std@@V?$_Vector_val@U?$_Simple_types@E@std@@@2@$00@std@@QEBAAEBV?$allocator@E@2@XZ 00000001400fa5a0 f i gpcpic.obj
 0002:0006e600       ?_Getal@?$vector@EV?$allocator@E@std@@@std@@AEAAAEAV?$allocator@E@2@XZ 00000001400fa600 f i gpcpic.obj
 0002:0006e670       ?_Getal@?$vector@EV?$allocator@E@std@@@std@@AEBAAEBV?$allocator@E@2@XZ 00000001400fa670 f i gpcpic.obj
 0002:0006e6e0       ?_Orphan_all@_Container_base12@std@@QEAAXXZ 00000001400fa6e0 f i gpcpic.obj
 0002:0006e7e0       ?_Orphan_range@?$vector@EV?$allocator@E@std@@@std@@AEBAXPEAE0@Z 00000001400fa7e0 f i gpcpic.obj
 0002:0006e910       ?_Throw_bad_array_new_length@std@@YAXXZ 00000001400fa910 f i gpcpic.obj
 0002:0006e980       ?_Tidy@?$vector@EV?$allocator@E@std@@@std@@AEAAXXZ 00000001400fa980 f i gpcpic.obj
 0002:0006eae0       ?_Ufill@?$vector@EV?$allocator@E@std@@@std@@AEAAPEAEPEAE_KU_Value_init_tag@2@@Z 00000001400faae0 f i gpcpic.obj
 0002:0006eb70       ?_Umove_if_noexcept1@?$vector@EV?$allocator@E@std@@@std@@AEAAXPEAE00U?$integral_constant@_N$00@2@@Z 00000001400fab70 f i gpcpic.obj
 0002:0006ec10       ?_Umove_if_noexcept@?$vector@EV?$allocator@E@std@@@std@@AEAAXPEAE00@Z 00000001400fac10 f i gpcpic.obj
 0002:0006ecd0       ?_Xlength@?$vector@EV?$allocator@E@std@@@std@@CAXXZ 00000001400facd0 f i gpcpic.obj
 0002:0006ed20       ?alfFND@gpcPICall@@QEAAIPEAE@Z 00000001400fad20 f   gpcpic.obj
 0002:0006eeb0       ?allocate@?$allocator@E@std@@QEAAPEAE_K@Z 00000001400faeb0 f i gpcpic.obj
 0002:0006ef20       ?allocate@?$allocator@U_Container_proxy@std@@@std@@QEAAPEAU_Container_proxy@2@_K@Z 00000001400faf20 f i gpcpic.obj
 0002:0006ef90       ?aluFND@gpcPICall@@QEAAPEAVgpcPIC@@AEAVgpcALU@@@Z 00000001400faf90 f   gpcpic.obj
 0002:0006f150       ?call_cam@@YAXPEAVgpcTHRD_CAM@@@Z 00000001400fb150 f   gpcpic.obj
 0002:0006f310       ?capacity@?$vector@EV?$allocator@E@std@@@std@@QEBA_KXZ 00000001400fb310 f i gpcpic.obj
 0002:0006f390       ?deallocate@?$_Default_allocator_traits@V?$allocator@U_Container_proxy@std@@@std@@@std@@SAXAEAV?$allocator@U_Container_proxy@std@@@2@QEAU_Container_proxy@2@_K@Z 00000001400fb390 f i gpcpic.obj
 0002:0006f410       ?deallocate@?$allocator@E@std@@QEAAXQEAE_K@Z 00000001400fb410 f i gpcpic.obj
 0002:0006f490       ?get@?$unique_ptr@V?$tuple@P6AXPEAVgpcTHRD_CAM@@@ZPEAV1@@std@@U?$default_delete@V?$tuple@P6AXPEAVgpcTHRD_CAM@@@ZPEAV1@@std@@@2@@std@@QEBAPEAV?$tuple@P6AXPEAVgpcTHRD_CAM@@@ZPEAV1@@2@XZ 00000001400fb490 f i gpcpic.obj
 0002:0006f4f0       ?getHeight@gpcCAMubi@@QEAAIXZ 00000001400fb4f0 f i gpcpic.obj
 0002:0006f550       ?getImageTypeSize@gpcCAMubi@@QEAAIW4RASPICAM_FORMAT@@@Z 00000001400fb550 f i gpcpic.obj
 0002:0006f5b0       ?getPIX@gpcPIC@@QEAAPEAEPEAVgpcPICAM@@I@Z 00000001400fb5b0 f   gpcpic.obj
 0002:0006fb30       ?getWidth@gpcCAMubi@@QEAAIXZ 00000001400fbb30 f i gpcpic.obj
 0002:0006fb90       ?gpfSRF2JPG@@YAPEAVgpcLZY@@PEAV1@PEAUSDL_Surface@@H@Z 00000001400fbb90 f   gpcpic.obj
 0002:0006fe70       ?gpfSRFjpgSAVE@@YA_NPEAEPEAUSDL_Surface@@H@Z 00000001400fbe70 f   gpcpic.obj
 0002:00070130       ?grab@gpcCAMubi@@QEAAIXZ   00000001400fc130 f i gpcpic.obj
 0002:000701c0       ?max@?$numeric_limits@_J@std@@SA_JXZ 00000001400fc1c0 f i gpcpic.obj
 0002:00070210       ?max_size@?$_Default_allocator_traits@V?$allocator@E@std@@@std@@SA_KAEBV?$allocator@E@2@@Z 00000001400fc210 f i gpcpic.obj
 0002:00070270       ?max_size@?$vector@EV?$allocator@E@std@@@std@@QEBA_KXZ 00000001400fc270 f i gpcpic.obj
 0002:00070320       ?my_empty_output_buffer@@YAEPEAUjpeg_compress_struct@@@Z 00000001400fc320 f   gpcpic.obj
 0002:00070420       ?my_init_destination@@YAXPEAUjpeg_compress_struct@@@Z 00000001400fc420 f   gpcpic.obj
 0002:000704f0       ?my_term_destination@@YAXPEAUjpeg_compress_struct@@@Z 00000001400fc4f0 f   gpcpic.obj
 0002:00070580       ?open@gpcCAMubi@@QEAA_NXZ  00000001400fc580 f i gpcpic.obj
 0002:00070610       ?release@?$unique_ptr@V?$tuple@P6AXPEAVgpcTHRD_CAM@@@ZPEAV1@@std@@U?$default_delete@V?$tuple@P6AXPEAVgpcTHRD_CAM@@@ZPEAV1@@std@@@2@@std@@QEAAPEAV?$tuple@P6AXPEAVgpcTHRD_CAM@@@ZPEAV1@@2@XZ 00000001400fc610 f i gpcpic.obj
 0002:00070690       ?resize@?$vector@EV?$allocator@E@std@@@std@@QEAAX_K@Z 00000001400fc690 f i gpcpic.obj
 0002:00070720       ?retrieve@gpcCAMubi@@QEAAPEAXPEAXW4RASPICAM_FORMAT@@@Z 00000001400fc720 f i gpcpic.obj
 0002:00070790       ?size@?$vector@EV?$allocator@E@std@@@std@@QEBA_KXZ 00000001400fc790 f i gpcpic.obj
 0002:00070810       ?what@exception@std@@UEBAPEBDXZ 00000001400fc810 f i gpcpic.obj
 0002:000708b0       ??0I1x4@@QEAA@I@Z          00000001400fc8b0 f i gpcres.obj
 0002:00070920       ??0I1x4@@QEAA@XZ           00000001400fc920 f i gpcres.obj
 0002:00070980       ??0gpcADR@@QEAA@W4gpeALF@@@Z 00000001400fc980 f i gpcres.obj
 0002:00070a40       ??0gpcALU@@QEAA@PEAVgpcRES@@@Z 00000001400fca40 f   gpcres.obj
 0002:00070b50       ??0gpcALU@@QEAA@XZ         00000001400fcb50 f i gpcres.obj
 0002:00070c40       ??1gpcALU@@QEAA@XZ         00000001400fcc40 f   gpcres.obj
 0002:00070cb0       ??4I1x4@@QEAAAEAV0@I@Z     00000001400fccb0 f i gpcres.obj
 0002:00070d20       ??4gpcADR@@QEAAAEAV0@PEAVgpcRES@@@Z 00000001400fcd20 f   gpcres.obj
 0002:00070f90       ??4gpcADR@@QEAAAEAV0@W4gpeALF@@@Z 00000001400fcf90 f i gpcres.obj
 0002:00071030       ??4gpcALU@@QEAAAEAV0@AEAVgpcREG@@@Z 00000001400fd030 f   gpcres.obj
 0002:00071450       ??4gpcALU@@QEAAAEAV0@H@Z   00000001400fd450 f   gpcres.obj
 0002:00071740       ??4gpcALU@@QEAAAEAV0@PEAE@Z 00000001400fd740 f   gpcres.obj
 0002:00071a40       ??GU4x2@@QEBA?AV0@V0@@Z    00000001400fda40 f i gpcres.obj
 0002:00071af0       ??XgpcALU@@QEAAAEAV0@AEAVgpcREG@@@Z 00000001400fdaf0 f   gpcres.obj
 0002:00072540       ??YgpcALU@@QEAAAEAV0@AEAVgpcREG@@@Z 00000001400fe540 f   gpcres.obj
 0002:000732d0       ??ZgpcALU@@QEAAAEAV0@AEAVgpcREG@@@Z 00000001400ff2d0 f   gpcres.obj
 0002:00074060       ??_0gpcALU@@QEAAAEAV0@AEAVgpcREG@@@Z 0000000140100060 f   gpcres.obj
 0002:00074d10       ??_1gpcALU@@QEAAAEAV0@AEAVgpcREG@@@Z 0000000140100d10 f   gpcres.obj
 0002:00075840       ?ADD@gpcRES@@QEAAAEAVgpcALU@@W4gpeALF@@II@Z 0000000140101840 f i gpcres.obj
 0002:00075f90       ?ALU@gpcRES@@QEAAAEAVgpcALU@@I@Z 0000000140101f90 f i gpcres.obj
 0002:000763a0       ?ALUdat@gpcALU@@QEAAPEAEPEAVgpcRES@@VU4x2@@VU1x4@@VI1x4@@_KN@Z 00000001401023a0 f   gpcres.obj
 0002:00076b00       ?AN@gpcALU@@QEAAAEAVU4x4@@VU4x2@@@Z 0000000140102b00 f i gpcres.obj
 0002:00076ba0       ?TanDT@gpcALU@@QEAAAEAV1@AEAV1@@Z 0000000140102ba0 f i gpcres.obj
 0002:00076c80       ?abs@@YAMM@Z               0000000140102c80 f i gpcres.obj
 0002:00076ce0       ?abs@@YANN@Z               0000000140102ce0 f i gpcres.obj
 0002:00076d40       ?adr2ALU@gpcADR@@QEAAAEAVgpcALU@@PEAVgpcRES@@@Z 0000000140102d40 f   gpcres.obj
 0002:00076e90       ?cnt2fract@U4x2@@QEAAAEAV1@I_K@Z 0000000140102e90 f i gpcres.obj
 0002:00077090       ?d8@gpcREG@@QEAANXZ        0000000140103090 f i gpcres.obj
 0002:000771b0       ?equ@gpcALU@@QEAAAEAV1@AEAV1@@Z 00000001401031b0 f   gpcres.obj
 0002:00077390       ?equ@gpcALU@@QEAAAEAV1@PEAVgpcRES@@VU4x2@@VU1x4@@VI1x4@@NG@Z 0000000140103390 f   gpcres.obj
 0002:00077660       ?equ@gpcALU@@QEAAAEAV1@PEAVgpcRES@@VU4x2@@VU1x4@@VI1x4@@_KNG@Z 0000000140103660 f   gpcres.obj
 0002:00077c10       ?equSIG@gpcALU@@QEAAAEAV1@PEAVgpcRES@@VU4x2@@VU1x4@@VI1x4@@_KG@Z 0000000140103c10 f   gpcres.obj
 0002:000780a0       ?iFND@gpcRES@@QEAAIW4gpeALF@@@Z 00000001401040a0 f i gpcres.obj
 0002:00078210       ?iL@gpcRES@@QEAAIXZ        0000000140104210 f i gpcres.obj
 0002:00078270       ?ins@gpcALU@@QEAAAEAV1@PEAVgpcRES@@VU4x2@@VU1x4@@@Z 0000000140104270 f   gpcres.obj
 0002:0007b020       ?ins@gpcALU@@QEAAPEAVgpcRES@@PEAV2@0@Z 0000000140107020 f   gpcres.obj
 0002:0007b170       ?ins@gpcALU@@QEAA_KPEAVgpcRES@@AEAVgpcLZY@@@Z 0000000140107170 f   gpcres.obj
 0002:0007b310       ?nFND@gpcRES@@QEAAIXZ      0000000140107310 f i gpcres.obj
 0002:0007b3a0       ?null@gpcALU@@QEAAAEAV1@XZ 00000001401073a0 f i gpcres.obj
 0002:0007b420       ?null@gpcRES@@QEAAPEAV1@XZ 0000000140107420 f   gpcres.obj
 0002:0007b840       ?pRM@gpcRES@@QEAAPEAV1@XZ  0000000140107840 f i gpcres.obj
 0002:0007b8a0       ?t@gpcREG@@QEAADXZ         00000001401078a0 f i gpcres.obj
 0002:0007b900       ?tDIM@gpcALU@@QEAA?AVU4x2@@XZ 0000000140107900 f i gpcres.obj
 0002:0007b9a0       ?trafo@gpcALU@@QEAA?AVU4x2@@XZ 00000001401079a0 f i gpcres.obj
 0002:0007ba90       ?txySOF@gpcALU@@QEAAIXZ    0000000140107a90 f i gpcres.obj
 0002:0007bb30       ?u8@gpcREG@@QEAA_KXZ       0000000140107b30 f i gpcres.obj
 0002:0007bc00       ?zero@gpcALU@@QEAAAEAV1@XZ 0000000140107c00 f   gpcres.obj
 0002:0007bd10       ?res2mini@gpcRES@@QEAAPEAVgpcLZY@@PEAV2@PEAEPEAV1@I@Z 0000000140107d10 f   gpcres2mini.obj
 0002:0007c8d0       ?int2flt@gpcALU@@QEAAAEAV1@PEAVgpcRES@@VU4x2@@VU1x4@@@Z 00000001401088d0 f   gpcresflt.obj
 0002:0007dcb0       ??0gpcADR@@QEAA@XZ         0000000140109cb0 f i gpcres_compi.obj
 0002:0007dd50       ??0gpcISA@@QEAA@XZ         0000000140109d50 f i gpcres_compi.obj
 0002:0007dde0       ??0gpcRES@@QEAA@PEAV0@@Z   0000000140109de0 f i gpcres_compi.obj
 0002:0007dee0       ??4gpcALU@@QEAAAEAV0@AEAVU4x2@@@Z 0000000140109ee0 f i gpcres_compi.obj
 0002:0007df60       ??4gpcALU@@QEAAAEAV0@W4gpeALF@@@Z 0000000140109f60 f i gpcres_compi.obj
 0002:0007dff0       ??8U4x2@@QEBA_NAEBV0@@Z    0000000140109ff0 f i gpcres_compi.obj
 0002:0007e090       ??9U4x2@@QEBA_NAEBV0@@Z    000000014010a090 f i gpcres_compi.obj
 0002:0007e150       ?AN@gpcISA@@QEAAPEAV1@AEBVI8x2@@@Z 000000014010a150 f i gpcres_compi.obj
 0002:0007e210       ?compiEASY@gpcRES@@QEAAPEAV1@PEAE0PEAPEAEPEAV1@@Z 000000014010a210 f   gpcres_compi.obj
 0002:00080670       ?gpfABCnincs@@YA_KPEBE0AEA_K0@Z 000000014010c670 f i gpcres_compi.obj
 0002:00080830       ?null@I1x4@@QEAAAEAV1@XZ   000000014010c830 f i gpcres_compi.obj
 0002:000808a0       ?null@gpcISA@@QEAAPEAV1@XZ 000000014010c8a0 f i gpcres_compi.obj
 0002:00080a10       ?resISA@gpcRES@@QEAAPEAVgpcISA@@XZ 000000014010ca10 f i gpcres_compi.obj
 0002:00080da0       ?resISA_an@gpcRES@@QEAAPEAVgpcISA@@AEAVI8x2@@@Z 000000014010cda0 f i gpcres_compi.obj
 0002:00080e30       ?resISA_stp@gpcRES@@QEAAPEAVgpcISA@@E@Z 000000014010ce30 f i gpcres_compi.obj
 0002:00081180       ?resISA_str@gpcRES@@QEAAPEAVgpcISA@@AEAVgpcLZY@@@Z 000000014010d180 f i gpcres_compi.obj
 0002:00081210       ?resISA_tag@gpcRES@@QEAAPEAVgpcISA@@W4gpeALF@@@Z 000000014010d210 f i gpcres_compi.obj
 0002:000812a0       ?resISA_trg@gpcRES@@QEAAIIAEBVU4x2@@@Z 000000014010d2a0 f i gpcres_compi.obj
 0002:00081430       ?resISA_var@gpcRES@@QEAAPEAVgpcISA@@W4gpeALF@@@Z 000000014010d430 f i gpcres_compi.obj
 0002:000814c0       ?stp@gpcISA@@QEAAEVI1x4@@@Z 000000014010d4c0 f i gpcres_compi.obj
 0002:00081650       ?str@gpcISA@@QEAAPEAV1@AEAVgpcLZY@@@Z 000000014010d650 f i gpcres_compi.obj
 0002:00081990       ?trg@gpcISA@@QEAAPEAV1@AEBVU4x2@@@Z 000000014010d990 f i gpcres_compi.obj
 0002:00081a60       ?var@gpcISA@@QEAAPEAV1@W4gpeALF@@W4gpeISA@@@Z 000000014010da60 f i gpcres_compi.obj
 0002:00081b30       ??0F2@@QEAA@HH@Z           000000014010db30 f i gpcres_run.obj
 0002:00081bd0       ??0F4@@QEAA@VI4x2@@0@Z     000000014010dbd0 f i gpcres_run.obj
 0002:00081ca0       ??0I8x4@@QEAA@XZ           000000014010dca0 f i gpcres_run.obj
 0002:00081d00       ??0gpcCAMubi@@QEAA@XZ      000000014010dd00 f i gpcres_run.obj
 0002:00081da0       ??0gpcPICAM@@QEAA@XZ       000000014010dda0 f i gpcres_run.obj
 0002:00081f00       ??0gpcSTK@@QEAA@PEAV0@PEAVgpcRES@@PEAVgpcSRC@@@Z 000000014010df00 f i gpcres_run.obj
 0002:000820f0       ??0gpfFLG@@QEAA@XZ         000000014010e0f0 f i gpcres_run.obj
 0002:000821b0       ??1gpcSTK@@QEAA@XZ         000000014010e1b0 f i gpcres_run.obj
 0002:00082230       ??4F2@@QEAAAEAV0@H@Z       000000014010e230 f i gpcres_run.obj
 0002:000822c0       ??8I4x2@@QEBA_NAEBV0@@Z    000000014010e2c0 f i gpcres_run.obj
 0002:00082360       ??HI4x2@@QEBA?AV0@AEBV0@@Z 000000014010e360 f i gpcres_run.obj
 0002:00082410       ??_0F2@@QEAAAEAV0@AEBV0@@Z 000000014010e410 f i gpcres_run.obj
 0002:000824d0       ??_0F4@@QEAAAEAV0@AEBV0@@Z 000000014010e4d0 f i gpcres_run.obj
 0002:000825c0       ?RESrun@gpcRES@@QEAAPEAV1@PEAV1@PEAVgpcLZY@@AEAVgpcWIN@@PEAVgpcSRC@@0IPEAVgpcSTK@@@Z 000000014010e5c0 f   gpcres_run.obj
 0002:00083de0       ?VBOnew@gpcGL@@QEAAIPEBMII@Z 000000014010fde0 f i gpcres_run.obj
 0002:00083fa0       ?area@I4x2@@QEBA_JXZ       000000014010ffa0 f i gpcres_run.obj
 0002:00084010       ?bGD@gpcPICAM@@QEAA_NXZ    0000000140110010 f i gpcres_run.obj
 0002:000840a0       ?bGD@gpcREG@@QEAA_NXZ      00000001401100a0 f i gpcres_run.obj
 0002:00084120       ?div@F4@@QEAAAEAV1@V1@I@Z  0000000140110120 f i gpcres_run.obj
 0002:000841e0       ?getPIX@gpcPIC@@QEAAPEAEXZ 00000001401101e0 f i gpcres_run.obj
 0002:00084290       ?getXFNDan@gpcMASS@@QEAAIVI4x2@@@Z 0000000140110290 f i gpcres_run.obj
 0002:00084390       ?getXFNDzn@gpcMASS@@QEAAIAEBVU4x2@@@Z 0000000140110390 f i gpcres_run.obj
 0002:000844b0       ?glDONE@gpcGL@@QEAAPEAV1@XZ 00000001401104b0 f i gpcres_run.obj
 0002:00084530       ?glDRW@gpcGL@@QEAAPEAV1@VI4x2@@0@Z 0000000140110530 f i gpcres_run.obj
 0002:000849a0       ?glSETbox@gpcGL@@QEAAPEAV1@VI4x2@@AEBV2@@Z 00000001401109a0 f i gpcres_run.obj
 0002:00085070       ?glSETcnl@gpcGL@@QEAAPEAV1@IPEAVF4@@I@Z 0000000140111070 f i gpcres_run.obj
 0002:00085160       ?glSETtx@gpcGL@@QEAAPEAV1@IPEAPEAVgpcPIC@@@Z 0000000140111160 f i gpcres_run.obj
 0002:00085390       ?glSETtx@gpcGL@@QEAAPEAV1@IPEAUSDL_Texture@@VI4x2@@@Z 0000000140111390 f i gpcres_run.obj
 0002:000855e0       ?jDOitREF@gpcMASS@@QEAAIPEAVgpcWIN@@IAEAIPEAPEAI22PEAI@Z 00000001401115e0 f   gpcres_run.obj
 0002:000859a0       ?justDOit@gpcMASS@@QEAAPEAEPEAVgpcWIN@@@Z 00000001401119a0 f   gpcres_run.obj
 0002:0008bd40       ?nLOAD@gpcALU@@QEAAIXZ     0000000140117d40 f i gpcres_run.obj
 0002:0008bdb0       ?qBLD@gpcSRC@@QEAA_NXZ     0000000140117db0 f i gpcres_run.obj
 0002:0008be30       ?rdyBLD@gpcSRC@@QEAAIXZ    0000000140117e30 f i gpcres_run.obj
 0002:0008beb0       ?setCaptureSize@gpcCAMubi@@QEAAXII@Z 0000000140117eb0 f i gpcres_run.obj
 0002:0008bf40       ?setFormat@gpcCAMubi@@QEAAXW4RASPICAM_FORMAT@@@Z 0000000140117f40 f i gpcres_run.obj
 0002:0008bfb0       ?srcUPDT@gpcSRC@@QEAAI_K@Z 0000000140117fb0 f i gpcres_run.obj
 0002:0008c0c0       ?surDRW@gpcPIC@@QEAAPEAUSDL_Surface@@XZ 00000001401180c0 f i gpcres_run.obj
 0002:0008c200       ?surDRWtx@gpcPIC@@QEAAPEAUSDL_Texture@@PEAUSDL_Renderer@@@Z 0000000140118200 f i gpcres_run.obj
 0002:0008c900       ??$?0A6AXPEAD@Z@?$_Tuple_val@P6AXPEAD@Z@std@@QEAA@A6AXPEAD@Z@Z 0000000140118900 f i gpcSLMPdcr.obj
 0002:0008c980       ??$?0A6AXPEAD@ZAEAPEAD$0A@@?$tuple@P6AXPEAD@ZPEAD@std@@QEAA@A6AXPEAD@ZAEAPEAD@Z 0000000140118980 f i gpcSLMPdcr.obj
 0002:0008ca80       ??$?0A6AXPEAD@ZAEAPEADX@thread@std@@QEAA@A6AXPEAD@ZAEAPEAD@Z 0000000140118a80 f i gpcSLMPdcr.obj
 0002:0008cc10       ??$?0AEAPEAD@?$_Tuple_val@PEAD@std@@QEAA@AEAPEAD@Z 0000000140118c10 f i gpcSLMPdcr.obj
 0002:0008cc90       ??$?0AEAPEAV?$tuple@P6AXPEAD@ZPEAD@std@@@?$_Compressed_pair@U?$default_delete@V?$tuple@P6AXPEAD@ZPEAD@std@@@std@@PEAV?$tuple@P6AXPEAD@ZPEAD@2@$00@std@@QEAA@U_Zero_then_variadic_args_t@1@AEAPEAV?$tuple@P6AXPEAD@ZPEAD@1@@Z 0000000140118c90 f i gpcSLMPdcr.obj
 0002:0008cd20       ??$?0U?$default_delete@V?$tuple@P6AXPEAD@ZPEAD@std@@@std@@$0A@@?$unique_ptr@V?$tuple@P6AXPEAD@ZPEAD@std@@U?$default_delete@V?$tuple@P6AXPEAD@ZPEAD@std@@@2@@std@@QEAA@PEAV?$tuple@P6AXPEAD@ZPEAD@1@@Z 0000000140118d20 f i gpcSLMPdcr.obj
 0002:0008cdc0       ??$?0U_Exact_args_t@std@@A6AXPEAD@ZAEAPEAD$0A@@?$tuple@P6AXPEAD@ZPEAD@std@@QEAA@U_Exact_args_t@1@A6AXPEAD@ZAEAPEAD@Z 0000000140118dc0 f i gpcSLMPdcr.obj
 0002:0008ced0       ??$?0U_Exact_args_t@std@@AEAPEAD$$V$0A@@?$tuple@PEAD@std@@QEAA@U_Exact_args_t@1@AEAPEAD@Z 0000000140118ed0 f i gpcSLMPdcr.obj
 0002:0008cfa0       ??$_Call@P6AXPEAD@ZPEAD@_Invoker_functor@std@@SAX$$QEAP6AXPEAD@Z$$QEAPEAD@Z 0000000140118fa0 f i gpcSLMPdcr.obj
 0002:0008d040       ??$_Invoke@V?$tuple@P6AXPEAD@ZPEAD@std@@$0A@$00@thread@std@@CAIPEAX@Z 0000000140119040 f i gpcSLMPdcr.obj
 0002:0008d160       ??$exchange@PEAV?$tuple@P6AXPEAD@ZPEAD@std@@PEAV12@@std@@YAPEAV?$tuple@P6AXPEAD@ZPEAD@0@AEAPEAV10@$$QEAPEAV10@@Z 0000000140119160 f i gpcSLMPdcr.obj
 0002:0008d1f0       ??$forward@A6AXPEAD@Z@std@@YAA6AXPEAD@ZA6AX0@Z@Z 00000001401191f0 f i gpcSLMPdcr.obj
 0002:0008d250       ??$forward@AEAPEAD@std@@YAAEAPEADAEAPEAD@Z 0000000140119250 f i gpcSLMPdcr.obj
 0002:0008d2b0       ??$forward@AEAPEAV?$tuple@P6AXPEAD@ZPEAD@std@@@std@@YAAEAPEAV?$tuple@P6AXPEAD@ZPEAD@0@AEAPEAV10@@Z 00000001401192b0 f i gpcSLMPdcr.obj
 0002:0008d310       ??$forward@P6AXPEAD@Z@std@@YA$$QEAP6AXPEAD@ZAEAP6AX0@Z@Z 0000000140119310 f i gpcSLMPdcr.obj
 0002:0008d370       ??$forward@PEAD@std@@YA$$QEAPEADAEAPEAD@Z 0000000140119370 f i gpcSLMPdcr.obj
 0002:0008d3d0       ??$get@$00P6AXPEAD@ZPEAD@std@@YAAEAPEADAEAV?$tuple@P6AXPEAD@ZPEAD@0@@Z 00000001401193d0 f i gpcSLMPdcr.obj
 0002:0008d430       ??$get@$0A@P6AXPEAD@ZPEAD@std@@YAAEAP6AXPEAD@ZAEAV?$tuple@P6AXPEAD@ZPEAD@0@@Z 0000000140119430 f i gpcSLMPdcr.obj
 0002:0008d490       ??$invoke@P6AXPEAD@ZPEAD@std@@YAX$$QEAP6AXPEAD@Z$$QEAPEAD@Z 0000000140119490 f i gpcSLMPdcr.obj
 0002:0008d530       ??$make_unique@V?$tuple@P6AXPEAD@ZPEAD@std@@A6AXPEAD@ZAEAPEAD$0A@@std@@YA?AV?$unique_ptr@V?$tuple@P6AXPEAD@ZPEAD@std@@U?$default_delete@V?$tuple@P6AXPEAD@ZPEAD@std@@@2@@0@A6AXPEAD@ZAEAPEAD@Z 0000000140119530 f i gpcSLMPdcr.obj
 0002:0008d660       ??$move@AEAP6AXPEAD@Z@std@@YA$$QEAP6AXPEAD@ZAEAP6AX0@Z@Z 0000000140119660 f i gpcSLMPdcr.obj
 0002:0008d6c0       ??$move@AEAPEAD@std@@YA$$QEAPEADAEAPEAD@Z 00000001401196c0 f i gpcSLMPdcr.obj
 0002:0008d720       ??0gpcALU@@QEAA@AEBV0@@Z   0000000140119720 f i gpcSLMPdcr.obj
 0002:0008d840       ??1?$unique_ptr@V?$tuple@P6AXPEAD@ZPEAD@std@@U?$default_delete@V?$tuple@P6AXPEAD@ZPEAD@std@@@2@@std@@QEAA@XZ 0000000140119840 f i gpcSLMPdcr.obj
 0002:0008d8f0       ??4gpcDrc@@QEAAAEAV0@AEBVgpcROB@@@Z 00000001401198f0 f   gpcSLMPdcr.obj
 0002:0008df20       ??D?$unique_ptr@V?$tuple@P6AXPEAD@ZPEAD@std@@U?$default_delete@V?$tuple@P6AXPEAD@ZPEAD@std@@@2@@std@@QEBAAEAV?$tuple@P6AXPEAD@ZPEAD@1@XZ 0000000140119f20 f i gpcSLMPdcr.obj
 0002:0008df80       ??R?$default_delete@V?$tuple@P6AXPEAD@ZPEAD@std@@@std@@QEBAXPEAV?$tuple@P6AXPEAD@ZPEAD@1@@Z 0000000140119f80 f i gpcSLMPdcr.obj
 0002:0008e000       ?_Get_first@?$_Compressed_pair@U?$default_delete@V?$tuple@P6AXPEAD@ZPEAD@std@@@std@@PEAV?$tuple@P6AXPEAD@ZPEAD@2@$00@std@@QEAAAEAU?$default_delete@V?$tuple@P6AXPEAD@ZPEAD@std@@@2@XZ 000000014011a000 f i gpcSLMPdcr.obj
 0002:0008e060       ?answSTAT@gpcDrc@@QEAAPEAVgpcLZY@@PEAV2@E@Z 000000014011a060 f   gpcSLMPdcr.obj
 0002:0008ee00       ?async@gpcDrc@@QEAA_NPEADAEAVgpcALU@@PEAVgpcRES@@@Z 000000014011ae00 f   gpcSLMPdcr.obj
 0002:0008f3b0       ?bHS2o@gpcDrc@@QEBA_NXZ    000000014011b3b0 f i gpcSLMPdcr.obj
 0002:0008f440       ?bHS3i@gpcDrc@@QEBA_NXZ    000000014011b440 f i gpcSLMPdcr.obj
 0002:0008f4d0       ?bHS3o@gpcDrc@@QEBA_NXZ    000000014011b4d0 f i gpcSLMPdcr.obj
 0002:0008f560       ?cageBALL@gpcDrc@@QEAA?AVI4x4@@V2@PEAV2@I@Z 000000014011b560 f   gpcSLMPdcr.obj
 0002:0008f980       ?cageBOX@gpcDrc@@QEAA?AVI4x4@@V2@PEAV2@I@Z 000000014011b980 f   gpcSLMPdcr.obj
 0002:0008fde0       ?drc_trd@@YAXPEAD@Z        000000014011bde0 f   gpcSLMPdcr.obj
 0002:0008ff30       ?get@?$unique_ptr@V?$tuple@P6AXPEAD@ZPEAD@std@@U?$default_delete@V?$tuple@P6AXPEAD@ZPEAD@std@@@2@@std@@QEBAPEAV?$tuple@P6AXPEAD@ZPEAD@2@XZ 000000014011bf30 f i gpcSLMPdcr.obj
 0002:0008ff90       ?hs123@gpcDrc@@QEAAIXZ     000000014011bf90 f i gpcSLMPdcr.obj
 0002:000900e0       ?iDrc@gpcROBnD@@QEAAE_N@Z  000000014011c0e0 f   gpcSLMPdcr.obj
 0002:00090190       ?join@thread@std@@QEAAXXZ  000000014011c190 f i gpcSLMPdcr.obj
 0002:000902a0       ?judo@gpcDrc@@QEAAAEAV1@AEAVgpcROB@@I@Z 000000014011c2a0 f   gpcSLMPdcr.obj
 0002:00092d80       ?lzyROBnDstat@gpcLZY@@QEAAPEAV1@AEA_KAEAVgpcROBnD@@E@Z 000000014011ed80 f   gpcSLMPdcr.obj
 0002:00092f20       ?pull@gpcROBnD@@QEAAPEAVgpcLZY@@PEAV2@PEAVU4x4@@@Z 000000014011ef20 f   gpcSLMPdcr.obj
 0002:000930b0       ?release@?$unique_ptr@V?$tuple@P6AXPEAD@ZPEAD@std@@U?$default_delete@V?$tuple@P6AXPEAD@ZPEAD@std@@@2@@std@@QEAAPEAV?$tuple@P6AXPEAD@ZPEAD@2@XZ 000000014011f0b0 f i gpcSLMPdcr.obj
 0002:00093130       ??0gpcLZYdct@@QEAA@XZ      000000014011f130 f i gpcSRC.obj
 0002:000931c0       ??0gpcSCOOP@@QEAA@XZ       000000014011f1c0 f i gpcSRC.obj
 0002:00093310       ??0gpcSRC@@QEAA@AEAV0@@Z   000000014011f310 f   gpcSRC.obj
 0002:00093440       ??0gpcSRC@@QEAA@XZ         000000014011f440 f   gpcSRC.obj
 0002:00093550       ??1gpcLZYall@@QEAA@XZ      000000014011f550 f i gpcSRC.obj
 0002:000935b0       ??1gpcLZYdct@@QEAA@XZ      000000014011f5b0 f i gpcSRC.obj
 0002:00093620       ??1gpcMAP@@QEAA@XZ         000000014011f620 f i gpcSRC.obj
 0002:000936c0       ??1gpcMASS@@UEAA@XZ        000000014011f6c0 f   gpcSRC.obj
 0002:00093a00       ??1gpcSCOOP@@QEAA@XZ       000000014011fa00 f i gpcSRC.obj
 0002:00093ac0       ??1gpcSRC@@UEAA@XZ         000000014011fac0 f   gpcSRC.obj
 0002:00093f30       ??4gpcSRC@@QEAAAEAV0@AEAV0@@Z 000000014011ff30 f   gpcSRC.obj
 0002:000945d0       ??_EgpcLZY@@QEAAPEAXI@Z    00000001401205d0 f i gpcSRC.obj
 0002:000946e0       ??_EgpcMAP@@QEAAPEAXI@Z    00000001401206e0 f i gpcSRC.obj
 0002:000947f0       ??_EgpcMASS@@UEAAPEAXI@Z   00000001401207f0 f i gpcSRC.obj
 0002:000947f0       ??_GgpcMASS@@UEAAPEAXI@Z   00000001401207f0 f i gpcSRC.obj
 0002:00094880       ??_EgpcSRC@@UEAAPEAXI@Z    0000000140120880 f i gpcSRC.obj
 0002:00094880       ??_GgpcSRC@@UEAAPEAXI@Z    0000000140120880 f i gpcSRC.obj
 0002:00094910       ?SRCadd@gpcMASS@@QEAAPEAVgpcSRC@@PEAV2@IAEAI1@Z 0000000140120910 f   gpcSRC.obj
 0002:00094fb0       ?SRCcpy@gpcSRC@@QEAAAEAV1@PEAE0@Z 0000000140120fb0 f   gpcSRC.obj
 0002:00095520       ?SRCfrm@gpcSRC@@QEAAPEAV1@PEAVU1x4@@AEBVI4x4@@W4gpeCLR@@1@Z 0000000140121520 f   gpcSRC.obj
 0002:00095c30       ?SRCmini@gpcSRC@@QEAA?AVI4x2@@PEAVU1x4@@V2@HHHHAEAVgpcCRS@@W4gpeCLR@@3_NE@Z 0000000140121c30 f   gpcSRC.obj
 0002:00096600       ?nCLR@gpcSRC@@QEAAIXZ      0000000140122600 f i gpcSRC.obj
 0002:00096660       ?pSRCalloc@gpcSRC@@QEAAPEAE_NE@Z 0000000140122660 f i gpcSRC.obj
 0002:00096930       ?reset@gpcSRC@@QEAAAEAV1@PEAE0PEAPEAEAEAVU4x4@@I@Z 0000000140122930 f   gpcSRC.obj
 0002:00096de0       ??0U1x4@@QEAA@EEEE@Z       0000000140122de0 f i gpcSRCbreak.obj
 0002:00096ea0       ??YU4x2@@QEAAAEAV0@H@Z     0000000140122ea0 f i gpcSRCbreak.obj
 0002:00096f40       ?DCTadd@gpcSCOOP@@QEAAIVU4x2@@PEAE_KII@Z 0000000140122f40 f i gpcSRCbreak.obj
 0002:00097330       ?NOTEadd@gpcSCOOP@@QEAAIVU4x2@@PEAE_KI@Z 0000000140123330 f i gpcSRCbreak.obj
 0002:00097510       ?STRadd@gpcSCOOP@@QEAAIVU4x2@@PEAE_KI@Z 0000000140123510 f i gpcSRCbreak.obj
 0002:000976f0       ?dctMILLadd@gpcLZYdct@@QEAAPEAV1@PEAE_K@Z 00000001401236f0 f i gpcSRCbreak.obj
 0002:00097c50       ?dctMILLfndnS@gpcLZYdct@@QEAAIPEAEAEA_KAEAI@Z 0000000140123c50 f i gpcSRCbreak.obj
 0002:000980d0       ?gpfUTFlen@@YA_KPEAE0AEAI10@Z 00000001401240d0 f i gpcSRCbreak.obj
 0002:00098500       ?lenMILL@@YA?AVU4x2@@V1@AEAVU4x4@@PEAE2@Z 0000000140124500 f i gpcSRCbreak.obj
 0002:00098730       ?mn@I4x2@@QEAAHXZ          0000000140124730 f i gpcSRCbreak.obj
 0002:000987d0       ?nMN@gpcSCOOP@@QEAAIXZ     00000001401247d0 f i gpcSRCbreak.obj
 0002:00098870       ?nSTRix@gpcLZYdct@@QEAAI_K@Z 0000000140124870 f i gpcSRCbreak.obj
 0002:00098960       ?pMN@gpcSCOOP@@QEAAPEAVI8x4@@XZ 0000000140124960 f i gpcSRCbreak.obj
 0002:00098a20       ?rst@gpcLZYdct@@QEAAXXZ    0000000140124a20 f i gpcSRCbreak.obj
 0002:00098ac0       ?rst@gpcSCOOP@@QEAAXPEAE@Z 0000000140124ac0 f i gpcSRCbreak.obj
 0002:00098c10       ?srcBRK@gpcSRC@@QEAA?AVU4x4@@_NEPEBD@Z 0000000140124c10 f   gpcSRCbreak.obj
 0002:00099cd0       ?srcRDY@gpcSRC@@QEAA?AVI4x2@@PEAVU1x4@@V2@1HHAEAVgpcCRS@@_NE@Z 0000000140125cd0 f   gpcSRCbreak.obj
 0002:0009a960       ?srcSCN@gpcSRC@@QEAAEAEAVgpcCRS@@_NE@Z 0000000140126960 f   gpcSRCbreak.obj
 0002:0009b3b0       ?xyz_@U4x4@@QEAAAEAV1@V1@@Z 00000001401273b0 f i gpcSRCbreak.obj
 0002:0009b460       ?nASM@gpcSCOOP@@QEAAIXZ    0000000140127460 f i gpcSRCdbg.obj
 0002:0009b500       ?pINST@gpcLZY@@QEAAPEAVI4x4@@I@Z 0000000140127500 f i gpcSRCdbg.obj
 0002:0009b590       ?srcDBG@gpcSRC@@QEAAXAEAVgpcLZYdct@@E@Z 0000000140127590 f   gpcSRCdbg.obj
 0002:0009c380       ??0gpCORE@@QEAA@XZ         0000000140128380 f i gpcSRClnk.obj
 0002:0009c4d0       ??0gpSTK@@QEAA@XZ          00000001401284d0 f i gpcSRClnk.obj
 0002:0009c530       ??0gpcCDsp@@QEAA@XZ        0000000140128530 f i gpcSRClnk.obj
 0002:0009c6c0       ??0gpcO@@QEAA@XZ           00000001401286c0 f i gpcSRClnk.obj
 0002:0009c760       ??1gpcCDsp@@QEAA@XZ        0000000140128760 f i gpcSRClnk.obj
 0002:0009c810       ??1gpcO@@QEAA@XZ           0000000140128810 f i gpcSRClnk.obj
 0002:0009c8c0       ??4gpcO@@QEAAPEAV0@PEBV0@@Z 00000001401288c0 f i gpcSRClnk.obj
 0002:0009c9d0       ??EgpcCD@@QEAAAEAV0@XZ     00000001401289d0 f i gpcSRClnk.obj
 0002:0009ca50       ??EgpcCDsp@@QEAAAEAV0@XZ   0000000140128a50 f i gpcSRClnk.obj
 0002:0009cb10       ??GI4x2@@QEBA?AV0@AEBV0@@Z 0000000140128b10 f i gpcSRClnk.obj
 0002:0009cbc0       ?CD@gpcCDsp@@QEAAPEAVgpcCD@@XZ 0000000140128bc0 f i gpcSRClnk.obj
 0002:0009ccd0       ?INST@gpcLZY@@QEAAAEAVI4x4@@IW4gpeOPid@@W4gpeCsz@@W4gpeEA@@EE2EE@Z 0000000140128cd0 f i gpcSRClnk.obj
 0002:0009ce10       ?LEVaddEXP@gpcCDsp@@QEAAPEAW4gpeOPid@@XZ 0000000140128e10 f i gpcSRClnk.obj
 0002:0009d060       ?LEVdwn@gpcCDsp@@QEAAAEAV1@AEAVgpcSCOOP@@W4gpeOPid@@@Z 0000000140129060 f i gpcSRClnk.obj
 0002:0009d750       ?LEVmulEXP@gpcCDsp@@QEAAPEAW4gpeOPid@@XZ 0000000140129750 f i gpcSRClnk.obj
 0002:0009d9a0       ?LEVrst@gpcCDsp@@QEAAAEAV1@XZ 00000001401299a0 f i gpcSRClnk.obj
 0002:0009dbe0       ?LEVup@gpcCDsp@@QEAAAEAV1@AEAVgpcSCOOP@@@Z 0000000140129be0 f i gpcSRClnk.obj
 0002:0009e300       ?LOAD_DST_ADR_A0@gpcCDsp@@QEAAAEAVI4x4@@AEAVgpcSCOOP@@@Z 000000014012a300 f i gpcSRClnk.obj
 0002:0009e410       ?LOAD_SRC_ADR_nA1@gpcCDsp@@QEAAAEAVI4x4@@AEAVgpcSCOOP@@H@Z 000000014012a410 f i gpcSRClnk.obj
 0002:0009e560       ?dctMILLfnd@gpcLZYdct@@QEAAIPEAE_KAEAI@Z 000000014012a560 f i gpcSRClnk.obj
 0002:0009e9e0       ?fnd@gpcPIK@@QEAAPEAVgpcO@@PEAV2@AEAV2@I@Z 000000014012a9e0 f   gpcSRClnk.obj
 0002:0009efc0       ?kADD@gpcCDsp@@QEAAAEAV1@AEAVgpcSCOOP@@@Z 000000014012afc0 f i gpcSRClnk.obj
 0002:0009f6a0       ?kEND@gpcCDsp@@QEAAAEAV1@AEAVgpcSCOOP@@@Z 000000014012b6a0 f i gpcSRClnk.obj
 0002:0009f7e0       ?kMOV@gpcCDsp@@QEAAAEAV1@AEAVgpcSCOOP@@@Z 000000014012b7e0 f i gpcSRClnk.obj
 0002:0009f860       ?kMUL@gpcCDsp@@QEAAAEAV1@AEAVgpcSCOOP@@_N@Z 000000014012b860 f i gpcSRClnk.obj
 0002:0009fe80       ?kOBJ@gpcCDsp@@QEAAAEAV1@AEAVgpcSCOOP@@@Z 000000014012be80 f i gpcSRClnk.obj
 0002:000a0400       ?knead@gpcCDsp@@QEAAAEAV1@AEAVgpcSCOOP@@@Z 000000014012c400 f i gpcSRClnk.obj
 0002:000a0890       ?move_l_IA1I_D0@gpcCDsp@@QEAAAEAVI4x4@@AEAVgpcSCOOP@@@Z 000000014012c890 f i gpcSRClnk.obj
 0002:000a0980       ?move_l_IA1I_IA0I@gpcCDsp@@QEAAAEAVI4x4@@AEAVgpcSCOOP@@@Z 000000014012c980 f i gpcSRClnk.obj
 0002:000a0a70       ?nLiNK@gpcSCOOP@@QEAAIXZ   000000014012ca70 f i gpcSRClnk.obj
 0002:000a0b20       ?null@gpcCD@@QEAAAEAV1@XZ  000000014012cb20 f i gpcSRClnk.obj
 0002:000a0ba0       ?srcBLD@gpcSRC@@QEAAXPEAVgpcMASS@@@Z 000000014012cba0 f   gpcSRClnk.obj
 0002:000a0ea0       ?srcCMPLR@gpcSRC@@QEAAXAEAVgpcLZYdct@@E@Z 000000014012cea0 f   gpcSRClnk.obj
 0002:000a2120       ?strASM@gpCNST@@QEAA_KPEAD0PEAVI8x4@@PEAVU4x4@@@Z 000000014012e120 f   gpcSRClnk.obj
 0002:000a2700       ?srcMINI@gpcSRC@@QEAAPEAVgpcLZY@@PEAV2@PEAVgpcMASS@@PEAVgpcWIN@@PEAVgpCORE@@@Z 000000014012e700 f   gpcSRCprnt.obj
 0002:000a2df0       ??$floor@HX@@YANH@Z        000000014012edf0 f i gpcSRCrun.obj
 0002:000a2e60       ??0D@@QEAA@H@Z             000000014012ee60 f i gpcSRCrun.obj
 0002:000a2ee0       ??0D@@QEAA@N@Z             000000014012eee0 f i gpcSRCrun.obj
 0002:000a2f60       ??0D@@QEAA@_K@Z            000000014012ef60 f i gpcSRCrun.obj
 0002:000a3010       ??0F@@QEAA@H@Z             000000014012f010 f i gpcSRCrun.obj
 0002:000a3090       ??0F@@QEAA@M@Z             000000014012f090 f i gpcSRCrun.obj
 0002:000a3110       ??0F@@QEAA@_K@Z            000000014012f110 f i gpcSRCrun.obj
 0002:000a31c0       ??9D@@QEAA_NV0@@Z          000000014012f1c0 f i gpcSRCrun.obj
 0002:000a3260       ??9F@@QEAA_NV0@@Z          000000014012f260 f i gpcSRCrun.obj
 0002:000a3300       ??9U1x4@@QEAA_NV0@@Z       000000014012f300 f i gpcSRCrun.obj
 0002:000a3390       ??KD@@QEAANAEBV0@@Z        000000014012f390 f i gpcSRCrun.obj
 0002:000a3410       ??KF@@QEAAMAEBV0@@Z        000000014012f410 f i gpcSRCrun.obj
 0002:000a3490       ??KU1x4@@QEAA?AV0@AEBV0@@Z 000000014012f490 f i gpcSRCrun.obj
 0002:000a3650       ??LD@@QEAANAEBV0@@Z        000000014012f650 f i gpcSRCrun.obj
 0002:000a3710       ??LF@@QEAAMAEBV0@@Z        000000014012f710 f i gpcSRCrun.obj
 0002:000a37d0       ??LU1x4@@QEAA?AV0@AEBV0@@Z 000000014012f7d0 f i gpcSRCrun.obj
 0002:000a3b10       ??XD@@QEAAAEAV0@AEBV0@@Z   000000014012fb10 f i gpcSRCrun.obj
 0002:000a3ba0       ??XF@@QEAAAEAV0@AEBV0@@Z   000000014012fba0 f i gpcSRCrun.obj
 0002:000a3c30       ??XU1x4@@QEAAAEAV0@AEBV0@@Z 000000014012fc30 f i gpcSRCrun.obj
 0002:000a3d50       ??YD@@QEAAAEAV0@AEBV0@@Z   000000014012fd50 f i gpcSRCrun.obj
 0002:000a3de0       ??YF@@QEAAAEAV0@AEBV0@@Z   000000014012fde0 f i gpcSRCrun.obj
 0002:000a3e70       ??YU1x4@@QEAAAEAV0@AEBV0@@Z 000000014012fe70 f i gpcSRCrun.obj
 0002:000a3f80       ??ZD@@QEAAAEAV0@AEBV0@@Z   000000014012ff80 f i gpcSRCrun.obj
 0002:000a4010       ??ZF@@QEAAAEAV0@AEBV0@@Z   0000000140130010 f i gpcSRCrun.obj
 0002:000a40a0       ??ZU1x4@@QEAAAEAV0@AEBV0@@Z 00000001401300a0 f i gpcSRCrun.obj
 0002:000a41b0       ??_4D@@QEAAAEAV0@AEBV0@@Z  00000001401301b0 f i gpcSRCrun.obj
 0002:000a4280       ??_4F@@QEAAAEAV0@AEBV0@@Z  0000000140130280 f i gpcSRCrun.obj
 0002:000a4350       ??_4U1x4@@QEAAAEAV0@AEBV0@@Z 0000000140130350 f i gpcSRCrun.obj
 0002:000a43e0       ??_5D@@QEAAAEAV0@AEBV0@@Z  00000001401303e0 f i gpcSRCrun.obj
 0002:000a44b0       ??_5F@@QEAAAEAV0@AEBV0@@Z  00000001401304b0 f i gpcSRCrun.obj
 0002:000a4580       ??_5U1x4@@QEAAAEAV0@AEBV0@@Z 0000000140130580 f i gpcSRCrun.obj
 0002:000a4610       ?floor@@YAMM@Z             0000000140130610 f i gpcSRCrun.obj
 0002:000a4670       ?iPC@gpCORE@@QEAAPEAVI4x4@@AEAVU1x4@@AEAW4gpeOPid@@AEAE2AEAW4gpeEA@@223AEAW4gpeCsz@@@Z 0000000140130670 f i gpcSRCrun.obj
 0002:000a4900       ?ini@gpCORE@@QEAAPEAVI4x4@@PEAV2@IPEAPEA_J111@Z 0000000140130900 f i gpcSRCrun.obj
 0002:000a4bf0       ?srcRUN@gpcSRC@@QEAAPEAVgpCORE@@PEAVgpcMASS@@PEAVgpcWIN@@PEAV2@@Z 0000000140130bf0 f   gpcSRCrun.obj
 0002:000a7660       ??$?0A6AXPEAVgpcTRDbug@@@Z@?$_Tuple_val@P6AXPEAVgpcTRDbug@@@Z@std@@QEAA@A6AXPEAVgpcTRDbug@@@Z@Z 0000000140133660 f i gpcTOOL.obj
 0002:000a76e0       ??$?0A6AXPEAVgpcTRDbug@@@ZPEAV0@$0A@@?$tuple@P6AXPEAVgpcTRDbug@@@ZPEAV1@@std@@QEAA@A6AXPEAVgpcTRDbug@@@Z$$QEAPEAV2@@Z 00000001401336e0 f i gpcTOOL.obj
 0002:000a77e0       ??$?0A6AXPEAVgpcTRDbug@@@ZPEAV0@X@thread@std@@QEAA@A6AXPEAVgpcTRDbug@@@Z$$QEAPEAV2@@Z 00000001401337e0 f i gpcTOOL.obj
 0002:000a7970       ??$?0A6AXPEAVgpcTRDspc@@@Z@?$_Tuple_val@P6AXPEAVgpcTRDspc@@@Z@std@@QEAA@A6AXPEAVgpcTRDspc@@@Z@Z 0000000140133970 f i gpcTOOL.obj
 0002:000a79f0       ??$?0A6AXPEAVgpcTRDspc@@@ZPEAV0@$0A@@?$tuple@P6AXPEAVgpcTRDspc@@@ZPEAV1@@std@@QEAA@A6AXPEAVgpcTRDspc@@@Z$$QEAPEAV2@@Z 00000001401339f0 f i gpcTOOL.obj
 0002:000a7af0       ??$?0A6AXPEAVgpcTRDspc@@@ZPEAV0@X@thread@std@@QEAA@A6AXPEAVgpcTRDspc@@@Z$$QEAPEAV2@@Z 0000000140133af0 f i gpcTOOL.obj
 0002:000a7c80       ??$?0AEAPEAV?$tuple@P6AXPEAVgpcTRDbug@@@ZPEAV1@@std@@@?$_Compressed_pair@U?$default_delete@V?$tuple@P6AXPEAVgpcTRDbug@@@ZPEAV1@@std@@@std@@PEAV?$tuple@P6AXPEAVgpcTRDbug@@@ZPEAV1@@2@$00@std@@QEAA@U_Zero_then_variadic_args_t@1@AEAPEAV?$tuple@P6AXPEAVgpcTRDbug@@@ZPEAV1@@1@@Z 0000000140133c80 f i gpcTOOL.obj
 0002:000a7d10       ??$?0AEAPEAV?$tuple@P6AXPEAVgpcTRDspc@@@ZPEAV1@@std@@@?$_Compressed_pair@U?$default_delete@V?$tuple@P6AXPEAVgpcTRDspc@@@ZPEAV1@@std@@@std@@PEAV?$tuple@P6AXPEAVgpcTRDspc@@@ZPEAV1@@2@$00@std@@QEAA@U_Zero_then_variadic_args_t@1@AEAPEAV?$tuple@P6AXPEAVgpcTRDspc@@@ZPEAV1@@1@@Z 0000000140133d10 f i gpcTOOL.obj
 0002:000a7da0       ??$?0PEAVgpcTRDbug@@@?$_Tuple_val@PEAVgpcTRDbug@@@std@@QEAA@$$QEAPEAVgpcTRDbug@@@Z 0000000140133da0 f i gpcTOOL.obj
 0002:000a7e20       ??$?0PEAVgpcTRDspc@@@?$_Tuple_val@PEAVgpcTRDspc@@@std@@QEAA@$$QEAPEAVgpcTRDspc@@@Z 0000000140133e20 f i gpcTOOL.obj
 0002:000a7ea0       ??$?0U?$default_delete@V?$tuple@P6AXPEAVgpcTRDbug@@@ZPEAV1@@std@@@std@@$0A@@?$unique_ptr@V?$tuple@P6AXPEAVgpcTRDbug@@@ZPEAV1@@std@@U?$default_delete@V?$tuple@P6AXPEAVgpcTRDbug@@@ZPEAV1@@std@@@2@@std@@QEAA@PEAV?$tuple@P6AXPEAVgpcTRDbug@@@ZPEAV1@@1@@Z 0000000140133ea0 f i gpcTOOL.obj
 0002:000a7f40       ??$?0U?$default_delete@V?$tuple@P6AXPEAVgpcTRDspc@@@ZPEAV1@@std@@@std@@$0A@@?$unique_ptr@V?$tuple@P6AXPEAVgpcTRDspc@@@ZPEAV1@@std@@U?$default_delete@V?$tuple@P6AXPEAVgpcTRDspc@@@ZPEAV1@@std@@@2@@std@@QEAA@PEAV?$tuple@P6AXPEAVgpcTRDspc@@@ZPEAV1@@1@@Z 0000000140133f40 f i gpcTOOL.obj
 0002:000a7fe0       ??$?0U_Exact_args_t@std@@A6AXPEAVgpcTRDbug@@@ZPEAV2@$0A@@?$tuple@P6AXPEAVgpcTRDbug@@@ZPEAV1@@std@@QEAA@U_Exact_args_t@1@A6AXPEAVgpcTRDbug@@@Z$$QEAPEAV3@@Z 0000000140133fe0 f i gpcTOOL.obj
 0002:000a80f0       ??$?0U_Exact_args_t@std@@A6AXPEAVgpcTRDspc@@@ZPEAV2@$0A@@?$tuple@P6AXPEAVgpcTRDspc@@@ZPEAV1@@std@@QEAA@U_Exact_args_t@1@A6AXPEAVgpcTRDspc@@@Z$$QEAPEAV3@@Z 00000001401340f0 f i gpcTOOL.obj
 0002:000a8200       ??$?0U_Exact_args_t@std@@PEAVgpcTRDbug@@$$V$0A@@?$tuple@PEAVgpcTRDbug@@@std@@QEAA@U_Exact_args_t@1@$$QEAPEAVgpcTRDbug@@@Z 0000000140134200 f i gpcTOOL.obj
 0002:000a82d0       ??$?0U_Exact_args_t@std@@PEAVgpcTRDspc@@$$V$0A@@?$tuple@PEAVgpcTRDspc@@@std@@QEAA@U_Exact_args_t@1@$$QEAPEAVgpcTRDspc@@@Z 00000001401342d0 f i gpcTOOL.obj
 0002:000a83a0       ??$?6U?$char_traits@D@std@@@std@@YAAEAV?$basic_ostream@DU?$char_traits@D@std@@@0@AEAV10@PEBE@Z 00000001401343a0 f i gpcTOOL.obj
 0002:000a8410       ??$_Call@P6AXPEAVgpcTRDbug@@@ZPEAV1@@_Invoker_functor@std@@SAX$$QEAP6AXPEAVgpcTRDbug@@@Z$$QEAPEAV2@@Z 0000000140134410 f i gpcTOOL.obj
 0002:000a84b0       ??$_Call@P6AXPEAVgpcTRDspc@@@ZPEAV1@@_Invoker_functor@std@@SAX$$QEAP6AXPEAVgpcTRDspc@@@Z$$QEAPEAV2@@Z 00000001401344b0 f i gpcTOOL.obj
 0002:000a8550       ??$_Invoke@V?$tuple@P6AXPEAVgpcTRDbug@@@ZPEAV1@@std@@$0A@$00@thread@std@@CAIPEAX@Z 0000000140134550 f i gpcTOOL.obj
 0002:000a8670       ??$_Invoke@V?$tuple@P6AXPEAVgpcTRDspc@@@ZPEAV1@@std@@$0A@$00@thread@std@@CAIPEAX@Z 0000000140134670 f i gpcTOOL.obj
 0002:000a8790       ??$exchange@PEAV?$tuple@P6AXPEAVgpcTRDbug@@@ZPEAV1@@std@@PEAV12@@std@@YAPEAV?$tuple@P6AXPEAVgpcTRDbug@@@ZPEAV1@@0@AEAPEAV10@$$QEAPEAV10@@Z 0000000140134790 f i gpcTOOL.obj
 0002:000a8820       ??$exchange@PEAV?$tuple@P6AXPEAVgpcTRDspc@@@ZPEAV1@@std@@PEAV12@@std@@YAPEAV?$tuple@P6AXPEAVgpcTRDspc@@@ZPEAV1@@0@AEAPEAV10@$$QEAPEAV10@@Z 0000000140134820 f i gpcTOOL.obj
 0002:000a88b0       ??$forward@A6AXPEAVgpcTRDbug@@@Z@std@@YAA6AXPEAVgpcTRDbug@@@ZA6AX0@Z@Z 00000001401348b0 f i gpcTOOL.obj
 0002:000a8910       ??$forward@A6AXPEAVgpcTRDspc@@@Z@std@@YAA6AXPEAVgpcTRDspc@@@ZA6AX0@Z@Z 0000000140134910 f i gpcTOOL.obj
 0002:000a8970       ??$forward@AEAPEAV?$tuple@P6AXPEAVgpcTRDbug@@@ZPEAV1@@std@@@std@@YAAEAPEAV?$tuple@P6AXPEAVgpcTRDbug@@@ZPEAV1@@0@AEAPEAV10@@Z 0000000140134970 f i gpcTOOL.obj
 0002:000a89d0       ??$forward@AEAPEAV?$tuple@P6AXPEAVgpcTRDspc@@@ZPEAV1@@std@@@std@@YAAEAPEAV?$tuple@P6AXPEAVgpcTRDspc@@@ZPEAV1@@0@AEAPEAV10@@Z 00000001401349d0 f i gpcTOOL.obj
 0002:000a8a30       ??$forward@P6AXPEAVgpcTRDbug@@@Z@std@@YA$$QEAP6AXPEAVgpcTRDbug@@@ZAEAP6AX0@Z@Z 0000000140134a30 f i gpcTOOL.obj
 0002:000a8a90       ??$forward@P6AXPEAVgpcTRDspc@@@Z@std@@YA$$QEAP6AXPEAVgpcTRDspc@@@ZAEAP6AX0@Z@Z 0000000140134a90 f i gpcTOOL.obj
 0002:000a8af0       ??$forward@PEAVgpcTRDbug@@@std@@YA$$QEAPEAVgpcTRDbug@@AEAPEAV1@@Z 0000000140134af0 f i gpcTOOL.obj
 0002:000a8b50       ??$forward@PEAVgpcTRDspc@@@std@@YA$$QEAPEAVgpcTRDspc@@AEAPEAV1@@Z 0000000140134b50 f i gpcTOOL.obj
 0002:000a8bb0       ??$get@$00P6AXPEAVgpcTRDbug@@@ZPEAV1@@std@@YAAEAPEAVgpcTRDbug@@AEAV?$tuple@P6AXPEAVgpcTRDbug@@@ZPEAV1@@0@@Z 0000000140134bb0 f i gpcTOOL.obj
 0002:000a8c10       ??$get@$00P6AXPEAVgpcTRDspc@@@ZPEAV1@@std@@YAAEAPEAVgpcTRDspc@@AEAV?$tuple@P6AXPEAVgpcTRDspc@@@ZPEAV1@@0@@Z 0000000140134c10 f i gpcTOOL.obj
 0002:000a8c70       ??$get@$0A@P6AXPEAVgpcTRDbug@@@ZPEAV1@@std@@YAAEAP6AXPEAVgpcTRDbug@@@ZAEAV?$tuple@P6AXPEAVgpcTRDbug@@@ZPEAV1@@0@@Z 0000000140134c70 f i gpcTOOL.obj
 0002:000a8cd0       ??$get@$0A@P6AXPEAVgpcTRDspc@@@ZPEAV1@@std@@YAAEAP6AXPEAVgpcTRDspc@@@ZAEAV?$tuple@P6AXPEAVgpcTRDspc@@@ZPEAV1@@0@@Z 0000000140134cd0 f i gpcTOOL.obj
 0002:000a8d30       ??$invoke@P6AXPEAVgpcTRDbug@@@ZPEAV1@@std@@YAX$$QEAP6AXPEAVgpcTRDbug@@@Z$$QEAPEAV1@@Z 0000000140134d30 f i gpcTOOL.obj
 0002:000a8dd0       ??$invoke@P6AXPEAVgpcTRDspc@@@ZPEAV1@@std@@YAX$$QEAP6AXPEAVgpcTRDspc@@@Z$$QEAPEAV1@@Z 0000000140134dd0 f i gpcTOOL.obj
 0002:000a8e70       ??$make_unique@V?$tuple@P6AXPEAVgpcTRDbug@@@ZPEAV1@@std@@A6AXPEAVgpcTRDbug@@@ZPEAV3@$0A@@std@@YA?AV?$unique_ptr@V?$tuple@P6AXPEAVgpcTRDbug@@@ZPEAV1@@std@@U?$default_delete@V?$tuple@P6AXPEAVgpcTRDbug@@@ZPEAV1@@std@@@2@@0@A6AXPEAVgpcTRDbug@@@Z$$QEAPEAV2@@Z 0000000140134e70 f i gpcTOOL.obj
 0002:000a8fa0       ??$make_unique@V?$tuple@P6AXPEAVgpcTRDspc@@@ZPEAV1@@std@@A6AXPEAVgpcTRDspc@@@ZPEAV3@$0A@@std@@YA?AV?$unique_ptr@V?$tuple@P6AXPEAVgpcTRDspc@@@ZPEAV1@@std@@U?$default_delete@V?$tuple@P6AXPEAVgpcTRDspc@@@ZPEAV1@@std@@@2@@0@A6AXPEAVgpcTRDspc@@@Z$$QEAPEAV2@@Z 0000000140134fa0 f i gpcTOOL.obj
 0002:000a90d0       ??$move@AEAP6AXPEAVgpcTRDbug@@@Z@std@@YA$$QEAP6AXPEAVgpcTRDbug@@@ZAEAP6AX0@Z@Z 00000001401350d0 f i gpcTOOL.obj
 0002:000a9130       ??$move@AEAP6AXPEAVgpcTRDspc@@@Z@std@@YA$$QEAP6AXPEAVgpcTRDspc@@@ZAEAP6AX0@Z@Z 0000000140135130 f i gpcTOOL.obj
 0002:000a9190       ??$move@AEAPEAVgpcTRDbug@@@std@@YA$$QEAPEAVgpcTRDbug@@AEAPEAV1@@Z 0000000140135190 f i gpcTOOL.obj
 0002:000a91f0       ??$move@AEAPEAVgpcTRDspc@@@std@@YA$$QEAPEAVgpcTRDspc@@AEAPEAV1@@Z 00000001401351f0 f i gpcTOOL.obj
 0002:000a9250       ??0gpcBOB@@QEAA@XZ         0000000140135250 f i gpcTOOL.obj
 0002:000a9340       ??0gpcTRDbug@@QEAA@XZ      0000000140135340 f i gpcTOOL.obj
 0002:000a93d0       ??0gpcTRDspc@@QEAA@XZ      00000001401353d0 f i gpcTOOL.obj
 0002:000a9500       ??1?$unique_ptr@V?$tuple@P6AXPEAVgpcTRDbug@@@ZPEAV1@@std@@U?$default_delete@V?$tuple@P6AXPEAVgpcTRDbug@@@ZPEAV1@@std@@@2@@std@@QEAA@XZ 0000000140135500 f i gpcTOOL.obj
 0002:000a95b0       ??1?$unique_ptr@V?$tuple@P6AXPEAVgpcTRDspc@@@ZPEAV1@@std@@U?$default_delete@V?$tuple@P6AXPEAVgpcTRDspc@@@ZPEAV1@@std@@@2@@std@@QEAA@XZ 00000001401355b0 f i gpcTOOL.obj
 0002:000a9660       ??1gpcBOB@@QEAA@XZ         0000000140135660 f i gpcTOOL.obj
 0002:000a9710       ??1gpcTRDbug@@QEAA@XZ      0000000140135710 f i gpcTOOL.obj
 0002:000a98c0       ??1gpcTRDspc@@QEAA@XZ      00000001401358c0 f i gpcTOOL.obj
 0002:000a9970       ??4I4x2@@QEAAAEAV0@AEBUSDL_Surface@@@Z 0000000140135970 f i gpcTOOL.obj
 0002:000a9a00       ??4gpcTRDbug@@QEAAAEAV0@PEAVgpcBOB@@@Z 0000000140135a00 f i gpcTOOL.obj
 0002:000a9e00       ??5U1x4@@QEBA?AV0@D@Z      0000000140135e00 f i gpcTOOL.obj
 0002:000a9fa0       ??D?$unique_ptr@V?$tuple@P6AXPEAVgpcTRDbug@@@ZPEAV1@@std@@U?$default_delete@V?$tuple@P6AXPEAVgpcTRDbug@@@ZPEAV1@@std@@@2@@std@@QEBAAEAV?$tuple@P6AXPEAVgpcTRDbug@@@ZPEAV1@@1@XZ 0000000140135fa0 f i gpcTOOL.obj
 0002:000aa000       ??D?$unique_ptr@V?$tuple@P6AXPEAVgpcTRDspc@@@ZPEAV1@@std@@U?$default_delete@V?$tuple@P6AXPEAVgpcTRDspc@@@ZPEAV1@@std@@@2@@std@@QEBAAEAV?$tuple@P6AXPEAVgpcTRDspc@@@ZPEAV1@@1@XZ 0000000140136000 f i gpcTOOL.obj
 0002:000aa060       ??DI8x2@@QEBA_JAEBVI4x2@@@Z 0000000140136060 f i gpcTOOL.obj
 0002:000aa100       ??HI8x2@@QEBA?AV0@AEBVI4x2@@@Z 0000000140136100 f i gpcTOOL.obj
 0002:000aa1b0       ??II4x2@@QEBA?AV0@_K@Z     00000001401361b0 f i gpcTOOL.obj
 0002:000aa2a0       ??LI4x2@@QEBA?AV0@H@Z      00000001401362a0 f i gpcTOOL.obj
 0002:000aa3c0       ??R?$default_delete@V?$tuple@P6AXPEAVgpcTRDbug@@@ZPEAV1@@std@@@std@@QEBAXPEAV?$tuple@P6AXPEAVgpcTRDbug@@@ZPEAV1@@1@@Z 00000001401363c0 f i gpcTOOL.obj
 0002:000aa440       ??R?$default_delete@V?$tuple@P6AXPEAVgpcTRDspc@@@ZPEAV1@@std@@@std@@QEBAXPEAV?$tuple@P6AXPEAVgpcTRDspc@@@ZPEAV1@@1@@Z 0000000140136440 f i gpcTOOL.obj
 0002:000aa4c0       ??YU4x2@@QEAAAEAV0@AEBV0@@Z 00000001401364c0 f i gpcTOOL.obj
 0002:000aa570       ??YU4x4@@QEAAAEAV0@AEBV0@@Z 0000000140136570 f i gpcTOOL.obj
 0002:000aa660       ??_2U1x4@@QEAAAEAV0@E@Z    0000000140136660 f i gpcTOOL.obj
 0002:000aa7f0       ??_GgpcBOB@@QEAAPEAXI@Z    00000001401367f0 f i gpcTOOL.obj
 0002:000aa880       ?DO@gpcTRDspc@@QEAAXXZ     0000000140136880 f i gpcTOOL.obj
 0002:000aba60       ?SCRlft@I4x2@@QEAA?AV1@XZ  0000000140137a60 f i gpcTOOL.obj
 0002:000abae0       ?TOOLexplode@gpcPIC@@QEAAPEAVU1x4@@AEAVgpcLZYall@@PEAPEAV1@PEAD22@Z 0000000140137ae0 f   gpcTOOL.obj
 0002:000adb60       ?TOOLspace@gpcPIC@@QEAAPEAVU1x4@@AEAVgpcLZYall@@PEAPEAV1@PEAD22@Z 0000000140139b60 f   gpcTOOL.obj
 0002:000aeb20       ?TOOLspaceTRD@gpcPIC@@QEAAPEAVU1x4@@AEAVgpcLZYall@@PEAPEAV1@PEAD22@Z 000000014013ab20 f   gpcTOOL.obj
 0002:000b0320       ?TRDexp@@YAXPEAVgpcTRDbug@@@Z 000000014013c320 f   gpcTOOL.obj
 0002:000b0380       ?TRDspc@@YAXPEAVgpcTRDspc@@@Z 000000014013c380 f   gpcTOOL.obj
 0002:000b03e0       ?X@gpcBOB@@QEAAPEAV1@XZ    000000014013c3e0 f i gpcTOOL.obj
 0002:000b1a50       ?YdivRQ@I4x2@@QEAAAEAV1@H@Z 000000014013da50 f i gpcTOOL.obj
 0002:000b1ad0       ?_Get_first@?$_Compressed_pair@U?$default_delete@V?$tuple@P6AXPEAVgpcTRDbug@@@ZPEAV1@@std@@@std@@PEAV?$tuple@P6AXPEAVgpcTRDbug@@@ZPEAV1@@2@$00@std@@QEAAAEAU?$default_delete@V?$tuple@P6AXPEAVgpcTRDbug@@@ZPEAV1@@std@@@2@XZ 000000014013dad0 f i gpcTOOL.obj
 0002:000b1b30       ?_Get_first@?$_Compressed_pair@U?$default_delete@V?$tuple@P6AXPEAVgpcTRDspc@@@ZPEAV1@@std@@@std@@PEAV?$tuple@P6AXPEAVgpcTRDspc@@@ZPEAV1@@2@$00@std@@QEAAAEAU?$default_delete@V?$tuple@P6AXPEAVgpcTRDspc@@@ZPEAV1@@std@@@2@XZ 000000014013db30 f i gpcTOOL.obj
 0002:000b1b90       ?abs@I4x2@@QEBA?AV1@XZ     000000014013db90 f i gpcTOOL.obj
 0002:000b1c90       ?average@I4x2@@QEAAHH@Z    000000014013dc90 f i gpcTOOL.obj
 0002:000b1e00       ?cpyX@U1x4@@QEAAPEAV1@PEAV1@IIIIII@Z 000000014013de00 f i gpcTOOL.obj
 0002:000b1f50       ?flsB@gpcTRDbug@@QEAAIXZ   000000014013df50 f i gpcTOOL.obj
 0002:000b20e0       ?food@gpcPIC@@QEAAPEAVU1x4@@PEAV2@IIPEAD1PEBD@Z 000000014013e0e0 f   gpcTOOL.obj
 0002:000b2550       ?food@gpcTRDspc@@QEAAPEAUSDL_Surface@@I@Z 000000014013e550 f i gpcTOOL.obj
 0002:000b2f70       ?get@?$unique_ptr@V?$tuple@P6AXPEAVgpcTRDbug@@@ZPEAV1@@std@@U?$default_delete@V?$tuple@P6AXPEAVgpcTRDbug@@@ZPEAV1@@std@@@2@@std@@QEBAPEAV?$tuple@P6AXPEAVgpcTRDbug@@@ZPEAV1@@2@XZ 000000014013ef70 f i gpcTOOL.obj
 0002:000b2fd0       ?get@?$unique_ptr@V?$tuple@P6AXPEAVgpcTRDspc@@@ZPEAV1@@std@@U?$default_delete@V?$tuple@P6AXPEAVgpcTRDspc@@@ZPEAV1@@std@@@2@@std@@QEBAPEAV?$tuple@P6AXPEAVgpcTRDspc@@@ZPEAV1@@2@XZ 000000014013efd0 f i gpcTOOL.obj
 0002:000b3030       ?gpfMKDR@@YA_NPEADPEBD@Z   000000014013f030 f i gpcTOOL.obj
 0002:000b32d0       ?loop@gpcTRDbug@@QEAAXXZ   000000014013f2d0 f i gpcTOOL.obj
 0002:000b4620       ?lzyWR@gpcLZY@@QEAAPEAV1@PEBD_N@Z 0000000140140620 f i gpcTOOL.obj
 0002:000b49a0       ?median@I4x2@@QEAAHIPEAV1@_N@Z 00000001401409a0 f i gpcTOOL.obj
 0002:000b4f40       ?mn@I4x2@@QEAAAEAV1@V1@@Z  0000000140140f40 f i gpcTOOL.obj
 0002:000b5000       ?mx@I4x2@@QEAAAEAV1@V1@@Z  0000000140141000 f i gpcTOOL.obj
 0002:000b50c0       ?null@U1x4@@QEAAAEAV1@XZ   00000001401410c0 f i gpcTOOL.obj
 0002:000b5130       ?pB@gpcTRDbug@@QEAAPEAVgpcBOB@@XZ 0000000140141130 f i gpcTOOL.obj
 0002:000b5380       ?pBOB@gpcBOB@@QEAAPEAV1@PEAIEIVI4x2@@IPEAV2@IIHH@Z 0000000140141380 f i gpcTOOL.obj
 0002:000b6600       ?pMAP@gpcLZY@@QEAAPEAVU4x4@@II_K@Z 0000000140142600 f i gpcTOOL.obj
 0002:000b6750       ?pSRTx@gpcBOB@@QEAAPEAVI4x2@@I@Z 0000000140142750 f i gpcTOOL.obj
 0002:000b6b70       ?pU1x4@gpcLZY@@QEAAPEAVU1x4@@AEAVU4x4@@I@Z 0000000140142b70 f i gpcTOOL.obj
 0002:000b6c70       ?qlen@I4x2@@QEBA_JXZ       0000000140142c70 f i gpcTOOL.obj
 0002:000b6d00       ?release@?$unique_ptr@V?$tuple@P6AXPEAVgpcTRDbug@@@ZPEAV1@@std@@U?$default_delete@V?$tuple@P6AXPEAVgpcTRDbug@@@ZPEAV1@@std@@@2@@std@@QEAAPEAV?$tuple@P6AXPEAVgpcTRDbug@@@ZPEAV1@@2@XZ 0000000140142d00 f i gpcTOOL.obj
 0002:000b6d80       ?release@?$unique_ptr@V?$tuple@P6AXPEAVgpcTRDspc@@@ZPEAV1@@std@@U?$default_delete@V?$tuple@P6AXPEAVgpcTRDspc@@@ZPEAV1@@std@@@2@@std@@QEAAPEAV?$tuple@P6AXPEAVgpcTRDspc@@@ZPEAV1@@2@XZ 0000000140142d80 f i gpcTOOL.obj
 0002:000b6e00       ?right@I4x2@@QEAA?AV1@XZ   0000000140142e00 f i gpcTOOL.obj
 0002:000b6e90       ?save@gpcTRDspc@@QEAAPEAUSDL_Surface@@I_N@Z 0000000140142e90 f i gpcTOOL.obj
 0002:000b7aa0       ?srt3@U1x4@@QEAA?AV1@XZ    0000000140143aa0 f i gpcTOOL.obj
 0002:000b7c20       ?strrchr@@YAPEADQEADH@Z    0000000140143c20 f i gpcTOOL.obj
 0002:000b7c90       ?surFREE@gpcPIC@@QEAAPEAUSDL_Surface@@PEAU2@@Z 0000000140143c90 f i gpcTOOL.obj
 0002:000b7e80       ?swpYX@U1x4@@QEAAAEAV1@XZ  0000000140143e80 f i gpcTOOL.obj
 0002:000b7f20       ?swpZWXY@I4x4@@QEAAAEAV1@XZ 0000000140143f20 f i gpcTOOL.obj
 0002:000b8010       ?swpZX@U1x4@@QEAAAEAV1@XZ  0000000140144010 f i gpcTOOL.obj
 0002:000b80b0       ?swpZY@U1x4@@QEAAAEAV1@XZ  00000001401440b0 f i gpcTOOL.obj
 0002:000b8150       ?xFND@gpcLZY@@QEAAPEAVU4x4@@III_K@Z 0000000140144150 f i gpcTOOL.obj
 0002:000b88a0       ?xyz0@U1x4@@QEBA?AV1@XZ    00000001401448a0 f i gpcTOOL.obj
 0002:000b8940       ?zyxw@U1x4@@QEAAPEAV1@PEAXI@Z 0000000140144940 f i gpcTOOL.obj
 0002:000b8a80       ??ZI4x2@@QEAAAEAV0@H@Z     0000000140144a80 f i gpcU14.obj
 0002:000b8b40       ?bugU1@U1x4@@QEAAIPEAVI4x2@@PEAIHHPEAHIHI@Z 0000000140144b40 f   gpcU14.obj
 0002:000b9110       ?bugW@U1x4@@QEAAIPEAVI4x2@@PEAIHHPEAHII@Z 0000000140145110 f   gpcU14.obj
 0002:000b9780       ?frmBRDR@U1x4@@QEAAPEAV1@VI4x2@@W4gpeCLR@@EVI4x4@@@Z 0000000140145780 f   gpcU14.obj
 0002:000b9b20       ?frmFILL@U1x4@@QEAAPEAV1@VI4x2@@V1@VI4x4@@@Z 0000000140145b20 f   gpcU14.obj
 0002:000b9cf0       ?pos@U1x4@@QEAAPEAV1@VI4x2@@AEBVI4x4@@@Z 0000000140145cf0 f   gpcU14.obj
 0002:000b9e40       ?str2time@U1x4@@QEAAAEAV1@PEAE0PEAPEAE@Z 0000000140145e40 f   gpcU14.obj
 0002:000b9fd0       ?typ2str@U1x4@@QEAAPEAEPEAE@Z 0000000140145fd0 f   gpcU14.obj
 0002:000ba160       ??0U4x2@@QEAA@AEBVI4x2@@@Z 0000000140146160 f   gpcU44.obj
 0002:000ba260       ??0U4x2@@QEAA@AEBVI8x2@@@Z 0000000140146260 f   gpcU44.obj
 0002:000ba2e0       ??0U4x4@@QEAA@VI4x2@@PEAV1@@Z 00000001401462e0 f   gpcU44.obj
 0002:000ba3f0       ??4U4x2@@QEAAAEAV0@AEBVI4x2@@@Z 00000001401463f0 f   gpcU44.obj
 0002:000ba4e0       ??4U4x2@@QEAAAEAV0@AEBVI8x2@@@Z 00000001401464e0 f   gpcU44.obj
 0002:000ba5b0       ??4U4x4@@QEAAAEAV0@AEBVI4x2@@@Z 00000001401465b0 f   gpcU44.obj
 0002:000ba660       ?dctADD@U4x4@@QEAAIPEAEAEAIAEAV1@@Z 0000000140146660 f   gpcU44.obj
 0002:000baab0       ?dctADDn@U4x4@@QEAAIPEAXAEAIAEAV1@@Z 0000000140146ab0 f   gpcU44.obj
 0002:000baf10       ?dctFND@U4x4@@QEAAIPEAEAEAV1@@Z 0000000140146f10 f   gpcU44.obj
 0002:000bb310       ?dctFNDn@U4x4@@QEAAIPEAXAEAV1@@Z 0000000140147310 f   gpcU44.obj
 0002:000bb720       ?mn@U4x2@@QEAAAEAV1@VI4x2@@@Z 0000000140147720 f   gpcU44.obj
 0002:000bb810       ?mx@U4x2@@QEAAAEAV1@VI4x2@@@Z 0000000140147810 f   gpcU44.obj
 0002:000bb900       ?str2date@U4x4@@QEAAAEAV1@PEAE0PEAPEAE@Z 0000000140147900 f   gpcU44.obj
 0002:000bba90       ??4gpcREG@@QEAAAEAV0@H@Z   0000000140147a90 f i gpcwin_var.obj
 0002:000bbb90       ??4gpcREG@@QEAAAEAV0@I@Z   0000000140147b90 f i gpcwin_var.obj
 0002:000bbc20       ??4gpcREG@@QEAAAEAV0@PEAE@Z 0000000140147c20 f i gpcwin_var.obj
 0002:000bbcc0       ?WINvar@gpcWIN@@QEAA_NAEAVgpcREG@@W4gpeALF@@@Z 0000000140147cc0 f   gpcwin_var.obj
 0002:000bc270       ?gpfSTR@@YAPEAEPEAEPEBE@Z  0000000140148270 f i gpcwin_var.obj
 0002:000bc590       ?off@gpcREG@@QEAAAEAV1@XZ  0000000140148590 f i gpcwin_var.obj
 0002:000bc670       ?GTrealMITSUB@gpcGT@@QEAAXAEAV1@PEAVgpcWIN@@PEAVgpcGTall@@@Z 0000000140148670 f   gpc_mitsub.obj
 0002:000be270       ??0gpcCLASS@@AEAA@_J@Z     000000014014a270 f i gpMASSbuild.obj
 0002:000be390       ?add@gpcCLASS@@QEAAPEAV1@_JAEA_J1@Z 000000014014a390 f i gpMASSbuild.obj
 0002:000be620       ?gpfSTR2ALF@@YA?AW4gpeALF@@PEBE0PEAPEAE@Z 000000014014a620 f i gpMASSbuild.obj
 0002:000be860       ?gpf_aALF_init@@YAPEAEXZ   000000014014a860 f   gpMASSbuild.obj
 0002:000be9e0       ?hd@gpcSRC@@QEAAXPEAVgpcMASS@@PEAW4gpeALF@@@Z 000000014014a9e0 f   gpMASSbuild.obj
 0002:000bfa80       ?pGET@gpcCLASS@@QEAAPEAVgpcLZY@@_J@Z 000000014014ba80 f i gpMASSbuild.obj
 0002:000bfb30       ?pOPER@gpcMASS@@QEAAPEAVgpcLZYdct@@XZ 000000014014bb30 f   gpMASSbuild.obj
 0002:000c0020       ?pSTR@U4x4@@QEAAPEADPEADPEBD@Z 000000014014c020 f i gpMASSbuild.obj
 0002:000c0120       ?p_fnd@gpcCLASS@@QEAAPEAVgpcLZY@@_JAEA_J@Z 000000014014c120 f i gpMASSbuild.obj
 0002:000c03c0       ?ppCLASS@gpcCLASS@@AEAAPEAPEAVgpcLZY@@_J@Z 000000014014c3c0 f i gpMASSbuild.obj
 0002:000c06a0       ?ppGET@gpcCLASS@@QEAAPEAPEAVgpcLZY@@_J@Z 000000014014c6a0 f i gpMASSbuild.obj
 0002:000c0730       ?strchr@@YAPEADQEADH@Z     000000014014c730 f i gpMASSbuild.obj
 0002:000c07a0       ?tag_add@gpcMASS@@QEAAXW4gpeALF@@I@Z 000000014014c7a0 f i gpMASSbuild.obj
 0002:000c0980       ?tag_sub@gpcMASS@@QEAAXW4gpeALF@@I@Z 000000014014c980 f i gpMASSbuild.obj
 0002:000c0c20       ??$?0D@?$allocator@U_Container_proxy@std@@@std@@QEAA@AEBV?$allocator@D@1@@Z 000000014014cc20 f i piMASS_main.obj
 0002:000c0c80       ??$?0V?$allocator@D@std@@$$V@?$_Compressed_pair@V?$allocator@D@std@@V?$_String_val@U?$_Simple_types@D@std@@@2@$00@std@@QEAA@U_One_then_variadic_args_t@1@$$QEAV?$allocator@D@1@@Z 000000014014cc80 f i piMASS_main.obj
 0002:000c0d10       ??$?6U?$char_traits@D@std@@@std@@YAAEAV?$basic_ostream@DU?$char_traits@D@std@@@0@AEAV10@D@Z 000000014014cd10 f i piMASS_main.obj
 0002:000c1240       ??$_Construct_in_place@PEADAEBQEAD@std@@YAXAEAPEADAEBQEAD@Z 000000014014d240 f i piMASS_main.obj
 0002:000c12f0       ??$_Max_value@_K@std@@YAAEB_KAEB_K0@Z 000000014014d2f0 f i piMASS_main.obj
 0002:000c13b0       ??$_Unfancy@D@std@@YAPEADPEAD@Z 000000014014d3b0 f i piMASS_main.obj
 0002:000c1410       ??$addressof@PEAD@std@@YAPEAPEADAEAPEAD@Z 000000014014d410 f i piMASS_main.obj
 0002:000c1470       ??$addressof@U_Container_base12@std@@@std@@YAPEAU_Container_base12@0@AEAU10@@Z 000000014014d470 f i piMASS_main.obj
 0002:000c14d0       ??$forward@AEBQEAD@std@@YAAEBQEADAEBQEAD@Z 000000014014d4d0 f i piMASS_main.obj
 0002:000c1530       ??$forward@V?$allocator@D@std@@@std@@YA$$QEAV?$allocator@D@0@AEAV10@@Z 000000014014d530 f i piMASS_main.obj
 0002:000c1590       ??0?$_Container_proxy_ptr12@V?$allocator@U_Container_proxy@std@@@std@@@std@@QEAA@AEAV?$allocator@U_Container_proxy@std@@@1@AEAU_Container_base12@1@@Z 000000014014d590 f i piMASS_main.obj
 0002:000c1690       ??0?$_String_val@U?$_Simple_types@D@std@@@std@@QEAA@XZ 000000014014d690 f i piMASS_main.obj
 0002:000c1740       ??0?$basic_string@DU?$char_traits@D@std@@V?$allocator@D@2@@std@@QEAA@AEBV01@@Z 000000014014d740 f i piMASS_main.obj
 0002:000c18a0       ??0InitError@@QEAA@AEBV0@@Z 000000014014d8a0 f i piMASS_main.obj
 0002:000c1960       ??0U4STR@@QEAA@IPEBD@Z     000000014014d960 f i piMASS_main.obj
 0002:000c19f0       ??0_Bxty@?$_String_val@U?$_Simple_types@D@std@@@std@@QEAA@XZ 000000014014d9f0 f i piMASS_main.obj
 0002:000c1a50       ??0gpcCMPL@@QEAA@XZ        000000014014da50 f i piMASS_main.obj
 0002:000c1ab0       ??0gpcDrc@@QEAA@XZ         000000014014dab0 f i piMASS_main.obj
 0002:000c1f70       ??0gpcLZYall@@QEAA@XZ      000000014014df70 f i piMASS_main.obj
 0002:000c1ff0       ??0gpcMAP@@QEAA@XZ         000000014014dff0 f i piMASS_main.obj
 0002:000c2090       ??0gpcMASS@@QEAA@PEBE_K@Z  000000014014e090 f   piMASS_main.obj
 0002:000c2970       ??1?$_Compressed_pair@V?$allocator@D@std@@V?$_String_val@U?$_Simple_types@D@std@@@2@$00@std@@QEAA@XZ 000000014014e970 f i piMASS_main.obj
 0002:000c29d0       ??1?$_Container_proxy_ptr12@V?$allocator@U_Container_proxy@std@@@std@@@std@@QEAA@XZ 000000014014e9d0 f i piMASS_main.obj
 0002:000c2a60       ??1?$_String_val@U?$_Simple_types@D@std@@@std@@QEAA@XZ 000000014014ea60 f i piMASS_main.obj
 0002:000c2ac0       ??1_Bxty@?$_String_val@U?$_Simple_types@D@std@@@std@@QEAA@XZ 000000014014eac0 f i piMASS_main.obj
 0002:000c2b20       ??1gpcDrc@@QEAA@XZ         000000014014eb20 f i piMASS_main.obj
 0002:000c2bd0       ??4gpcMASS@@QEAAAEAV0@AEBV0@@Z 000000014014ebd0 f   piMASS_main.obj
 0002:000c2c40       ??_GInitError@@UEAAPEAXI@Z 000000014014ec40 f i piMASS_main.obj
 0002:000c2c40       ??_EInitError@@UEAAPEAXI@Z 000000014014ec40 f i piMASS_main.obj
 0002:000c2cd0       ?HTMLsave@gpcMASS@@QEAA_NPEAE00_N@Z 000000014014ecd0 f   piMASS_main.obj
 0002:000c3ad0       ?SRCcmp@gpcSRC@@QEAA_NPEAEI@Z 000000014014fad0 f i piMASS_main.obj
 0002:000c3c10       ?SRCnew@gpcMASS@@QEAAPEAVgpcSRC@@AEAV2@PEAEVI4x2@@HI@Z 000000014014fc10 f   piMASS_main.obj
 0002:000c41d0       ?SRCsave@gpcMASS@@QEAA_NPEAE0@Z 00000001401501d0 f   piMASS_main.obj
 0002:000c49b0       ?_Construct_lv_contents@?$basic_string@DU?$char_traits@D@std@@V?$allocator@D@2@@std@@AEAAXAEBV12@@Z 00000001401509b0 f i piMASS_main.obj
 0002:000c4bb0       ?_Get_first@?$_Compressed_pair@V?$allocator@D@std@@V?$_String_val@U?$_Simple_types@D@std@@@2@$00@std@@QEAAAEAV?$allocator@D@2@XZ 0000000140150bb0 f i piMASS_main.obj
 0002:000c4c10       ?_Get_first@?$_Compressed_pair@V?$allocator@D@std@@V?$_String_val@U?$_Simple_types@D@std@@@2@$00@std@@QEBAAEBV?$allocator@D@2@XZ 0000000140150c10 f i piMASS_main.obj
 0002:000c4c70       ?_Getal@?$basic_string@DU?$char_traits@D@std@@V?$allocator@D@2@@std@@AEAAAEAV?$allocator@D@2@XZ 0000000140150c70 f i piMASS_main.obj
 0002:000c4ce0       ?_Getal@?$basic_string@DU?$char_traits@D@std@@V?$allocator@D@2@@std@@AEBAAEBV?$allocator@D@2@XZ 0000000140150ce0 f i piMASS_main.obj
 0002:000c4d50       ?_Large_string_engaged@?$_String_val@U?$_Simple_types@D@std@@@std@@QEBA_NXZ 0000000140150d50 f i piMASS_main.obj
 0002:000c4de0       ?_Myptr@?$_String_val@U?$_Simple_types@D@std@@@std@@QEBAPEBDXZ 0000000140150de0 f i piMASS_main.obj
 0002:000c4e80       ?_Release@_Basic_container_proxy_ptr12@std@@QEAAXXZ 0000000140150e80 f i piMASS_main.obj
 0002:000c4ef0       ?allocate@?$allocator@D@std@@QEAAPEAD_K@Z 0000000140150ef0 f i piMASS_main.obj
 0002:000c4f60       ?bENTR@gpcSRC@@QEAA_NAEAVgpcMASS@@AEAVU4x4@@I@Z 0000000140150f60 f i piMASS_main.obj
 0002:000c50e0       ?bMAIN@gpcSRC@@QEAA_NAEAVgpcMASS@@_N@Z 00000001401510e0 f i piMASS_main.obj
 0002:000c51c0       ?bRET@gpcSRC@@QEAA_NAEAVgpcMASS@@@Z 00000001401511c0 f i piMASS_main.obj
 0002:000c5280       ?bSUB@gpcSRC@@QEAA_NAEAVgpcMASS@@@Z 0000000140151280 f i piMASS_main.obj
 0002:000c5320       ?copy@?$_Narrow_char_traits@DH@std@@SAPEADQEADQEBD_K@Z 0000000140151320 f i piMASS_main.obj
 0002:000c53a0       ?gpfMAINchk@@YAXXZ         00000001401513a0 f   piMASS_main.obj
 0002:000c5c10       ?gpfP2F@@YAPEADPEAD0PEBDD@Z 0000000140151c10 f i piMASS_main.obj
 0002:000c5d70       ?max_size@?$_Default_allocator_traits@V?$allocator@D@std@@@std@@SA_KAEBV?$allocator@D@2@@Z 0000000140151d70 f i piMASS_main.obj
 0002:000c5dd0       ?max_size@?$basic_string@DU?$char_traits@D@std@@V?$allocator@D@2@@std@@QEBA_KXZ 0000000140151dd0 f i piMASS_main.obj
 0002:000c5ed0       ?null@gpcMASS@@QEAAAEAV1@XZ 0000000140151ed0 f   piMASS_main.obj
 0002:000c6140       ?pSTR@I4x2@@QEAAPEADPEADPEBD1@Z 0000000140152140 f i piMASS_main.obj
 0002:000c61e0       ?select_on_container_copy_construction@?$_Default_allocator_traits@V?$allocator@D@std@@@std@@SA?AV?$allocator@D@2@AEBV32@@Z 00000001401521e0 f i piMASS_main.obj
 0002:000c6240       ?str@I4x2@@QEAA_KPEADPEBD1@Z 0000000140152240 f i piMASS_main.obj
 0002:000c6310       WinMain                    0000000140152310 f   piMASS_main.obj
 0002:000c6f80       ??0gpcCRS@@QEAA@AEAVgpcWIN@@E@Z 0000000140152f80 f   gpccrs.obj
 0002:000c72e0       ??0gpcTHRD_DRW@@QEAA@PEAVgpcCRS@@AEAVgpcWIN@@@Z 00000001401532e0 f i gpccrs.obj
 0002:000c73a0       ??1gpcCRS@@UEAA@XZ         00000001401533a0 f   gpccrs.obj
 0002:000c74b0       ??GI4x2@@QEBA?AV0@AEBVU4x2@@@Z 00000001401534b0 f i gpccrs.obj
 0002:000c7560       ??HI4x2@@QEBA?AV0@AEBVU4x2@@@Z 0000000140153560 f i gpccrs.obj
 0002:000c7610       ??HU4x2@@QEBA?AV0@V0@@Z    0000000140153610 f i gpccrs.obj
 0002:000c76c0       ??KI4x2@@QEBA?AV0@AEBV0@@Z 00000001401536c0 f i gpccrs.obj
 0002:000c77d0       ??KI8x4@@QEBA?AV0@AEBVI4x2@@@Z 00000001401537d0 f i gpccrs.obj
 0002:000c78f0       ??YI4x4@@QEAAAEAV0@AEBVI4x2@@@Z 00000001401538f0 f i gpccrs.obj
 0002:000c79b0       ??_0I4x2@@QEAAAEAV0@AEBV0@@Z 00000001401539b0 f i gpccrs.obj
 0002:000c7aa0       ??_4I4x2@@QEAAAEAV0@AEBV0@@Z 0000000140153aa0 f i gpccrs.obj
 0002:000c7b50       ??_GgpcCRS@@UEAAPEAXI@Z    0000000140153b50 f i gpccrs.obj
 0002:000c7b50       ??_EgpcCRS@@UEAAPEAXI@Z    0000000140153b50 f i gpccrs.obj
 0002:000c7be0       ?CRSbEDget@gpcCRS@@QEAA_NXZ 0000000140153be0 f i gpccrs.obj
 0002:000c7c50       ?CRSbEDset@gpcCRS@@QEAA_N_N@Z 0000000140153c50 f i gpccrs.obj
 0002:000c7cd0       ?CRSdim@gpcSRC@@QEAA?AVU4x4@@_NE@Z 0000000140153cd0 f i gpccrs.obj
 0002:000c7e30       ?CRSins@gpcCRS@@QEAAXPEAVgpcMASS@@PEAE1@Z 0000000140153e30 f i gpccrs.obj
 0002:000c89b0       ?CRSsel@gpcCRS@@QEAAXAEAVgpcWIN@@AEAV1@AEAVgpcMASS@@_NE@Z 00000001401549b0 f   gpccrs.obj
 0002:000c95e0       ?CRSstpCL@gpcCRS@@QEAAXPEAVgpcMASS@@E_N1@Z 00000001401555e0 f   gpccrs.obj
 0002:000c9a70       ?CRSstpED@gpcCRS@@QEAAXE_N0@Z 0000000140155a70 f   gpccrs.obj
 0002:000ca170       ?SRCmnCR@gpcSRC@@QEAA_KAEAVI4x2@@_NE@Z 0000000140156170 f i gpccrs.obj
 0002:000ca750       ?callDRW@gpcTHRD_DRW@@SAXPEAV1@@Z 0000000140156750 f i gpccrs.obj
 0002:000cb9c0       ?callDRWtx@gpcTHRD_DRW@@SAXPEAV1@@Z 00000001401579c0 f i gpccrs.obj
 0002:000cc6f0       ?frmDRW@gpcCRS@@QEAAXUSDL_Rect@@0VI4x2@@PEAUSDL_Surface@@2EIPEBE@Z 00000001401586f0 f i gpccrs.obj
 0002:000cd2c0       ?frmDRWtx@gpcCRS@@QEAAXUSDL_Rect@@0VI4x2@@PEAUSDL_Renderer@@PEAUSDL_Texture@@EIPEBE@Z 00000001401592c0 f i gpccrs.obj
 0002:000cde90       ?gpfUTF8left@@YAPEAEPEAE0EE@Z 0000000140159e90 f i gpccrs.obj
 0002:000ce020       ?gpfUTF8rig@@YAIPEAE0I@Z   000000014015a020 f i gpccrs.obj
 0002:000ce150       ?gpfUTF8stpX@@YAPEAEPEAE0II@Z 000000014015a150 f i gpccrs.obj
 0002:000ce2c0       ?gtFRM@gpcCRS@@QEAAAEAVI4x4@@XZ 000000014015a2c0 f i gpccrs.obj
 0002:000ce320       ?gtUTF8@gpcCRS@@QEAAPEAEPEAE@Z 000000014015a320 f   gpccrs.obj
 0002:000ce590       ?lurd@I4x4@@QEAA?AV1@XZ    000000014015a590 f i gpccrs.obj
 0002:000ce6c0       ?miniDRW@gpcCRS@@QEAA_NAEAVgpcWIN@@EEEVI4x4@@_N@Z 000000014015a6c0 f   gpccrs.obj
 0002:000d21d0       ?miniDRWtx@gpcCRS@@QEAA_NAEAVgpcWIN@@EEEVI4x4@@_N@Z 000000014015e1d0 f   gpccrs.obj
 0002:000d5b80       ?miniINS@gpcCRS@@QEAAXPEAE00@Z 0000000140161b80 f   gpccrs.obj
 0002:000d5db0       ?miniOFF@gpcCRS@@QEAA_NPEAVgpcPIC@@PEAUSDL_Renderer@@@Z 0000000140161db0 f   gpccrs.obj
 0002:000d6200       ?miniRDYsdl@gpcCRS@@QEAAXAEAVgpcWIN@@EAEAVgpcMASS@@PEAE2PEAVgpcPIC@@PEAUSDL_Renderer@@@Z 0000000140162200 f   gpccrs.obj
 0002:000d6f90       ?pSTRalf4n@I4x2@@QEAAPEAEPEAE@Z 0000000140162f90 f i gpccrs.obj
 0002:000d7010       ?pSTRalf4n@U4x2@@QEAAPEAEPEAE@Z 0000000140163010 f i gpccrs.obj
 0002:000d70a0       ?scnZNCR@gpcCRS@@QEAA?AVI4x4@@AEAVgpcWIN@@AEAVgpcMASS@@AEBVI4x2@@E@Z 00000001401630a0 f   gpccrs.obj
 0002:000d7970       ?strALF4N@I4x2@@QEAAIPEAE@Z 0000000140163970 f i gpccrs.obj
 0002:000d7a30       ?u1x4LOCK@gpcPIC@@QEAAPEAVU1x4@@PEAUSDL_Renderer@@VU4x2@@AEAH@Z 0000000140163a30 f i gpccrs.obj
 0002:000d7d60       ?wDIVcr@gpcWIN@@QEAA?AVI4x4@@E@Z 0000000140163d60 f i gpccrs.obj
 0002:000d81b0       ?wDIVpx@gpcWIN@@QEAA?AVI4x4@@E@Z 00000001401641b0 f i gpccrs.obj
 0002:000d82c0       ?wDIVsz@gpcWIN@@QEAA?AVI4x4@@E@Z 00000001401642c0 f i gpccrs.obj
 0002:000d83f0       ?wFRM@gpcWIN@@QEAA?AVI4x2@@XZ 00000001401643f0 f i gpccrs.obj
 0002:000d84b0       ?MN@I4x2@@QEBA?AV1@V1@@Z   00000001401644b0 f i gpccrs_rdy.obj
 0002:000d85b0       ?MX@I4x2@@QEBA?AV1@V1@@Z   00000001401645b0 f i gpccrs_rdy.obj
 0002:000d86b0       ?ZNpos@gpcCRS@@QEAAPEAIAEBVI4x2@@PEAI1@Z 00000001401646b0 f i gpccrs_rdy.obj
 0002:000d8b30       ?miniLOCK@gpcCRS@@QEAA_NPEAVgpcPIC@@PEAUSDL_Renderer@@VI4x2@@@Z 0000000140164b30 f   gpccrs_rdy.obj
 0002:000d8d30       ?miniRDY@gpcCRS@@QEAAXPEAVgpcWIN@@PEAVgpcPIC@@PEAUSDL_Renderer@@_N3@Z 0000000140164d30 f   gpccrs_rdy.obj
 0002:000db1a0       ?miniRDYesc@gpcCRS@@QEAA_NPEAVgpcWIN@@PEAVgpcPIC@@@Z 00000001401671a0 f   gpccrs_rdy.obj
 0002:000db560       ?miniRDYmap@gpcCRS@@QEAAIPEAVgpcWIN@@AEAVI4x4@@AEAPEAI2222AEAIAEAVU4x4@@_N@Z 0000000140167560 f   gpccrs_rdy.obj
 0002:000dbec0       ?print@U1x4@@QEAAPEAV1@PEAEW4gpeCLR@@@Z 0000000140167ec0 f i gpccrs_rdy.obj
 0002:000dc010       ?wDIVcrALLOCK@gpcWIN@@QEAA?AVI4x2@@XZ 0000000140168010 f i gpccrs_rdy.obj
 0002:000dc110       ??0gpcND@@QEAA@AEBV0@@Z    0000000140168110 f   gpcND.obj
 0002:000dc190       ??0gpcND@@QEAA@XZ          0000000140168190 f   gpcND.obj
 0002:000dc200       ??1gpcND@@UEAA@XZ          0000000140168200 f   gpcND.obj
 0002:000dc270       ??4gpcND@@QEAAAEAV0@AEBV0@@Z 0000000140168270 f   gpcND.obj
 0002:000dc2f0       ??_EgpcND@@UEAAPEAXI@Z     00000001401682f0 f i gpcND.obj
 0002:000dc2f0       ??_GgpcND@@UEAAPEAXI@Z     00000001401682f0 f i gpcND.obj
 0002:000dc380       ??$?0$$V@?$_Compressed_pair@V?$allocator@D@std@@V?$_String_val@U?$_Simple_types@D@std@@@2@$00@std@@QEAA@U_Zero_then_variadic_args_t@1@@Z 0000000140168380 f i gpcwin.obj
 0002:000dc400       ??$_Convert_size@_K@std@@YA_K_K@Z 0000000140168400 f i gpcwin.obj
 0002:000dc460       ??$_Destroy_in_place@PEAD@std@@YAXAEAPEAD@Z 0000000140168460 f i gpcwin.obj
 0002:000dc4c0       ??$_Reallocate_for@V<lambda_1>@?1??assign@?$basic_string@DU?$char_traits@D@std@@V?$allocator@D@2@@std@@QEAAAEAV34@QEBD_K@Z@PEBD@?$basic_string@DU?$char_traits@D@std@@V?$allocator@D@2@@std@@AEAAAEAV01@_KV<lambda_1>@?1??assign@01@QEAAAEAV01@QEBD0@Z@PEBD@Z 00000001401684c0 f i gpcwin.obj
 0002:000dc6a0       ??0?$allocator@D@std@@QEAA@XZ 00000001401686a0 f i gpcwin.obj
 0002:000dc700       ??0?$basic_string@DU?$char_traits@D@std@@V?$allocator@D@2@@std@@QEAA@QEBD@Z 0000000140168700 f i gpcwin.obj
 0002:000dc830       ??0InitError@@QEAA@AEBV?$basic_string@DU?$char_traits@D@std@@V?$allocator@D@2@@std@@@Z 0000000140168830 f   gpcwin.obj
 0002:000dc8f0       ??0InitError@@QEAA@XZ      00000001401688f0 f   gpcwin.obj
 0002:000dc9a0       ??0exception@std@@QEAA@XZ  00000001401689a0 f i gpcwin.obj
 0002:000dca30       ??0gpcWIN@@QEAA@PEAD00PEAVgpcMASS@@@Z 0000000140168a30 f   gpcwin.obj
 0002:000dd780       ??1?$basic_string@DU?$char_traits@D@std@@V?$allocator@D@2@@std@@QEAA@XZ 0000000140169780 f i gpcwin.obj
 0002:000dd870       ??1InitError@@UEAA@XZ      0000000140169870 f   gpcwin.obj
 0002:000dd900       ??1gpcGL@@QEAA@XZ          0000000140169900 f i gpcwin.obj
 0002:000dda00       ??1gpcWIN@@QEAA@XZ         0000000140169a00 f   gpcwin.obj
 0002:000dde90       ??KF4@@QEBA?AV0@AEBV0@@Z   0000000140169e90 f i gpcwin.obj
 0002:000ddfa0       ??KI4x4@@QEBA?AV0@AEBV0@@Z 0000000140169fa0 f i gpcwin.obj
 0002:000de100       ??R<lambda_1>@?1??assign@?$basic_string@DU?$char_traits@D@std@@V?$allocator@D@2@@std@@QEAAAEAV23@QEBD_K@Z@QEBA@QEAD10@Z 000000014016a100 f i gpcwin.obj
 0002:000de1c0       ??YF2@@QEAAAEAV0@AEBV0@@Z  000000014016a1c0 f i gpcwin.obj
 0002:000de280       ??YF4@@QEAAAEAV0@AEBV0@@Z  000000014016a280 f i gpcwin.obj
 0002:000de370       ??_0I4x4@@QEAAAEAV0@AEBVI4x2@@@Z 000000014016a370 f i gpcwin.obj
 0002:000de430       ??_4F2@@QEAAAEAV0@AEBV0@@Z 000000014016a430 f i gpcwin.obj
 0002:000de4f0       ??_4F4@@QEAAAEAV0@AEBV0@@Z 000000014016a4f0 f i gpcwin.obj
 0002:000de5e0       ??_4I4x4@@QEAAAEAV0@AEBVI4x2@@@Z 000000014016a5e0 f i gpcwin.obj
 0002:000de6a0       ??_GgpcGL@@QEAAPEAXI@Z     000000014016a6a0 f i gpcwin.obj
 0002:000de730       ?CRSbEDswitch@gpcCRS@@QEAA_NXZ 000000014016a730 f i gpcwin.obj
 0002:000de7e0       ?IBOnew@gpcGL@@QEAAIPEBII@Z 000000014016a7e0 f i gpcwin.obj
 0002:000de960       ?SWP@gpcGL@@QEAAPEAV1@PEAUSDL_Window@@@Z 000000014016a960 f i gpcwin.obj
 0002:000dea20       ?TRG@gpcGL@@QEAAPEAV1@PEAUSDL_Renderer@@VI4x2@@AEBV3@M_N3@Z 000000014016aa20 f i gpcwin.obj
 0002:000def60       ?WINreSZ@gpcWIN@@QEAAXXZ   000000014016af60 f   gpcwin.obj
 0002:000df710       ?WINrun@gpcWIN@@QEAAXPEBD@Z 000000014016b710 f   gpcwin.obj
 0002:000e3e70       ?_Calculate_growth@?$basic_string@DU?$char_traits@D@std@@V?$allocator@D@2@@std@@AEBA_K_K@Z 000000014016fe70 f i gpcwin.obj
 0002:000e3f20       ?_Calculate_growth@?$basic_string@DU?$char_traits@D@std@@V?$allocator@D@2@@std@@CA_K_K00@Z 000000014016ff20 f i gpcwin.obj
 0002:000e4050       ?_Myptr@?$_String_val@U?$_Simple_types@D@std@@@std@@QEAAPEADXZ 0000000140170050 f i gpcwin.obj
 0002:000e40f0       ?_Tidy_deallocate@?$basic_string@DU?$char_traits@D@std@@V?$allocator@D@2@@std@@AEAAXXZ 00000001401700f0 f i gpcwin.obj
 0002:000e4240       ?_Tidy_init@?$basic_string@DU?$char_traits@D@std@@V?$allocator@D@2@@std@@AEAAXXZ 0000000140170240 f i gpcwin.obj
 0002:000e42f0       ?_Xlen@?$basic_string@DU?$char_traits@D@std@@V?$allocator@D@2@@std@@CAXXZ 00000001401702f0 f i gpcwin.obj
 0002:000e4340       ?add@F4@@QEAAAEAV1@V1@I@Z  0000000140170340 f i gpcwin.obj
 0002:000e4400       ?addFRMxy@gpcCRS@@QEAA?AVI4x2@@HH@Z 0000000140170400 f i gpcwin.obj
 0002:000e44f0       ?assign@?$_Narrow_char_traits@DH@std@@SAXAEADAEBD@Z 00000001401704f0 f i gpcwin.obj
 0002:000e4560       ?assign@?$basic_string@DU?$char_traits@D@std@@V?$allocator@D@2@@std@@QEAAAEAV12@QEBD@Z 0000000140170560 f i gpcwin.obj
 0002:000e45f0       ?assign@?$basic_string@DU?$char_traits@D@std@@V?$allocator@D@2@@std@@QEAAAEAV12@QEBD_K@Z 00000001401705f0 f i gpcwin.obj
 0002:000e4720       ?c_str@?$basic_string@DU?$char_traits@D@std@@V?$allocator@D@2@@std@@QEBAPEBDXZ 0000000140170720 f i gpcwin.obj
 0002:000e4790       ?deallocate@?$allocator@D@std@@QEAAXQEAD_K@Z 0000000140170790 f i gpcwin.obj
 0002:000e4810       ?glDRW@gpcGL@@QEAAPEAV1@EVI4x2@@0@Z 0000000140170810 f i gpcwin.obj
 0002:000e4cb0       ?glSETbob@gpcGL@@QEAAPEAV1@EIPEAVgpcBOB@@VI4x4@@V3@AEBVI4x2@@@Z 0000000140170cb0 f i gpcwin.obj
 0002:000e57f0       ?glSETbox@gpcGL@@QEAAPEAV1@VI4x4@@V2@AEBVI4x2@@@Z 00000001401717f0 f i gpcwin.obj
 0002:000e5930       ?glSETcnl@gpcGL@@QEAAPEAV1@IVF4@@@Z 0000000140171930 f i gpcwin.obj
 0002:000e5a10       ?gtFRMwh@gpcCRS@@QEAAAEAVI4x2@@XZ 0000000140171a10 f i gpcwin.obj
 0002:000e5a80       ?inDRW@gpcBOB@@QEAA?AVI4x2@@I@Z 0000000140171a80 f i gpcwin.obj
 0002:000e5c20       ?move@?$_Narrow_char_traits@DH@std@@SAPEADQEADQEBD_K@Z 0000000140171c20 f i gpcwin.obj
 0002:000e5ca0       ?mul@F4@@QEAAAEAV1@V1@I@Z  0000000140171ca0 f i gpcwin.obj
 0002:000e5d60       ?mx@I4x2@@QEAAHXZ          0000000140171d60 f i gpcwin.obj
 0002:000e5e00       ?onDIVf@gpcWIN@@QEAAEAEBVI4x2@@@Z 0000000140171e00 f i gpcwin.obj
 0002:000e5f80       ?reSCAN@gpcWIN@@QEAAIXZ    0000000140171f80 f i gpcwin.obj
 0002:000e6180       ?stFRMwh@gpcCRS@@QEAA?AVI4x2@@AEAVgpcWIN@@HH@Z 0000000140172180 f i gpcwin.obj
 0002:000e63b0       ?swp3@F4@@QEAAAEAV1@E@Z    00000001401723b0 f i gpcwin.obj
 0002:000e6480       ?unLOCK@gpcPIC@@QEAA_NXZ   0000000140172480 f i gpcwin.obj
 0002:000e65f0       ?viBO@gpcGL@@QEAAIEPEBMII@Z 00000001401725f0 f i gpcwin.obj
 0002:000e6c40       ?wDIVcrLAY@gpcWIN@@QEAA?AVI4x2@@XZ 0000000140172c40 f i gpcwin.obj
 0002:000e6cd0       ?what@InitError@@UEBAPEBDXZ 0000000140172cd0 f   gpcwin.obj
 0002:001069b0       glewGetErrorString         00000001401929b0 f   glew32s:glew.obj
 0002:001069d0       glewGetExtension           00000001401929d0 f   glew32s:glew.obj
 0002:00106a00       glewGetString              0000000140192a00 f   glew32s:glew.obj
 0002:00106a30       glewInit                   0000000140192a30 f   glew32s:glew.obj
 0002:00106a60       glewIsSupported            0000000140192a60 f   glew32s:glew.obj
 0002:00111340       wglewGetExtension          000000014019d340 f   glew32s:glew.obj
 0002:001113c0       wglewInit                  000000014019d3c0 f   glew32s:glew.obj
 0002:00112060       wglewIsSupported           000000014019e060 f   glew32s:glew.obj
 0002:00112de7       glClear                    000000014019ede7 f   opengl32:OPENGL32.dll
 0002:00112ded       glClearColor               000000014019eded f   opengl32:OPENGL32.dll
 0002:00112df3       glClearDepth               000000014019edf3 f   opengl32:OPENGL32.dll
 0002:00112df9       glGetIntegerv              000000014019edf9 f   opengl32:OPENGL32.dll
 0002:00112dff       glViewport                 000000014019edff f   opengl32:OPENGL32.dll
 0002:00112e05       glDrawElements             000000014019ee05 f   opengl32:OPENGL32.dll
 0002:00112e0b       glTexParameteri            000000014019ee0b f   opengl32:OPENGL32.dll
 0002:00112e11       glGetString                000000014019ee11 f   opengl32:OPENGL32.dll
 0002:00112e17       wglGetCurrentDC            000000014019ee17 f   opengl32:OPENGL32.dll
 0002:00112e1d       wglGetProcAddress          000000014019ee1d f   opengl32:OPENGL32.dll
 0002:00112e23       SDL_GetError               000000014019ee23 f   SDL2:SDL2.dll
 0002:00112e29       SDL_CreateRGBSurface       000000014019ee29 f   SDL2:SDL2.dll
 0002:00112e2f       SDL_GL_SetAttribute        000000014019ee2f f   SDL2:SDL2.dll
 0002:00112e35       SDL_GL_CreateContext       000000014019ee35 f   SDL2:SDL2.dll
 0002:00112e3b       SDL_CreateTexture          000000014019ee3b f   SDL2:SDL2.dll
 0002:00112e41       SDL_CreateTextureFromSurface 000000014019ee41 f   SDL2:SDL2.dll
 0002:00112e47       SDL_QueryTexture           000000014019ee47 f   SDL2:SDL2.dll
 0002:00112e4d       SDL_SetRenderTarget        000000014019ee4d f   SDL2:SDL2.dll
 0002:00112e53       SDL_RenderReadPixels       000000014019ee53 f   SDL2:SDL2.dll
 0002:00112e59       SDL_DestroyTexture         000000014019ee59 f   SDL2:SDL2.dll
 0002:00112e5f       SDL_RWFromMem              000000014019ee5f f   SDL2:SDL2.dll
 0002:00112e65       SDL_FreeSurface            000000014019ee65 f   SDL2:SDL2.dll
 0002:00112e6b       SDL_GetPixelFormatName     000000014019ee6b f   SDL2:SDL2.dll
 0002:00112e71       SDL_SetSurfaceAlphaMod     000000014019ee71 f   SDL2:SDL2.dll
 0002:00112e77       SDL_SetSurfaceBlendMode    000000014019ee77 f   SDL2:SDL2.dll
 0002:00112e7d       SDL_FillRect               000000014019ee7d f   SDL2:SDL2.dll
 0002:00112e83       SDL_UpperBlitScaled        000000014019ee83 f   SDL2:SDL2.dll
 0002:00112e89       SDL_LockTexture            000000014019ee89 f   SDL2:SDL2.dll
 0002:00112e8f       SDL_UnlockTexture          000000014019ee8f f   SDL2:SDL2.dll
 0002:00112e95       SDL_SetRenderDrawBlendMode 000000014019ee95 f   SDL2:SDL2.dll
 0002:00112e9b       SDL_GL_BindTexture         000000014019ee9b f   SDL2:SDL2.dll
 0002:00112ea1       SDL_Init                   000000014019eea1 f   SDL2:SDL2.dll
 0002:00112ea7       SDL_UpperBlit              000000014019eea7 f   SDL2:SDL2.dll
 0002:00112ead       SDL_SetRenderDrawColor     000000014019eead f   SDL2:SDL2.dll
 0002:00112eb3       SDL_RenderFillRect         000000014019eeb3 f   SDL2:SDL2.dll
 0002:00112eb9       SDL_RenderCopy             000000014019eeb9 f   SDL2:SDL2.dll
 0002:00112ebf       SDL_SetClipboardText       000000014019eebf f   SDL2:SDL2.dll
 0002:00112ec5       SDL_GetClipboardText       000000014019eec5 f   SDL2:SDL2.dll
 0002:00112ecb       SDL_GetCurrentDisplayMode  000000014019eecb f   SDL2:SDL2.dll
 0002:00112ed1       SDL_CreateWindow           000000014019eed1 f   SDL2:SDL2.dll
 0002:00112ed7       SDL_SetWindowTitle         000000014019eed7 f   SDL2:SDL2.dll
 0002:00112edd       SDL_SetWindowSize          000000014019eedd f   SDL2:SDL2.dll
 0002:00112ee3       SDL_GetWindowSize          000000014019eee3 f   SDL2:SDL2.dll
 0002:00112ee9       SDL_GetWindowSurface       000000014019eee9 f   SDL2:SDL2.dll
 0002:00112eef       SDL_DestroyWindow          000000014019eeef f   SDL2:SDL2.dll
 0002:00112ef5       SDL_GL_SwapWindow          000000014019eef5 f   SDL2:SDL2.dll
 0002:00112efb       SDL_GL_DeleteContext       000000014019eefb f   SDL2:SDL2.dll
 0002:00112f01       SDL_GetMouseState          000000014019ef01 f   SDL2:SDL2.dll
 0002:00112f07       SDL_WaitEventTimeout       000000014019ef07 f   SDL2:SDL2.dll
 0002:00112f0d       SDL_SetHint                000000014019ef0d f   SDL2:SDL2.dll
 0002:00112f13       SDL_CreateRenderer         000000014019ef13 f   SDL2:SDL2.dll
 0002:00112f19       SDL_DestroyRenderer        000000014019ef19 f   SDL2:SDL2.dll
 0002:00112f1f       SDL_GetTicks               000000014019ef1f f   SDL2:SDL2.dll
 0002:00112f25       IMG_Load_RW                000000014019ef25 f   SDL2_image:SDL2_image.dll
 0002:00112f2b       IMG_SavePNG                000000014019ef2b f   SDL2_image:SDL2_image.dll
 0002:00112f31       IMG_Load                   000000014019ef31 f   SDL2_image:SDL2_image.dll
 0002:00112f37       IMG_Init                   000000014019ef37 f   SDL2_image:SDL2_image.dll
 0002:00112f3d       jpeg_std_error             000000014019ef3d f   jpeg:jpeg62.dll
 0002:00112f43       jpeg_CreateCompress        000000014019ef43 f   jpeg:jpeg62.dll
 0002:00112f49       jpeg_destroy_compress      000000014019ef49 f   jpeg:jpeg62.dll
 0002:00112f4f       jpeg_stdio_dest            000000014019ef4f f   jpeg:jpeg62.dll
 0002:00112f55       jpeg_set_defaults          000000014019ef55 f   jpeg:jpeg62.dll
 0002:00112f5b       jpeg_set_quality           000000014019ef5b f   jpeg:jpeg62.dll
 0002:00112f61       jpeg_start_compress        000000014019ef61 f   jpeg:jpeg62.dll
 0002:00112f67       jpeg_write_scanlines       000000014019ef67 f   jpeg:jpeg62.dll
 0002:00112f6d       jpeg_finish_compress       000000014019ef6d f   jpeg:jpeg62.dll
 0002:00112f73       Sleep                      000000014019ef73 f   kernel32:KERNEL32.dll
 0002:00112f79       ?uncaught_exception@std@@YA_NXZ 000000014019ef79 f   msvcprtd:MSVCP140D.dll
 0002:00112f7f       ?good@ios_base@std@@QEBA_NXZ 000000014019ef7f f   msvcprtd:MSVCP140D.dll
 0002:00112f85       ?flags@ios_base@std@@QEBAHXZ 000000014019ef85 f   msvcprtd:MSVCP140D.dll
 0002:00112f8b       ?width@ios_base@std@@QEBA_JXZ 000000014019ef8b f   msvcprtd:MSVCP140D.dll
 0002:00112f91       ?width@ios_base@std@@QEAA_J_J@Z 000000014019ef91 f   msvcprtd:MSVCP140D.dll
 0002:00112f97       ?sputc@?$basic_streambuf@DU?$char_traits@D@std@@@std@@QEAAHD@Z 000000014019ef97 f   msvcprtd:MSVCP140D.dll
 0002:00112f9d       ?sputn@?$basic_streambuf@DU?$char_traits@D@std@@@std@@QEAA_JPEBD_J@Z 000000014019ef9d f   msvcprtd:MSVCP140D.dll
 0002:00112fa3       ?setstate@?$basic_ios@DU?$char_traits@D@std@@@std@@QEAAXH_N@Z 000000014019efa3 f   msvcprtd:MSVCP140D.dll
 0002:00112fa9       ?tie@?$basic_ios@DU?$char_traits@D@std@@@std@@QEBAPEAV?$basic_ostream@DU?$char_traits@D@std@@@2@XZ 000000014019efa9 f   msvcprtd:MSVCP140D.dll
 0002:00112faf       ?rdbuf@?$basic_ios@DU?$char_traits@D@std@@@std@@QEBAPEAV?$basic_streambuf@DU?$char_traits@D@std@@@2@XZ 000000014019efaf f   msvcprtd:MSVCP140D.dll
 0002:00112fb5       ?fill@?$basic_ios@DU?$char_traits@D@std@@@std@@QEBADXZ 000000014019efb5 f   msvcprtd:MSVCP140D.dll
 0002:00112fbb       ?widen@?$basic_ios@DU?$char_traits@D@std@@@std@@QEBADD@Z 000000014019efbb f   msvcprtd:MSVCP140D.dll
 0002:00112fc1       ?_Osfx@?$basic_ostream@DU?$char_traits@D@std@@@std@@QEAAXXZ 000000014019efc1 f   msvcprtd:MSVCP140D.dll
 0002:00112fc7       ??6?$basic_ostream@DU?$char_traits@D@std@@@std@@QEAAAEAV01@P6AAEAV01@AEAV01@@Z@Z 000000014019efc7 f   msvcprtd:MSVCP140D.dll
 0002:00112fcd       ??6?$basic_ostream@DU?$char_traits@D@std@@@std@@QEAAAEAV01@_J@Z 000000014019efcd f   msvcprtd:MSVCP140D.dll
 0002:00112fd3       ?put@?$basic_ostream@DU?$char_traits@D@std@@@std@@QEAAAEAV12@D@Z 000000014019efd3 f   msvcprtd:MSVCP140D.dll
 0002:00112fd9       ?flush@?$basic_ostream@DU?$char_traits@D@std@@@std@@QEAAAEAV12@XZ 000000014019efd9 f   msvcprtd:MSVCP140D.dll
 0002:00112fdf       ??6?$basic_ostream@DU?$char_traits@D@std@@@std@@QEAAAEAV01@PEBX@Z 000000014019efdf f   msvcprtd:MSVCP140D.dll
 0002:00112fe5       ??6?$basic_ostream@DU?$char_traits@D@std@@@std@@QEAAAEAV01@H@Z 000000014019efe5 f   msvcprtd:MSVCP140D.dll
 0002:00112feb       ??0_Lockit@std@@QEAA@H@Z   000000014019efeb f   msvcprtd:MSVCP140D.dll
 0002:00112ff1       ??1_Lockit@std@@QEAA@XZ    000000014019eff1 f   msvcprtd:MSVCP140D.dll
 0002:00112ff7       ?_Xlength_error@std@@YAXPEBD@Z 000000014019eff7 f   msvcprtd:MSVCP140D.dll
 0002:00112ffd       _Cnd_do_broadcast_at_thread_exit 000000014019effd f   msvcprtd:MSVCP140D.dll
 0002:00113003       ?_Throw_Cpp_error@std@@YAXH@Z 000000014019f003 f   msvcprtd:MSVCP140D.dll
 0002:00113009       ??6?$basic_ostream@DU?$char_traits@D@std@@@std@@QEAAAEAV01@I@Z 000000014019f009 f   msvcprtd:MSVCP140D.dll
 0002:0011300f       _Thrd_join                 000000014019f00f f   msvcprtd:MSVCP140D.dll
 0002:00113015       _Thrd_id                   000000014019f015 f   msvcprtd:MSVCP140D.dll
 0002:0011301b       ??6?$basic_ostream@DU?$char_traits@D@std@@@std@@QEAAAEAV01@_K@Z 000000014019f01b f   msvcprtd:MSVCP140D.dll
 0002:00113021       GetIpAddrTable             000000014019f021 f   iphlpapi:IPHLPAPI.DLL
 0002:00113027       __WSAFDIsSet               000000014019f027 f   ws2_32:WS2_32.dll
 0002:0011302d       accept                     000000014019f02d f   ws2_32:WS2_32.dll
 0002:00113033       bind                       000000014019f033 f   ws2_32:WS2_32.dll
 0002:00113039       connect                    000000014019f039 f   ws2_32:WS2_32.dll
 0002:0011303f       getsockopt                 000000014019f03f f   ws2_32:WS2_32.dll
 0002:00113045       htons                      000000014019f045 f   ws2_32:WS2_32.dll
 0002:0011304b       inet_addr                  000000014019f04b f   ws2_32:WS2_32.dll
 0002:00113051       inet_ntoa                  000000014019f051 f   ws2_32:WS2_32.dll
 0002:00113057       listen                     000000014019f057 f   ws2_32:WS2_32.dll
 0002:0011305d       recv                       000000014019f05d f   ws2_32:WS2_32.dll
 0002:00113063       select                     000000014019f063 f   ws2_32:WS2_32.dll
 0002:00113069       send                       000000014019f069 f   ws2_32:WS2_32.dll
 0002:0011306f       setsockopt                 000000014019f06f f   ws2_32:WS2_32.dll
 0002:00113075       socket                     000000014019f075 f   ws2_32:WS2_32.dll
 0002:0011307b       getaddrinfo                000000014019f07b f   ws2_32:WS2_32.dll
 0002:00113081       gethostname                000000014019f081 f   ws2_32:WS2_32.dll
 0002:00113090       ??_M@YAXPEAX_K1P6AX0@Z@Z   000000014019f090 f   MSVCRTD:ehvecdtr.obj
 0002:00113180       ??_M@YAXPEAX_KHP6AX0@Z@Z   000000014019f180 f   MSVCRTD:ehvecdtr.obj
 0002:00113250       ?__ArrayUnwind@@YAXPEAX_K1P6AX0@Z@Z 000000014019f250 f   MSVCRTD:ehvecdtr.obj
 0002:001132f0       ??3@YAXPEAX_K@Z            000000014019f2f0 f   MSVCRTD:delete_scalar_size.obj
 0002:00113320       ??_U@YAPEAX_K@Z            000000014019f320 f   MSVCRTD:new_array.obj
 0002:00113340       ??_V@YAXPEAX@Z             000000014019f340 f   MSVCRTD:delete_array.obj
 0002:00113360       ??_V@YAXPEAX_K@Z           000000014019f360 f   MSVCRTD:delete_array_size.obj
 0002:00113390       _RTC_AllocaHelper          000000014019f390 f   MSVCRTD:stack.obj
 0002:001133e0       _RTC_CheckStackVars        000000014019f3e0 f   MSVCRTD:stack.obj
 0002:00113490       _RTC_CheckStackVars2       000000014019f490 f   MSVCRTD:stack.obj
 0002:001135e0       _CRT_RTC_INIT              000000014019f5e0 f   MSVCRTD:init.obj
 0002:001135f0       _CRT_RTC_INITW             000000014019f5f0 f   MSVCRTD:init.obj
 0002:00113600       _RTC_InitBase              000000014019f600 f   MSVCRTD:init.obj
 0002:00113650       _RTC_Shutdown              000000014019f650 f   MSVCRTD:init.obj
 0002:00113680       __CheckForDebuggerJustMyCode 000000014019f680 f   MSVCRTD:debugger_jmc.obj
 0002:001136d0       ??2@YAPEAX_K@Z             000000014019f6d0 f   MSVCRTD:new_scalar.obj
 0002:001137f0       ?_RTC_AllocaFailure@@YAXPEAXPEAU_RTC_ALLOCA_NODE@@H@Z 000000014019f7f0 f   MSVCRTD:error.obj
 0002:001139a0       ?_RTC_Failure@@YAXPEAXH@Z  000000014019f9a0 f   MSVCRTD:error.obj
 0002:00113a10       ?_RTC_StackFailure@@YAXPEAXPEBD@Z 000000014019fa10 f   MSVCRTD:error.obj
 0002:00113f50       _RTC_UninitUse             000000014019ff50 f   MSVCRTD:error.obj
 0002:00114050       _vsprintf_s_l              00000001401a0050 f i MSVCRTD:error.obj
 0002:001140d0       sprintf_s                  00000001401a00d0 f i MSVCRTD:error.obj
 0002:00114110       __chkstk                   00000001401a0110 f   MSVCRTD:chkstk.obj
 0002:00114110       _alloca_probe              00000001401a0110 f   MSVCRTD:chkstk.obj
 0002:00114330       _Init_thread_abort         00000001401a0330 f   MSVCRTD:thread_safe_statics.obj
 0002:00114370       _Init_thread_footer        00000001401a0370 f   MSVCRTD:thread_safe_statics.obj
 0002:001143f0       _Init_thread_header        00000001401a03f0 f   MSVCRTD:thread_safe_statics.obj
 0002:001144a0       _Init_thread_lock          00000001401a04a0 f   MSVCRTD:thread_safe_statics.obj
 0002:001144c0       _Init_thread_notify        00000001401a04c0 f   MSVCRTD:thread_safe_statics.obj
 0002:00114530       _Init_thread_unlock        00000001401a0530 f   MSVCRTD:thread_safe_statics.obj
 0002:00114550       _Init_thread_wait          00000001401a0550 f   MSVCRTD:thread_safe_statics.obj
 0002:00114630       ?configure_argv@__scrt_narrow_argv_policy@@SAHXZ 00000001401a0630 f i MSVCRTD:utility.obj
 0002:00114750       ?initialize_environment@__scrt_narrow_environment_policy@@SAHXZ 00000001401a0750 f i MSVCRTD:utility.obj
 0002:00114820       NtCurrentTeb               00000001401a0820 f i MSVCRTD:utility.obj
 0002:00114830       __scrt_acquire_startup_lock 00000001401a0830 f   MSVCRTD:utility.obj
 0002:001148b0       __scrt_dllmain_after_initialize_c 00000001401a08b0 f   MSVCRTD:utility.obj
 0002:001148f0       __scrt_dllmain_before_initialize_c 00000001401a08f0 f   MSVCRTD:utility.obj
 0002:00114920       __scrt_dllmain_crt_thread_attach 00000001401a0920 f   MSVCRTD:utility.obj
 0002:00114960       __scrt_dllmain_crt_thread_detach 00000001401a0960 f   MSVCRTD:utility.obj
 0002:00114980       __scrt_dllmain_exception_filter 00000001401a0980 f   MSVCRTD:utility.obj
 0002:00114a00       __scrt_dllmain_uninitialize_c 00000001401a0a00 f   MSVCRTD:utility.obj
 0002:00114a40       __scrt_dllmain_uninitialize_critical 00000001401a0a40 f   MSVCRTD:utility.obj
 0002:00114a60       __scrt_initialize_crt      00000001401a0a60 f   MSVCRTD:utility.obj
 0002:00114ac0       __scrt_initialize_onexit_tables 00000001401a0ac0 f   MSVCRTD:utility.obj
 0002:00114c10       __scrt_is_nonwritable_in_current_image 00000001401a0c10 f   MSVCRTD:utility.obj
 0002:00114cc0       __scrt_release_startup_lock 00000001401a0cc0 f   MSVCRTD:utility.obj
 0002:00114d00       __scrt_uninitialize_crt    00000001401a0d00 f   MSVCRTD:utility.obj
 0002:00114d50       _onexit                    00000001401a0d50 f   MSVCRTD:utility.obj
 0002:00114df0       at_quick_exit              00000001401a0df0 f   MSVCRTD:utility.obj
 0002:00114e50       atexit                     00000001401a0e50 f   MSVCRTD:utility.obj
 0002:00114e90       ??1type_info@@UEAA@XZ      00000001401a0e90 f   MSVCRTD:std_type_info_static.obj
 0002:00114eb0       ??_Gtype_info@@UEAAPEAXI@Z 00000001401a0eb0 f i MSVCRTD:std_type_info_static.obj
 0002:00114eb0       ??_Etype_info@@UEAAPEAXI@Z 00000001401a0eb0 f i MSVCRTD:std_type_info_static.obj
 0002:00114f00       ??3@YAXPEAX@Z              00000001401a0f00 f   MSVCRTD:delete_scalar.obj
 0002:00114f30       ??_L@YAXPEAX_K1P6AX0@Z2@Z  00000001401a0f30 f   MSVCRTD:ehvecctr.obj
 0002:00115010       ??_L@YAXPEAX_KHP6AX0@Z2@Z  00000001401a1010 f   MSVCRTD:ehvecctr.obj
 0002:00115410       ?set_app_type@__scrt_winmain_policy@@SAXXZ 00000001401a1410 f i MSVCRTD:exe_winmain.obj
 0002:00115430       ?set_commode@__scrt_file_policy@@SAXXZ 00000001401a1430 f i MSVCRTD:exe_winmain.obj
 0002:00115460       ?set_fmode@__scrt_file_policy@@SAXXZ 00000001401a1460 f i MSVCRTD:exe_winmain.obj
 0002:00115480       WinMainCRTStartup          00000001401a1480 f   MSVCRTD:exe_winmain.obj
 0002:001154a0       _guard_check_icall_nop     00000001401a14a0 f i MSVCRTD:guard_support.obj
 0002:001154b0       ReadNoFence64              00000001401a14b0 f i MSVCRTD:guard_support.obj
 0002:001154e0       ReadPointerNoFence         00000001401a14e0 f i MSVCRTD:guard_support.obj
 0002:00115500       _guard_icall_checks_enforced 00000001401a1500 f i MSVCRTD:guard_support.obj
 0002:00115550       _guard_rf_checks_enforced  00000001401a1550 f i MSVCRTD:guard_support.obj
 0002:00115560       ?_RTC_GetErrorFunc@@YAP6AHHPEBDH00ZZPEBX@Z 00000001401a1560 f   MSVCRTD:userapi.obj
 0002:00115570       ?_RTC_GetErrorFuncW@@YAP6AHHPEB_WH00ZZPEBX@Z 00000001401a1570 f   MSVCRTD:userapi.obj
 0002:00115580       _RTC_GetErrDesc            00000001401a1580 f   MSVCRTD:userapi.obj
 0002:001155a0       _RTC_NumErrors             00000001401a15a0 f   MSVCRTD:userapi.obj
 0002:001155b0       _RTC_SetErrorFunc          00000001401a15b0 f   MSVCRTD:userapi.obj
 0002:001155d0       _RTC_SetErrorFuncW         00000001401a15d0 f   MSVCRTD:userapi.obj
 0002:001155f0       _RTC_SetErrorType          00000001401a15f0 f   MSVCRTD:userapi.obj
 0002:00115620       ??0bad_alloc@std@@QEAA@XZ  00000001401a1620 f i MSVCRTD:throw_bad_alloc.obj
 0002:00115670       ?__scrt_throw_std_bad_alloc@@YAXXZ 00000001401a1670 f   MSVCRTD:throw_bad_alloc.obj
 0002:001156a0       ?__scrt_throw_std_bad_array_new_length@@YAXXZ 00000001401a16a0 f   MSVCRTD:throw_bad_alloc.obj
 0002:00115d20       ?_RTC_GetSrcLine@@YAHPEAEPEA_WKPEAH1K@Z 00000001401a1d20 f   MSVCRTD:pdblkup.obj
 0002:001161e0       __GSHandlerCheck           00000001401a21e0 f   MSVCRTD:gshandler.obj
 0002:00116230       __GSHandlerCheckCommon     00000001401a2230 f   MSVCRTD:gshandler.obj
 0002:00116380       __security_check_cookie    00000001401a2380 f   MSVCRTD:amdsecgs.obj
 0002:001163b0       __crt_debugger_hook        00000001401a23b0 f   MSVCRTD:utility_desktop.obj
 0002:001163d0       __scrt_fastfail            00000001401a23d0 f   MSVCRTD:utility_desktop.obj
 0002:001165d0       __scrt_get_show_window_mode 00000001401a25d0 f   MSVCRTD:utility_desktop.obj
 0002:00116640       __scrt_initialize_mta      00000001401a2640 f   MSVCRTD:utility_desktop.obj
 0002:00116660       __scrt_initialize_winrt    00000001401a2660 f   MSVCRTD:utility_desktop.obj
 0002:00116670       __scrt_is_managed_app      00000001401a2670 f   MSVCRTD:utility_desktop.obj
 0002:00116740       __scrt_set_unhandled_exception_filter 00000001401a2740 f   MSVCRTD:utility_desktop.obj
 0002:00116760       __scrt_stub_for_initialize_mta 00000001401a2760 f   MSVCRTD:utility_desktop.obj
 0002:00116760       __scrt_exe_initialize_mta  00000001401a2760 f   MSVCRTD:utility_desktop.obj
 0002:00116770       __scrt_unhandled_exception_filter 00000001401a2770 f   MSVCRTD:utility_desktop.obj
 0002:00116830       __isa_available_init       00000001401a2830 f   MSVCRTD:cpu_disp.obj
 0002:00116cb0       _get_startup_argv_mode     00000001401a2cb0 f   MSVCRTD:argv_mode.obj
 0002:00116cc0       __scrt_is_ucrt_dll_in_use  00000001401a2cc0 f   MSVCRTD:ucrt_detection.obj
 0002:00116de0       __security_init_cookie     00000001401a2de0 f   MSVCRTD:gs_support.obj
 0002:00116e80       _matherr                   00000001401a2e80 f   MSVCRTD:matherr.obj
 0002:00116e90       _get_startup_commit_mode   00000001401a2e90 f   MSVCRTD:commit_mode.obj
 0002:00116ea0       _get_startup_file_mode     00000001401a2ea0 f   MSVCRTD:file_mode.obj
 0002:00116eb0       _get_startup_new_mode      00000001401a2eb0 f   MSVCRTD:new_mode.obj
 0002:00116ec0       _get_startup_thread_locale_mode 00000001401a2ec0 f   MSVCRTD:thread_locale.obj
 0002:00116ed0       ?__scrt_initialize_type_info@@YAXXZ 00000001401a2ed0 f   MSVCRTD:tncleanup.obj
 0002:00116ef0       ?__scrt_uninitialize_type_info@@YAXXZ 00000001401a2ef0 f   MSVCRTD:tncleanup.obj
 0002:00116f10       _should_initialize_environment 00000001401a2f10 f   MSVCRTD:env_mode.obj
 0002:00116f20       _initialize_invalid_parameter_handler 00000001401a2f20 f   MSVCRTD:invalid_parameter_handler.obj
 0002:00116f30       _initialize_denormal_control 00000001401a2f30 f   MSVCRTD:denormal_control.obj
 0002:00116f40       __local_stdio_scanf_options 00000001401a2f40 f i MSVCRTD:default_local_stdio_options.obj
 0002:00116f50       __scrt_initialize_default_local_stdio_options 00000001401a2f50 f   MSVCRTD:default_local_stdio_options.obj
 0002:00116fb0       __scrt_is_user_matherr_present 00000001401a2fb0 f   MSVCRTD:matherr_detection.obj
 0002:00116fe0       __scrt_get_dyn_tls_init_callback 00000001401a2fe0 f   MSVCRTD:dyn_tls_init.obj
 0002:00116ff0       __scrt_get_dyn_tls_dtor_callback 00000001401a2ff0 f   MSVCRTD:dyn_tls_dtor.obj
 0002:00117000       _RTC_Initialize            00000001401a3000 f   MSVCRTD:initsect.obj
 0002:00117060       _RTC_Terminate             00000001401a3060 f   MSVCRTD:initsect.obj
 0002:001170c0       __raise_securityfailure    00000001401a30c0 f   MSVCRTD:gs_report.obj
 0002:00117110       __report_gsfailure         00000001401a3110 f   MSVCRTD:gs_report.obj
 0002:00117220       __report_rangecheckfailure 00000001401a3220 f   MSVCRTD:gs_report.obj
 0002:00117240       __report_securityfailure   00000001401a3240 f   MSVCRTD:gs_report.obj
 0002:00117310       __report_securityfailureEx 00000001401a3310 f   MSVCRTD:gs_report.obj
 0002:0011760e       memset                     00000001401a360e f   vcruntimed:VCRUNTIME140D.dll
 0002:00117614       __CxxFrameHandler4         00000001401a3614 f   vcruntimed:VCRUNTIME140_1D.dll
 0002:0011761a       memcpy                     00000001401a361a f   vcruntimed:VCRUNTIME140D.dll
 0002:00117620       strstr                     00000001401a3620 f   vcruntimed:VCRUNTIME140D.dll
 0002:00117626       __std_exception_copy       00000001401a3626 f   vcruntimed:VCRUNTIME140D.dll
 0002:0011762c       __std_exception_destroy    00000001401a362c f   vcruntimed:VCRUNTIME140D.dll
 0002:00117632       memmove                    00000001401a3632 f   vcruntimed:VCRUNTIME140D.dll
 0002:00117638       _CxxThrowException         00000001401a3638 f   vcruntimed:VCRUNTIME140D.dll
 0002:0011763e       strrchr                    00000001401a363e f   vcruntimed:VCRUNTIME140D.dll
 0002:00117644       strchr                     00000001401a3644 f   vcruntimed:VCRUNTIME140D.dll
 0002:0011764a       __current_exception        00000001401a364a f   vcruntimed:VCRUNTIME140D.dll
 0002:00117650       __current_exception_context 00000001401a3650 f   vcruntimed:VCRUNTIME140D.dll
 0002:00117656       __C_specific_handler       00000001401a3656 f   vcruntimed:VCRUNTIME140D.dll
 0002:0011765c       __C_specific_handler_noexcept 00000001401a365c f   vcruntimed:VCRUNTIME140D.dll
 0002:00117662       __vcrt_GetModuleFileNameW  00000001401a3662 f   vcruntimed:VCRUNTIME140D.dll
 0002:00117668       __vcrt_GetModuleHandleW    00000001401a3668 f   vcruntimed:VCRUNTIME140D.dll
 0002:0011766e       __vcrt_LoadLibraryExW      00000001401a366e f   vcruntimed:VCRUNTIME140D.dll
 0002:00117674       __std_type_info_destroy_list 00000001401a3674 f   vcruntimed:VCRUNTIME140D.dll
 0002:0011767a       acos                       00000001401a367a f   ucrtd:ucrtbased.dll
 0002:00117680       cos                        00000001401a3680 f   ucrtd:ucrtbased.dll
 0002:00117686       sin                        00000001401a3686 f   ucrtd:ucrtbased.dll
 0002:0011768c       sqrt                       00000001401a368c f   ucrtd:ucrtbased.dll
 0002:00117692       floor                      00000001401a3692 f   ucrtd:ucrtbased.dll
 0002:00117698       cosf                       00000001401a3698 f   ucrtd:ucrtbased.dll
 0002:0011769e       sinf                       00000001401a369e f   ucrtd:ucrtbased.dll
 0002:001176a4       _aligned_free              00000001401a36a4 f   ucrtd:ucrtbased.dll
 0002:001176aa       _aligned_malloc            00000001401a36aa f   ucrtd:ucrtbased.dll
 0002:001176b0       div                        00000001401a36b0 f   ucrtd:ucrtbased.dll
 0002:001176b6       strtod                     00000001401a36b6 f   ucrtd:ucrtbased.dll
 0002:001176bc       strtol                     00000001401a36bc f   ucrtd:ucrtbased.dll
 0002:001176c2       __stdio_common_vsprintf    00000001401a36c2 f   ucrtd:ucrtbased.dll
 0002:001176c8       strlen                     00000001401a36c8 f   ucrtd:ucrtbased.dll
 0002:001176ce       strspn                     00000001401a36ce f   ucrtd:ucrtbased.dll
 0002:001176d4       strtoll                    00000001401a36d4 f   ucrtd:ucrtbased.dll
 0002:001176da       _errno                     00000001401a36da f   ucrtd:ucrtbased.dll
 0002:001176e0       exit                       00000001401a36e0 f   ucrtd:ucrtbased.dll
 0002:001176e6       perror                     00000001401a36e6 f   ucrtd:ucrtbased.dll
 0002:001176ec       strcpy                     00000001401a36ec f   ucrtd:ucrtbased.dll
 0002:001176f2       strcspn                    00000001401a36f2 f   ucrtd:ucrtbased.dll
 0002:001176f8       abs                        00000001401a36f8 f   ucrtd:ucrtbased.dll
 0002:001176fe       getenv                     00000001401a36fe f   ucrtd:ucrtbased.dll
 0002:00117704       fclose                     00000001401a3704 f   ucrtd:ucrtbased.dll
 0002:0011770a       fgetpos                    00000001401a370a f   ucrtd:ucrtbased.dll
 0002:00117710       fopen                      00000001401a3710 f   ucrtd:ucrtbased.dll
 0002:00117716       fread                      00000001401a3716 f   ucrtd:ucrtbased.dll
 0002:0011771c       fseek                      00000001401a371c f   ucrtd:ucrtbased.dll
 0002:00117722       remove                     00000001401a3722 f   ucrtd:ucrtbased.dll
 0002:00117728       rename                     00000001401a3728 f   ucrtd:ucrtbased.dll
 0002:0011772e       _access                    00000001401a372e f   ucrtd:ucrtbased.dll
 0002:00117734       fabs                       00000001401a3734 f   ucrtd:ucrtbased.dll
 0002:0011773a       acosf                      00000001401a373a f   ucrtd:ucrtbased.dll
 0002:00117740       sqrtf                      00000001401a3740 f   ucrtd:ucrtbased.dll
 0002:00117746       terminate                  00000001401a3746 f   ucrtd:ucrtbased.dll
 0002:0011774c       asin                       00000001401a374c f   ucrtd:ucrtbased.dll
 0002:00117752       log2                       00000001401a3752 f   ucrtd:ucrtbased.dll
 0002:00117758       _invalid_parameter         00000001401a3758 f   ucrtd:ucrtbased.dll
 0002:0011775e       _CrtDbgReport              00000001401a375e f   ucrtd:ucrtbased.dll
 0002:00117764       _beginthreadex             00000001401a3764 f   ucrtd:ucrtbased.dll
 0002:0011776a       system                     00000001401a376a f   ucrtd:ucrtbased.dll
 0002:00117770       floorf                     00000001401a3770 f   ucrtd:ucrtbased.dll
 0002:00117776       ldiv                       00000001401a3776 f   ucrtd:ucrtbased.dll
 0002:0011777c       fwrite                     00000001401a377c f   ucrtd:ucrtbased.dll
 0002:00117782       _mkdir                     00000001401a3782 f   ucrtd:ucrtbased.dll
 0002:00117788       _CrtDbgReportW             00000001401a3788 f   ucrtd:ucrtbased.dll
 0002:0011778e       _callnewh                  00000001401a378e f   ucrtd:ucrtbased.dll
 0002:00117794       malloc                     00000001401a3794 f   ucrtd:ucrtbased.dll
 0002:0011779a       strcpy_s                   00000001401a379a f   ucrtd:ucrtbased.dll
 0002:001177a0       strcat_s                   00000001401a37a0 f   ucrtd:ucrtbased.dll
 0002:001177a6       __stdio_common_vsprintf_s  00000001401a37a6 f   ucrtd:ucrtbased.dll
 0002:001177ac       _seh_filter_dll            00000001401a37ac f   ucrtd:ucrtbased.dll
 0002:001177b2       _configure_narrow_argv     00000001401a37b2 f   ucrtd:ucrtbased.dll
 0002:001177b8       _initialize_narrow_environment 00000001401a37b8 f   ucrtd:ucrtbased.dll
 0002:001177be       _initialize_onexit_table   00000001401a37be f   ucrtd:ucrtbased.dll
 0002:001177c4       _register_onexit_function  00000001401a37c4 f   ucrtd:ucrtbased.dll
 0002:001177ca       _execute_onexit_table      00000001401a37ca f   ucrtd:ucrtbased.dll
 0002:001177d0       _crt_atexit                00000001401a37d0 f   ucrtd:ucrtbased.dll
 0002:001177d6       _crt_at_quick_exit         00000001401a37d6 f   ucrtd:ucrtbased.dll
 0002:001177dc       _cexit                     00000001401a37dc f   ucrtd:ucrtbased.dll
 0002:001177e2       _free_dbg                  00000001401a37e2 f   ucrtd:ucrtbased.dll
 0002:001177e8       _seh_filter_exe            00000001401a37e8 f   ucrtd:ucrtbased.dll
 0002:001177ee       _set_app_type              00000001401a37ee f   ucrtd:ucrtbased.dll
 0002:001177f4       __setusermatherr           00000001401a37f4 f   ucrtd:ucrtbased.dll
 0002:001177fa       _get_narrow_winmain_command_line 00000001401a37fa f   ucrtd:ucrtbased.dll
 0002:00117800       _initterm                  00000001401a3800 f   ucrtd:ucrtbased.dll
 0002:00117806       _initterm_e                00000001401a3806 f   ucrtd:ucrtbased.dll
 0002:0011780c       _exit                      00000001401a380c f   ucrtd:ucrtbased.dll
 0002:00117812       _set_fmode                 00000001401a3812 f   ucrtd:ucrtbased.dll
 0002:00117818       _c_exit                    00000001401a3818 f   ucrtd:ucrtbased.dll
 0002:0011781e       _register_thread_local_exe_atexit_callback 00000001401a381e f   ucrtd:ucrtbased.dll
 0002:00117824       _configthreadlocale        00000001401a3824 f   ucrtd:ucrtbased.dll
 0002:0011782a       _set_new_mode              00000001401a382a f   ucrtd:ucrtbased.dll
 0002:00117830       __p__commode               00000001401a3830 f   ucrtd:ucrtbased.dll
 0002:00117836       _wmakepath_s               00000001401a3836 f   ucrtd:ucrtbased.dll
 0002:0011783c       _wsplitpath_s              00000001401a383c f   ucrtd:ucrtbased.dll
 0002:00117842       wcscpy_s                   00000001401a3842 f   ucrtd:ucrtbased.dll
 0002:00117848       _close                     00000001401a3848 f   ucrtd:ucrtbased.dll
 0002:0011784e       GetCurrentThreadId         00000001401a384e f   kernel32:KERNEL32.dll
 0002:00117854       IsDebuggerPresent          00000001401a3854 f   kernel32:KERNEL32.dll
 0002:0011785a       RaiseException             00000001401a385a f   kernel32:KERNEL32.dll
 0002:00117860       MultiByteToWideChar        00000001401a3860 f   kernel32:KERNEL32.dll
 0002:00117866       WideCharToMultiByte        00000001401a3866 f   kernel32:KERNEL32.dll
 0002:0011786c       CloseHandle                00000001401a386c f   kernel32:KERNEL32.dll
 0002:00117872       EnterCriticalSection       00000001401a3872 f   kernel32:KERNEL32.dll
 0002:00117878       LeaveCriticalSection       00000001401a3878 f   kernel32:KERNEL32.dll
 0002:0011787e       InitializeCriticalSectionAndSpinCount 00000001401a387e f   kernel32:KERNEL32.dll
 0002:00117884       DeleteCriticalSection      00000001401a3884 f   kernel32:KERNEL32.dll
 0002:0011788a       SetEvent                   00000001401a388a f   kernel32:KERNEL32.dll
 0002:00117890       ResetEvent                 00000001401a3890 f   kernel32:KERNEL32.dll
 0002:00117896       WaitForSingleObjectEx      00000001401a3896 f   kernel32:KERNEL32.dll
 0002:0011789c       CreateEventW               00000001401a389c f   kernel32:KERNEL32.dll
 0002:001178a2       GetModuleHandleW           00000001401a38a2 f   kernel32:KERNEL32.dll
 0002:001178a8       GetProcAddress             00000001401a38a8 f   kernel32:KERNEL32.dll
 0002:001178ae       GetLastError               00000001401a38ae f   kernel32:KERNEL32.dll
 0002:001178b4       HeapAlloc                  00000001401a38b4 f   kernel32:KERNEL32.dll
 0002:001178ba       HeapFree                   00000001401a38ba f   kernel32:KERNEL32.dll
 0002:001178c0       GetProcessHeap             00000001401a38c0 f   kernel32:KERNEL32.dll
 0002:001178c6       VirtualQuery               00000001401a38c6 f   kernel32:KERNEL32.dll
 0002:001178cc       FreeLibrary                00000001401a38cc f   kernel32:KERNEL32.dll
 0002:001178d2       RtlCaptureContext          00000001401a38d2 f   kernel32:KERNEL32.dll
 0002:001178d8       RtlLookupFunctionEntry     00000001401a38d8 f   kernel32:KERNEL32.dll
 0002:001178de       RtlVirtualUnwind           00000001401a38de f   kernel32:KERNEL32.dll
 0002:001178e4       UnhandledExceptionFilter   00000001401a38e4 f   kernel32:KERNEL32.dll
 0002:001178ea       SetUnhandledExceptionFilter 00000001401a38ea f   kernel32:KERNEL32.dll
 0002:001178f0       GetStartupInfoW            00000001401a38f0 f   kernel32:KERNEL32.dll
 0002:001178f6       IsProcessorFeaturePresent  00000001401a38f6 f   kernel32:KERNEL32.dll
 0002:001178fc       QueryPerformanceCounter    00000001401a38fc f   kernel32:KERNEL32.dll
 0002:00117902       GetCurrentProcessId        00000001401a3902 f   kernel32:KERNEL32.dll
 0002:00117908       GetSystemTimeAsFileTime    00000001401a3908 f   kernel32:KERNEL32.dll
 0002:0011790e       InitializeSListHead        00000001401a390e f   kernel32:KERNEL32.dll
 0002:00117914       GetCurrentProcess          00000001401a3914 f   kernel32:KERNEL32.dll
 0002:0011791a       TerminateProcess           00000001401a391a f   kernel32:KERNEL32.dll
 0002:00117920       __acrt_initialize          00000001401a3920 f   MSVCRTD:ucrt_stubs.obj
 0002:00117920       __vcrt_initialize          00000001401a3920 f   MSVCRTD:ucrt_stubs.obj
 0002:00117920       __scrt_stub_for_acrt_initialize 00000001401a3920 f   MSVCRTD:ucrt_stubs.obj
 0002:00117930       __vcrt_thread_attach       00000001401a3930 f   MSVCRTD:ucrt_stubs.obj
 0002:00117930       __acrt_thread_attach       00000001401a3930 f   MSVCRTD:ucrt_stubs.obj
 0002:00117930       __scrt_stub_for_acrt_thread_attach 00000001401a3930 f   MSVCRTD:ucrt_stubs.obj
 0002:00117940       __vcrt_thread_detach       00000001401a3940 f   MSVCRTD:ucrt_stubs.obj
 0002:00117940       __scrt_stub_for_acrt_thread_detach 00000001401a3940 f   MSVCRTD:ucrt_stubs.obj
 0002:00117940       __acrt_thread_detach       00000001401a3940 f   MSVCRTD:ucrt_stubs.obj
 0002:00117950       __scrt_stub_for_acrt_uninitialize 00000001401a3950 f   MSVCRTD:ucrt_stubs.obj
 0002:00117950       __vcrt_uninitialize        00000001401a3950 f   MSVCRTD:ucrt_stubs.obj
 0002:00117950       __acrt_uninitialize        00000001401a3950 f   MSVCRTD:ucrt_stubs.obj
 0002:00117960       __vcrt_uninitialize_critical 00000001401a3960 f   MSVCRTD:ucrt_stubs.obj
 0002:00117960       __acrt_uninitialize_critical 00000001401a3960 f   MSVCRTD:ucrt_stubs.obj
 0002:00117960       __scrt_stub_for_acrt_uninitialize_critical 00000001401a3960 f   MSVCRTD:ucrt_stubs.obj
 0002:00117970       _is_c_termination_complete 00000001401a3970 f   MSVCRTD:ucrt_stubs.obj
 0002:00117970       __scrt_stub_for_is_c_termination_complete 00000001401a3970 f   MSVCRTD:ucrt_stubs.obj
 0002:00119980       _guard_dispatch_icall_nop  00000001401a5980 f   MSVCRTD:guard_dispatch.obj
 0003:00000000       __xc_a                     00000001401ac000     MSVCRTD:initializers.obj
 0003:00000670       __xc_z                     00000001401ac670     MSVCRTD:initializers.obj
 0003:00000780       __xi_a                     00000001401ac780     MSVCRTD:initializers.obj
 0003:00000bc0       __xi_z                     00000001401acbc0     MSVCRTD:initializers.obj
 0003:00000cd0       __xl_a                     00000001401accd0     MSVCRTD:tlssup.obj
 0003:00000cd8       __xl_z                     00000001401accd8     MSVCRTD:tlssup.obj
 0003:00000ce0       __xp_a                     00000001401acce0     MSVCRTD:initializers.obj
 0003:00000df0       __xp_z                     00000001401acdf0     MSVCRTD:initializers.obj
 0003:00000f00       __xt_a                     00000001401acf00     MSVCRTD:initializers.obj
 0003:00001010       __xt_z                     00000001401ad010     MSVCRTD:initializers.obj
 0003:00001120       ??_C@_00CNPNBAHC@@         00000001401ad120     gpcalu.obj
 0003:00001124       ??_C@_02GFKGEECC@?4b@      00000001401ad124     gpcalu.obj
 0003:00001128       ??_C@_02FCBDKCDG@?4w@      00000001401ad128     gpcalu.obj
 0003:0000112c       ??_C@_02PLCFGJKM@?4l@      00000001401ad12c     gpcalu.obj
 0003:00001130       ??_C@_02EEJAFLA@?4q@       00000001401ad130     gpcalu.obj
 0003:00001134       ??_C@_02IJEHLOPA@?44@      00000001401ad134     gpcalu.obj
 0003:00001138       ??_C@_02BNFCDEPB@?4p@      00000001401ad138     gpcalu.obj
 0003:0000113c       ??_C@_02EOILBHOB@?4a@      00000001401ad13c     gpcalu.obj
 0003:00001140       ??_C@_02HMLNHFGD@?4c@      00000001401ad140     gpcalu.obj
 0003:00001144       ??_C@_02PACCGAIA@?4B@      00000001401ad144     gpcalu.obj
 0003:00001148       ??_C@_02MHJHIGJE@?4W@      00000001401ad148     gpcalu.obj
 0003:0000114c       ??_C@_02GOKBENAO@?4L@      00000001401ad14c     gpcalu.obj
 0003:00001150       ??_C@_02JBMNCBBC@?4Q@      00000001401ad150     gpcalu.obj
 0003:00001154       ??_C@_02BMKIBCG@?4f@       00000001401ad154     gpcalu.obj
 0003:00001158       ??_C@_02DDPMODKE@?4d@      00000001401ad158     gpcalu.obj
 0003:0000115c       ??_C@_02CBOANLMJ@?4K@      00000001401ad15c     gpcalu.obj
 0003:00001160       ??_C@_0CJ@PPOKKAPE@?6?50x?$CF0?44x?5nop?5?$DL?9?9?9?9?9?9?9?9?9?9?9?9?9?9?9?9@ 00000001401ad160     gpcalu.obj
 0003:00001198       ??_C@_0BI@PINEMHCC@?6?50x?$CF0?44x?5notLG?$CFs?7?$CFs?0?$CFs@ 00000001401ad198     gpcalu.obj
 0003:000011b8       ??_C@_0BF@GMKHCEHB@?6?50x?$CF0?44x?5LG?$CFs?7?$CFs?0?$CFs@ 00000001401ad1b8     gpcalu.obj
 0003:000011d8       ??_C@_0BG@ENHEKEHO@?6?50x?$CF0?44x?5inv?$CFs?7?$CFs?0?$CFs@ 00000001401ad1d8     gpcalu.obj
 0003:000011f8       ??_C@_0BG@DFFCDHPE@?6?50x?$CF0?44x?5stk?$CFs?7?$CFs?0?$CFs@ 00000001401ad1f8     gpcalu.obj
 0003:00001218       ??_C@_0BH@OOLBEAIA@?6?50x?$CF0?44x?5nrow?$CFs?7?$CFs?0?$CFs@ 00000001401ad218     gpcalu.obj
 0003:00001238       ??_C@_0BH@CFPANGIH@?6?50x?$CF0?44x?5comS?$CFs?7?$CFs?0?$CFs@ 00000001401ad238     gpcalu.obj
 0003:00001258       ??_C@_0BH@PEACHCI@?6?50x?$CF0?44x?5comE?$CFs?7?$CFs?0?$CFs@ 00000001401ad258     gpcalu.obj
 0003:00001278       ??_C@_0BG@LJIDOJMA@?6?50x?$CF0?44x?5com?$CFs?7?$CFs?0?$CFs@ 00000001401ad278     gpcalu.obj
 0003:00001298       ??_C@_0BL@NPMPLOLM@?6?50x?$CF0?44x?5AND?$CFs?7?$CFs?0?$CFs?7?7?$DL?5?$CG@ 00000001401ad298     gpcalu.obj
 0003:000012b8       ??_C@_0BO@OFIGGMFN@?6?50x?$CF0?44x?5ANDlg?$CFs?7?$CFs?0?$CFs?7?7?$DL?5?$CG?$CG@ 00000001401ad2b8     gpcalu.obj
 0003:000012e0       ??_C@_0BN@FBDHAHDA@?6?50x?$CF0?44x?5ANDm?$CFs?7?$CFs?0?$CFs?7?7?$DL?5?$CG?$DN@ 00000001401ad2e0     gpcalu.obj
 0003:00001308       ??_C@_0BL@JFBHEAEF@?6?50x?$CF0?44x?5MUL?$CFs?7?$CFs?0?$CFs?7?7?$DL?5?$CK@ 00000001401ad308     gpcalu.obj
 0003:00001328       ??_C@_0BM@CNKCIODP@?6?50x?$CF0?44x?5EXP?$CFs?7?$CFs?0?$CFs?7?7?$DL?5?$CK?$CK@ 00000001401ad328     gpcalu.obj
 0003:00001350       ??_C@_0BN@INIAIONL@?6?50x?$CF0?44x?5MULm?$CFs?7?$CFs?0?$CFs?7?7?$DL?5?$CK?$DN@ 00000001401ad350     gpcalu.obj
 0003:00001378       ??_C@_0BO@PKKHBFAG@?6?50x?$CF0?44x?5EXPm?$CFs?7?$CFs?0?$CFs?7?7?$DL?5?$CK?$CK?$DN@ 00000001401ad378     gpcalu.obj
 0003:000013a0       ??_C@_0CA@JCONMAIB@?6?50x?$CF0?44x?5DIV?$CFs?7?$CFs?0?$CFs?7?$CFs?$CFs?7?7?$DL?5?1@ 00000001401ad3a0     gpcalu.obj
 0003:000013c8       ??_C@_0BN@ECCPLCNL@?6?50x?$CF0?44x?5DIVm?$CFs?7?$CFs?0?$CFs?7?7?$DL?5?1?$DN@ 00000001401ad3c8     gpcalu.obj
 0003:000013f0       ??_C@_0BP@KEPMDCIG@?6?50x?$CF0?44x?5ROOTm?$CFs?7?$CFs?0?$CFs?7?7?$DL?5?1?1?$DN@ 00000001401ad3f0     gpcalu.obj
 0003:00001418       ??_C@_0CB@PAOBKDFH@?6?50x?$CF0?44x?5REM?$CF?$CFs?7?$CFs?0?$CFs?7?$CFs?$CFs?7?7?$DL?5@ 00000001401ad418     gpcalu.obj
 0003:00001440       ??_C@_0BN@HPAEPDHJ@?6?50x?$CF0?44x?5REMm?$CFs?7?$CFs?0?$CFs?7?7?$DL?5?$CF?$DN@ 00000001401ad440     gpcalu.obj
 0003:00001468       ??_C@_0CA@FAAMJJOI@?6?50x?$CF0?44x?5XOR?$CFs?7?$CFs?0?$CFs?7?$CFs?$CFs?7?7?$DL?5?$FO@ 00000001401ad468     gpcalu.obj
 0003:00001490       ??_C@_0BN@JJODAAJL@?6?50x?$CF0?44x?5XORm?$CFs?7?$CFs?0?$CFs?7?7?$DL?5?$FO?$DN@ 00000001401ad490     gpcalu.obj
 0003:000014b8       ??_C@_0BM@HLHCALIJ@?6?50x?$CF0?44x?5move?$CFs?7?$CFs?0?$CFs?7?$CFs?$CFs@ 00000001401ad4b8     gpcalu.obj
 0003:000014e0       ??_C@_0BH@JGLEGDN@?6?50x?$CF0?44x?5eqLG?$CFs?7?$CFs?0?$CFs@ 00000001401ad4e0     gpcalu.obj
 0003:00001500       ??_C@_0BI@FKCINGBE@?6?50x?$CF0?44x?5neqLG?$CFs?7?$CFs?0?$CFs@ 00000001401ad500     gpcalu.obj
 0003:00001520       ??_C@_0BF@PNADIENL@?6?50x?$CF0?44x?5or?$CFs?7?$CFs?0?$CFs@ 00000001401ad520     gpcalu.obj
 0003:00001540       ??_C@_0BH@EEKKPCOL@?6?50x?$CF0?44x?5orLG?$CFs?7?$CFs?0?$CFs@ 00000001401ad540     gpcalu.obj
 0003:00001560       ??_C@_0BG@JGLGCOFN@?6?50x?$CF0?44x?5orM?$CFs?7?$CFs?0?$CFs@ 00000001401ad560     gpcalu.obj
 0003:00001580       ??_C@_0CB@MOGFFLBO@?6?50x?$CF0?44x?5ADD?$CFs?7?$CFs?0?$CFs?7?$CFs?$CFs?7?7?$DL?5?$CL@ 00000001401ad580     gpcalu.obj
 0003:000015a8       ??_C@_0BM@FGAIAIFK@?6?50x?$CF0?44x?5INC?$CFs?7?$CFs?0?$CFs?7?7?$DL?5?$CL?$CL@ 00000001401ad5a8     gpcalu.obj
 0003:000015d0       ??_C@_0BO@DMHDOAKA@?6?50x?$CF0?44x?5ADDm?$CFs?7?$CFs?0?$CFs?7?7?$DL?5?$CL?$DN?5@ 00000001401ad5d0     gpcalu.obj
 0003:000015f8       ??_C@_0CA@LODBIJFP@?6?50x?$CF0?44x?5SUB?$CFs?7?$CFs?0?$CFs?7?$CFs?$CFs?7?7?$DL?5?9@ 00000001401ad5f8     gpcalu.obj
 0003:00001620       ??_C@_0BM@ECPOAIJP@?6?50x?$CF0?44x?5DEC?$CFs?7?$CFs?0?$CFs?7?7?$DL?5?9?9@ 00000001401ad620     gpcalu.obj
 0003:00001648       ??_C@_0BN@EONEENFE@?6?50x?$CF0?44x?5SUBm?$CFs?7?$CFs?0?$CFs?7?7?$DL?5?9?$DN@ 00000001401ad648     gpcalu.obj
 0003:00001670       ??_C@_0BH@IBOAJKFG@?6?50x?$CF0?44x?5leLG?$CFs?7?$CFs?0?$CFs@ 00000001401ad670     gpcalu.obj
 0003:00001690       ??_C@_0BH@BGFNDLMF@?6?50x?$CF0?44x?5ltLG?$CFs?7?$CFs?0?$CFs@ 00000001401ad690     gpcalu.obj
 0003:000016b0       ??_C@_0BF@GAIIGDIM@?6?50x?$CF0?44x?5sl?$CFs?7?$CFs?0?$CFs@ 00000001401ad6b0     gpcalu.obj
 0003:000016d0       ??_C@_0BG@GDCEGBON@?6?50x?$CF0?44x?5slM?$CFs?7?$CFs?0?$CFs@ 00000001401ad6d0     gpcalu.obj
 0003:000016f0       ??_C@_0BH@HLAGJGOG@?6?50x?$CF0?44x?5beLG?$CFs?7?$CFs?0?$CFs@ 00000001401ad6f0     gpcalu.obj
 0003:00001710       ??_C@_0BH@JHDNAIHJ@?6?50x?$CF0?44x?5bgLG?$CFs?7?$CFs?0?$CFs@ 00000001401ad710     gpcalu.obj
 0003:00001730       ??_C@_0BF@FJOPNCNH@?6?50x?$CF0?44x?5sr?$CFs?7?$CFs?0?$CFs@ 00000001401ad730     gpcalu.obj
 0003:00001750       ??_C@_0BG@JPKEIOCA@?6?50x?$CF0?44x?5srM?$CFs?7?$CFs?0?$CFs@ 00000001401ad750     gpcalu.obj
 0003:00001770       ??_C@_0BK@EDLGGPCA@?6?50x?$CF0?44x?5jsr?5entryOBJ2A0@ 00000001401ad770     gpcalu.obj
 0003:00001790       ??_C@_0BI@GGFMPHNL@?6?50x?$CF0?44x?5entry?$CFs?7?$CFs?0?$CFs@ 00000001401ad790     gpcalu.obj
 0003:000017b0       ??_C@_0BG@CLGLJCCM@?6?50x?$CF0?44x?5out?$CFs?7?$CFs?0?$CFs@ 00000001401ad7b0     gpcalu.obj
 0003:000017d0       ??_C@_0BG@FGGDFPDI@?6?50x?$CF0?44x?5jsr?$CFs?7?$CFs?0?$CFs@ 00000001401ad7d0     gpcalu.obj
 0003:000017f0       ??_C@_0BI@BOODEACO@?6?50x?$CF0?44x?5brakE?$CFs?7?$CFs?0?$CFs@ 00000001401ad7f0     gpcalu.obj
 0003:00001810       ??_C@_0BH@LHLOHFDP@?6?50x?$CF0?44x?5dimS?$CFs?7?$CFs?0?$CFs@ 00000001401ad810     gpcalu.obj
 0003:00001830       ??_C@_0BH@JNAOIEJA@?6?50x?$CF0?44x?5dimE?$CFs?7?$CFs?0?$CFs@ 00000001401ad830     gpcalu.obj
 0003:00001850       ??_C@_0BI@NHHLAEKK@?6?50x?$CF0?44x?5begin?$CFs?7?$CFs?0?$CFs@ 00000001401ad850     gpcalu.obj
 0003:00001870       ??_C@_0BG@GLCFLICK@?6?50x?$CF0?44x?5end?$CFs?7?$CFs?0?$CFs@ 00000001401ad870     gpcalu.obj
 0003:00001890       ??_C@_0BF@DLPDGPAK@?6?50x?$CF0?44x?5if?$CFs?7?$CFs?0?$CFs@ 00000001401ad890     gpcalu.obj
 0003:000018b0       ??_C@_0BH@GLOGMGBI@?6?50x?$CF0?44x?5else?$CFs?7?$CFs?0?$CFs@ 00000001401ad8b0     gpcalu.obj
 0003:000018d0       ??_C@_0BH@BPAGKDBO@?6?50x?$CF0?44x?5mail?$CFs?7?$CFs?0?$CFs@ 00000001401ad8d0     gpcalu.obj
 0003:000018f0       ??_C@_0BG@OOOJJNNG@?6?50x?$CF0?44x?5str?$CFs?7?$CFs?0?$CFs@ 00000001401ad8f0     gpcalu.obj
 0003:00001910       ??_C@_0BB@NNOLNDPB@?6?50x?$CF0?44x?5jsr?7?$CFs@ 00000001401ad910     gpcalu.obj
 0003:00001924       ??_C@_05DMMLADCO@0?5nop@   00000001401ad924     gpcalu.obj
 0003:00001930       ??_C@_07GLMFGPNJ@?$CB?5notLG@ 00000001401ad930     gpcalu.obj
 0003:0000193c       ??_C@_05BIOGIMCD@?$CB?$CB?5LG@ 00000001401ad93c     gpcalu.obj
 0003:00001944       ??_C@_05MDNGJNDK@?$HO?5inv@ 00000001401ad944     gpcalu.obj
 0003:0000194c       ??_C@_05FDOJMJIH@?0?5stk@  00000001401ad94c     gpcalu.obj
 0003:00001958       ??_C@_08GGGFEJLN@?$DL?5newrow@ 00000001401ad958     gpcalu.obj
 0003:00001968       ??_C@_07LKKEIPKE@?1?$CK?5comS@ 00000001401ad968     gpcalu.obj
 0003:00001978       ??_C@_07LMOEBLLA@?$CK?1?5comE@ 00000001401ad978     gpcalu.obj
 0003:00001984       ??_C@_06NGBGDAAJ@?1?1?5com@ 00000001401ad984     gpcalu.obj
 0003:0000198c       ??_C@_05JOELEPJM@?$CG?5and@ 00000001401ad98c     gpcalu.obj
 0003:00001998       ??_C@_08IPOPJKNE@?$CG?$CG?5andLG@ 00000001401ad998     gpcalu.obj
 0003:000019a8       ??_C@_07BOHOAGJK@?$CG?$DN?5andM@ 00000001401ad9a8     gpcalu.obj
 0003:000019b4       ??_C@_05HLPFPGMG@?$CK?5mul@ 00000001401ad9b4     gpcalu.obj
 0003:000019bc       ??_C@_06BHINAICI@?$CK?$CK?5exp@ 00000001401ad9bc     gpcalu.obj
 0003:000019c8       ??_C@_07FCKHPPC@?$CK?$DN?5mulM@ 00000001401ad9c8     gpcalu.obj
 0003:000019d8       ??_C@_08EGPIHFAA@?$CK?$CK?$DN?5expM@ 00000001401ad9d8     gpcalu.obj
 0003:000019e4       ??_C@_05PDCBIIDA@?1?5div@  00000001401ad9e4     gpcalu.obj
 0003:000019f0       ??_C@_07ELKENNGG@?1?$DN?5divM@ 00000001401ad9f0     gpcalu.obj
 0003:00001a00       ??_C@_09GPMKHFB@?1?1?$DN?5rootM@ 00000001401ada00     gpcalu.obj
 0003:00001a0c       ??_C@_05IHOEJBOL@?$CF?5rem@ 00000001401ada0c     gpcalu.obj
 0003:00001a18       ??_C@_07GPGBFAKF@?$CF?$DN?5remM@ 00000001401ada18     gpcalu.obj
 0003:00001a24       ??_C@_05EJHBAHMF@?$FO?5xor@ 00000001401ada24     gpcalu.obj
 0003:00001a30       ??_C@_07KMCMMBOL@?$FO?$DN?5xorM@ 00000001401ada30     gpcalu.obj
 0003:00001a3c       ??_C@_05MELKBIJI@?$DN?5mov@ 00000001401ada3c     gpcalu.obj
 0003:00001a48       ??_C@_07OOEDFDM@?$DN?$DN?5eqLG@ 00000001401ada48     gpcalu.obj
 0003:00001a58       ??_C@_08CLBOPOAJ@?$CB?$DN?5neqLG@ 00000001401ada58     gpcalu.obj
 0003:00001a64       ??_C@_04PLEPDNHL@?$HM?5or@ 00000001401ada64     gpcalu.obj
 0003:00001a70       ??_C@_07FBKKDOMN@?$HM?$HM?5orLG@ 00000001401ada70     gpcalu.obj
 0003:00001a7c       ??_C@_06EBJJMLIK@?$HM?$DN?5orM@ 00000001401ada7c     gpcalu.obj
 0003:00001a84       ??_C@_05CPECNJJE@?$CL?5add@ 00000001401ada84     gpcalu.obj
 0003:00001a8c       ??_C@_06EJDEPBNB@?$CL?$CL?5inc@ 00000001401ada8c     gpcalu.obj
 0003:00001a98       ??_C@_07OKMGPDCP@?$CL?$DN?5addM@ 00000001401ada98     gpcalu.obj
 0003:00001aa4       ??_C@_05EILFMLFM@?9?5sub@  00000001401adaa4     gpcalu.obj
 0003:00001aac       ??_C@_06CICBAMK@?9?9?5dec@ 00000001401adaac     gpcalu.obj
 0003:00001ab8       ??_C@_07NKKBHCAC@?9?$DN?5subM@ 00000001401adab8     gpcalu.obj
 0003:00001ac8       ??_C@_07BACFJHBL@?$DM?$DN?5leLG@ 00000001401adac8     gpcalu.obj
 0003:00001ad4       ??_C@_06HENLOKHA@?$DM?5ltLG@ 00000001401adad4     gpcalu.obj
 0003:00001adc       ??_C@_05GGJJJBJB@?$DM?$DM?5sl@ 00000001401adadc     gpcalu.obj
 0003:00001ae8       ??_C@_07CDMJJOIL@?$DM?$DM?$DN?5slM@ 00000001401adae8     gpcalu.obj
 0003:00001af8       ??_C@_07ONDACOAH@?$DO?$DN?5beLG@ 00000001401adaf8     gpcalu.obj
 0003:00001b04       ??_C@_06BONILNEJ@?$DO?5bgLG@ 00000001401adb04     gpcalu.obj
 0003:00001b0c       ??_C@_05IFNAFMCF@?$DO?$DO?5sr@ 00000001401adb0c     gpcalu.obj
 0003:00001b18       ??_C@_07OAMLAGKF@?$DO?$DO?$DN?5srM@ 00000001401adb18     gpcalu.obj
 0003:00001b24       ??_C@_05OMGEFKF@?4?5dot@   00000001401adb24     gpcalu.obj
 0003:00001b30       ??_C@_08GFMOIPJ@?9?$DO?5entry@ 00000001401adb30     gpcalu.obj
 0003:00001b3c       ??_C@_06HAIMCAEO@?3?3?5out@ 00000001401adb3c     gpcalu.obj
 0003:00001b48       ??_C@_07OPFDMHCH@?$CI?5brakS@ 00000001401adb48     gpcalu.obj
 0003:00001b58       ??_C@_07DPGBHCGO@?$CJ?5brakE@ 00000001401adb58     gpcalu.obj
 0003:00001b64       ??_C@_06LPOIKHBK@?$FL?5dimS@ 00000001401adb64     gpcalu.obj
 0003:00001b6c       ??_C@_06MAKACHPH@?$FN?5dimE@ 00000001401adb6c     gpcalu.obj
 0003:00001b78       ??_C@_07KKDNLLJM@?$HL?5begin@ 00000001401adb78     gpcalu.obj
 0003:00001b84       ??_C@_05HHGACAPP@?$HN?5end@ 00000001401adb84     gpcalu.obj
 0003:00001b8c       ??_C@_04MODPLEAF@?$DP?5if@ 00000001401adb8c     gpcalu.obj
 0003:00001b94       ??_C@_06HDDCGMG@?3?5else@  00000001401adb94     gpcalu.obj
 0003:00001b9c       ??_C@_06ENECKHFA@?$EA?5mail@ 00000001401adb9c     gpcalu.obj
 0003:00001ba4       ??_C@_05PCODABOP@?$CC?5str@ 00000001401adba4     gpcalu.obj
 0003:00001e34       ??_C@_05LAPONLG@false@     00000001401ade34     gpcalu.obj
 0003:00001e3c       ??_C@_04LOAJBDKD@true@     00000001401ade3c     gpcalu.obj
 0003:00001e44       ??_C@_02KMJEMNAE@U1@       00000001401ade44     gpcalu.obj
 0003:00001e48       ??_C@_02IHLJJOMH@U2@       00000001401ade48     gpcalu.obj
 0003:00001e4c       ??_C@_02NBODDJEB@U4@       00000001401ade4c     gpcalu.obj
 0003:00001e50       ??_C@_02HNFGHGEN@U8@       00000001401ade50     gpcalu.obj
 0003:00001e54       ??_C@_02LJKIJHBA@I1@       00000001401ade54     gpcalu.obj
 0003:00001e58       ??_C@_02JCIFMEND@I2@       00000001401ade58     gpcalu.obj
 0003:00001e5c       ??_C@_02MENPGDFF@I4@       00000001401ade5c     gpcalu.obj
 0003:00001e60       ??_C@_02GIGKCMFJ@I8@       00000001401ade60     gpcalu.obj
 0003:00001e64       ??_C@_02MPIDCEGI@F4@       00000001401ade64     gpcalu.obj
 0003:00001e68       ??_C@_02GDDGGLGE@F8@       00000001401ade68     gpcalu.obj
 0003:00001e70       ??_C@_07CPAFJHCE@sizeof?$CI@ 00000001401ade70     gpcalu.obj
 0003:00001e7c       ??_C@_03IJJCIBFC@if?$CI@   00000001401ade7c     gpcalu.obj
 0003:00001e80       ??_C@_04EGMCHPMO@for?$CI@  00000001401ade80     gpcalu.obj
 0003:00001e88       ??_C@_06FJGILJPF@while?$CI@ 00000001401ade88     gpcalu.obj
 0003:00001e90       ??_C@_07IAGOCMAC@switch?$CI@ 00000001401ade90     gpcalu.obj
 0003:00001e9c       ??_C@_05ELPHFHOI@break@    00000001401ade9c     gpcalu.obj
 0003:00001ea8       ??_C@_08DLICDMBN@continue@ 00000001401adea8     gpcalu.obj
 0003:00001eb4       ??_C@_06LNOFJDNM@return@   00000001401adeb4     gpcalu.obj
 0003:00001ec0       ??_C@_07FGAIHHOI@discard@  00000001401adec0     gpcalu.obj
 0003:00001ecc       ??_C@_05ENKANFLO@class@    00000001401adecc     gpcalu.obj
 0003:00001ed4       ??_C@_03LAHFCDOB@pub@      00000001401aded4     gpcalu.obj
 0003:00001ed8       ??_C@_04JOBLANF@prot@      00000001401aded8     gpcalu.obj
 0003:00001ee0       ??_C@_03CLCAEGCJ@new@      00000001401adee0     gpcalu.obj
 0003:00001ee4       ??_C@_03ONKLGNNH@del@      00000001401adee4     gpcalu.obj
 0003:00001ee8       ??_C@_04GHJNJNPO@main@     00000001401adee8     gpcalu.obj
 0003:00001ef0       __real@43e0000000000000    00000001401adef0     gpcalu.obj
 0003:00001efc       __real@5f000000            00000001401adefc     gpcalu.obj
 0003:000028d8       ??_C@_0BD@KPCOKMHP@?$CFd?$CFs?$CFd?$CFs?$CFd?$CFs?$CFd?$CFs?$CFs@ 00000001401ae8d8     gpcDRCos.obj
 0003:000028f0       ?aADD@?1??gpfUTF8@@YAIPEBEPEAPEAE@Z@4QBIB 00000001401ae8f0     gpcDRCos.obj
 0003:00002908       ?aMSK@?1??gpfUTF8@@YAIPEBEPEAPEAE@Z@4QBIB 00000001401ae908     gpcDRCos.obj
 0003:00002920       ??_C@_0BD@OKNCBPDG@?$CL?90123456789xXbBdD@ 00000001401ae920     gpcDRCos.obj
 0003:00002938       ??_C@_04JEGEICAJ@?$AN?6?$CFs@ 00000001401ae938     gpcDRCos.obj
 0003:00002940       ??_C@_03GKNEMCNM@HI?5@     00000001401ae940     gpcDRCos.obj
 0003:00002944       ??_C@_02KEGNLNML@?0?5@     00000001401ae944     gpcDRCos.obj
 0003:00002948       ??_C@_01GPOEFGEJ@?7@       00000001401ae948     gpcDRCos.obj
 0003:0000294c       ??_C@_01KMDKNFGN@?1@       00000001401ae94c     gpcDRCos.obj
 0003:00002950       ??_C@_07OEGNJBAI@nonsens@  00000001401ae950     gpcDRCos.obj
 0003:0000295c       ??_C@_04ILJKFADF@ABCD@     00000001401ae95c     gpcDRCos.obj
 0003:00002968       ??_C@_07GNBEHCKB@?5?7?$AH?$AN?6?$DL?0@ 00000001401ae968     gpcDRCos.obj
 0003:00002974       ??_C@_04FGCJGCPE@Who?$DP@  00000001401ae974     gpcDRCos.obj
 0003:00002980       __real@0000000000000000    00000001401ae980     gpcDRCos.obj
 0003:0000298c       __real@3f800000            00000001401ae98c     gpcDRCos.obj
 0003:00002990       __real@3fd0000000000000    00000001401ae990     gpcDRCos.obj
 0003:000029a0       __real@3ff0000000000000    00000001401ae9a0     gpcDRCos.obj
 0003:000029b0       __real@4000000000000000    00000001401ae9b0     gpcDRCos.obj
 0003:000029c0       __real@4059000000000000    00000001401ae9c0     gpcDRCos.obj
 0003:000029d0       __real@4066800000000000    00000001401ae9d0     gpcDRCos.obj
 0003:000029e0       __real@408f400000000000    00000001401ae9e0     gpcDRCos.obj
 0003:000029f0       __real@bff0000000000000    00000001401ae9f0     gpcDRCos.obj
 0003:00002a00       __xmm@80000000800000008000000080000000 00000001401aea00     gpcDRCos.obj
 0003:00004914       ??_C@_02DKCKIIND@?$CFs@    00000001401b0914     gpcGL.obj
 0003:00004918       ??_C@_04HGGBINEM@?$CFs?$CFd@ 00000001401b0918     gpcGL.obj
 0003:00004920       ??_C@_04GLLLOFGF@v_vx@     00000001401b0920     gpcGL.obj
 0003:00004928       ??_C@_04PHHOHGLC@v_uv@     00000001401b0928     gpcGL.obj
 0003:00004930       ??_C@_0BB@EFHPMIFC@gpcGL?5init?5error@ 00000001401b0930     gpcGL.obj
 0003:00004948       ??_C@_0BF@HANDPLMM@gpcGL?5GLEW_NOK?5error@ 00000001401b0948     gpcGL.obj
 0003:00004964       ??_C@_04ENMBGAPA@char@     00000001401b0964     gpcGL.obj
 0003:0000496c       ??_C@_04INKAHILL@tgPX@     00000001401b096c     gpcGL.obj
 0003:00004974       ??_C@_05MFGOIHDH@DIVxy@    00000001401b0974     gpcGL.obj
 0003:0000497c       ??_C@_05EAALDEBM@FRMwh@    00000001401b097c     gpcGL.obj
 0003:00004984       ??_C@_03EEPGOBLF@aTX@      00000001401b0984     gpcGL.obj
 0003:00004988       ??_C@_04DCOGABAP@aCNL@     00000001401b0988     gpcGL.obj
 0003:00004990       ??_C@_03JDBMONBN@tex@      00000001401b0990     gpcGL.obj
 0003:00004994       __real@3e800000            00000001401b0994     gpcGL.obj
 0003:00004ad0       ??_C@_0HH@MOHCJJDH@?$DMmeta?5http?9equiv?$DN?$CCContent?9Type?$CC@ 00000001401b0ad0     gpcgt.obj
 0003:00004b60       ??_C@_0BIK@KOJKAPFL@?$DMstyle?5type?$DN?$CCtext?1css?$CC?$DObody?0htm@ 00000001401b0b60     gpcgt.obj
 0003:00004d38       ??_C@_0DG@DDCGIALB@?$DMtable?5id?$DN?$CClist?$CC?5cellpadding?$DN?$CC0@ 00000001401b0d38     gpcgt.obj
 0003:00004d80       ??_C@_0EJ@GLENMPGF@?$DMcolgroup?$DO?$DMcol?5width?$DN?$CC55?$CF?$CC?$DO?$DMcol@ 00000001401b0d80     gpcgt.obj
 0003:00004dd8       ??_C@_0CO@BNFLLCKN@?$DMa?5href?$DN?$CChttp?3?1?1?$CFs?1?$CFs?$CFs0?$CFllx?$CC?$DO?$CF@ 00000001401b0dd8     gpcgt.obj
 0003:00004e10       ??_C@_0CO@LJFDGGHN@?$DMa?5href?$DN?$CChttp?3?1?1?$CFs?1?$CFs?$CFs?$CFllx?$CC?$DO?$CFs@ 00000001401b0e10     gpcgt.obj
 0003:00004e48       ??_C@_0CI@EPLLLABF@?$DMa?5href?$DN?$CChttp?3?1?1?$CFs?1?$CFs0?$CFllx_?$CFllx@ 00000001401b0e48     gpcgt.obj
 0003:00004e78       ??_C@_0CN@DCADFGB@?$DMa?5href?$DN?$CChttp?3?1?1?$CFs?1?$CFs0?$CFllx_?$CFllx@ 00000001401b0e78     gpcgt.obj
 0003:00004eb0       ??_C@_0NL@CNFMHKBF@HTTP?11?40?5200?5OK?$AN?6Server?3?5piMASS@ 00000001401b0eb0     gpcgt.obj
 0003:00004fc0       ??_C@_0NH@BFJHAHGP@HTTP?11?40?5200?5OK?$AN?6Server?3?5piMASS@ 00000001401b0fc0     gpcgt.obj
 0003:00005df0       ??_C@_02DPKJAMEF@?$CFd@    00000001401b1df0     gpcgt.obj
 0003:00005df4       ??_C@_02PCIJFNDE@?$AN?6@   00000001401b1df4     gpcgt.obj
 0003:00005df8       ??_C@_05KFIBODPN@?5?5?5?5?$AN@ 00000001401b1df8     gpcgt.obj
 0003:00005e00       ??_C@_05CLOFCNFP@?$CFs?$CFx?$DO@ 00000001401b1e00     gpcgt.obj
 0003:00005e08       ??_C@_0M@LFNHKEGN@favicon?4png@ 00000001401b1e08     gpcgt.obj
 0003:00005e18       ??_C@_07HJKHKHMC@favicon@  00000001401b1e18     gpcgt.obj
 0003:00005e28       ??_C@_09LKPGDAIA@setup?4exe@ 00000001401b1e28     gpcgt.obj
 0003:00005e34       ??_C@_05LABDNII@setup@     00000001401b1e34     gpcgt.obj
 0003:00005e3c       ??_C@_05DHODHBPD@?5?7?$AN?6?$CB@ 00000001401b1e3c     gpcgt.obj
 0003:00005e48       ??_C@_08NNOLBLP@?5?$AH?7?$AN?6?0?3?$DL@ 00000001401b1e48     gpcgt.obj
 0003:00005e58       ??_C@_0CK@FGKDOOMF@NOTSOCK?5The?5descriptor?5is?5not?5a@ 00000001401b1e58     gpcgt.obj
 0003:00005e90       ??_C@_0CE@DPAENONM@WSAEFAULT?5Bad?5address?0?5try?5agai@ 00000001401b1e90     gpcgt.obj
 0003:00005ec0       ??_C@_0CG@NCFJKNHF@WSAEINTR?5Interrupted?5function?5c@ 00000001401b1ec0     gpcgt.obj
 0003:00005ef0       ??_C@_0CK@KJNLOBFP@WSAECONNRESET?5Connection?5reset?5@ 00000001401b1ef0     gpcgt.obj
 0003:00005f28       ??_C@_0CF@CJAHLFCM@WSAECONNREFUSED?5Connection?5refu@ 00000001401b1f28     gpcgt.obj
 0003:00005f58       ??_C@_0CE@HFGIJIED@WSAEADDRINUSE?5Port?5already?5in?5u@ 00000001401b1f58     gpcgt.obj
 0003:00005f88       ??_C@_0BN@NDKLNBAG@WSAEWOULDBLOCK?5Event?5block?$CB?6@ 00000001401b1f88     gpcgt.obj
 0003:00005fb0       ??_C@_0L@MFBEGJEF@ERROR?3?5?$CFx?6@ 00000001401b1fb0     gpcgt.obj
 0003:00005fc0       ??_C@_0BE@LKCIGCEJ@?6?7?7?9?$DN?5SOCKET_OPT?5?$DN?9@ 00000001401b1fc0     gpcgt.obj
 0003:00005fd8       ??_C@_0BH@EBMIOJBM@?6?7?7DEF?5IPPROTO_TCP?3?5?$CFd@ 00000001401b1fd8     gpcgt.obj
 0003:00005ff8       ??_C@_0BF@GOBMLDBA@?6?7?7DEF?5SO_SNDBUF?3?5?$CFd@ 00000001401b1ff8     gpcgt.obj
 0003:00006018       ??_C@_0M@ILBAIEMD@?7Result?3?5?$CFd@ 00000001401b2018     gpcgt.obj
 0003:00006028       ??_C@_0BD@IFPMFJFH@?6?7?7DEF?5SO_RCVBUF?3?5@ 00000001401b2028     gpcgt.obj
 0003:00006040       ??_C@_0BF@NIFKINJH@?6?7?7DEF?5SO_RCVBUF?3?5?$CFd@ 00000001401b2040     gpcgt.obj
 0003:00006060       ??_C@_0BF@KCJAEJPA@?6?7?7SO_RCVBUF?5SET?3?5?$CFd@ 00000001401b2060     gpcgt.obj
 0003:00006080       ??_C@_0BN@LBAIKGCN@?6?7?7DEF?5IPPROTO_IP?5?9?5IP_TTL?3?5@ 00000001401b2080     gpcgt.obj
 0003:000060a8       ??_C@_0BN@GFMJDFEB@?6?7?7SET?5IPPROTO_IP?5?9?5IP_TTL?3?5@ 00000001401b20a8     gpcgt.obj
 0003:000060d0       ??_C@_0BN@CBNIFDIP@?6?7?7CHK?5IPPROTO_IP?5?9?5IP_TTL?3?5@ 00000001401b20d0     gpcgt.obj
 0003:000060f8       ??_C@_0BB@JFFDHIML@n?7?7SOL_SOCKET?5?9?5@ 00000001401b20f8     gpcgt.obj
 0003:00006110       ??_C@_0BO@PHNDPDFJ@?6ERROR?3?5recv?5SOCKET_ERROR?5DIE@ 00000001401b2110     gpcgt.obj
 0003:00006138       ??_C@_0O@BBLEIKPC@?6recv?5n?5?$DN?$DN?50?$DP@ 00000001401b2138     gpcgt.obj
 0003:00006148       ??_C@_0BI@EIAAMIBA@?6ERROR?3?5recv?5n?5?$DN?$DN?50?5DIE@ 00000001401b2148     gpcgt.obj
 0003:00006168       ??_C@_0BO@DBFMKMMP@?6ERROR?3?5send?5SOCKET_ERROR?5DIE@ 00000001401b2168     gpcgt.obj
 0003:00006190       ??_C@_0BE@MDIAEEKA@?6ERROR?3?5send?50?5byte@ 00000001401b2190     gpcgt.obj
 0003:000061a8       ??_C@_0M@CCIJOMCH@OK?5NEW?5CNCT@ 00000001401b21a8     gpcgt.obj
 0003:000061b8       ??_C@_0BE@JNPFLCJG@?6?7?7?5?9?5try?5CNCT?5?9?5?$CFd@ 00000001401b21b8     gpcgt.obj
 0003:000061d0       ??_C@_04FFCFPMBC@?5hud@    00000001401b21d0     gpcgt.obj
 0003:000061d8       ??_C@_02GIPFHKNO@OK@       00000001401b21d8     gpcgt.obj
 0003:000061e0       ??_C@_0L@BEILFIG@?6?7?7BIND?5?9?5@ 00000001401b21e0     gpcgt.obj
 0003:000061f0       ??_C@_0BJ@BHOLOOO@Server?9bind?$CI?$CJ?5error?5lol?$CB@ 00000001401b21f0     gpcgt.obj
 0003:00006210       ??_C@_0BF@JHCDGJFI@?6?7?7LITEN?5LISTENER?5?9?5@ 00000001401b2210     gpcgt.obj
 0003:00006230       ??_C@_07OPEGIPJA@mi?C?$KJrt?$DP@ 00000001401b2230     gpcgt.obj
 0003:000075f8       ??_C@_09FNCEKDBM@0x?$CF0?48llx@ 00000001401b35f8     gpcgtos.obj
 0003:00007604       ??_C@_04OHCHCBJH@?$CFllx@  00000001401b3604     gpcgtos.obj
 0003:0000760c       ??_C@_04BFAHMMK@?$CFlld@   00000001401b360c     gpcgtos.obj
 0003:00007618       ??_C@_07FJEAHDLI@ize?4pic@ 00000001401b3618     gpcgtos.obj
 0003:00007624       ??_C@_02JDPG@rb@           00000001401b3624     gpcgtos.obj
 0003:00007628       ??_C@_01PBGHHLMH@?$AH@     00000001401b3628     gpcgtos.obj
 0003:0000762c       ??_C@_03NHELKHFK@?$CFd?7@  00000001401b362c     gpcgtos.obj
 0003:00007630       ??_C@_0BK@BBLOOLKK@?$CFs?$CFs?3?5?$CL?9?9?9?5?9?9?5?5?9?5?5?5?$AN?6?$CFs?$AN?6@ 00000001401b3630     gpcgtos.obj
 0003:00007650       ??_C@_04OOEKJIOI@USER@     00000001401b3650     gpcgtos.obj
 0003:00007658       ??_C@_02MDIFAPBN@LP@       00000001401b3658     gpcgtos.obj
 0003:0000765c       ??_C@_02GMAKCBGE@?$DM?$DO@ 00000001401b365c     gpcgtos.obj
 0003:00007660       ??_C@_03DFHDCPPK@die@      00000001401b3660     gpcgtos.obj
 0003:00007664       ??_C@_04GLMHKBCH@live@     00000001401b3664     gpcgtos.obj
 0003:00007670       ??_C@_0CO@MKHDOPLC@?$CFs?$CF0?48x?5?$CFs?5?$CFs?5?$CFd?5?$CFs?5?$CFs?5?$CFs?5?$CFs?5?$CFd@ 00000001401b3670     gpcgtos.obj
 0003:000076a8       ??_C@_01LFCBOECM@?4@       00000001401b36a8     gpcgtos.obj
 0003:000076ac       ??_C@_06HLBNBEJP@?5?$AH?7?$DL?$CC?8@ 00000001401b36ac     gpcgtos.obj
 0003:000076b8       ??_C@_09LHEBJOFF@pic?50x?$CFx?$DL@ 00000001401b36b8     gpcgtos.obj
 0003:000076c8       ??_C@_09HCODPJPK@src?50x?$CFx?$DL@ 00000001401b36c8     gpcgtos.obj
 0003:000076d4       ??_C@_01HGPPGHAI@?$AI@     00000001401b36d4     gpcgtos.obj
 0003:000076d8       ??_C@_06LOBDDFAJ@?5?7?$DL?$DO?$AN?6@ 00000001401b36d8     gpcgtos.obj
 0003:000076e0       ??_C@_03LKGCEJK@?$DL?$AN?6@ 00000001401b36e0     gpcgtos.obj
 0003:000076e4       ??_C@_01PPODPGHN@?$DO@     00000001401b36e4     gpcgtos.obj
 0003:000076e8       ??_C@_0BC@KFPKCKBA@?$CL?90123456789?5?7?$DL?$AN?6@ 00000001401b36e8     gpcgtos.obj
 0003:00007700       ??_C@_02OJDBNLEE@?5?7@     00000001401b3700     gpcgtos.obj
 0003:00007708       ??_C@_08GPLIKHIA@Which?$DP?$AN?6@ 00000001401b3708     gpcgtos.obj
 0003:00007718       ??_C@_0DH@FEMDIMLI@?$CFshost?5?$CFs?$DL?$CFsuser?5?$CFs?$DL?$CFsfile?5?$CFs?$DL?$CF@ 00000001401b3718     gpcgtos.obj
 0003:00007760       ??_C@_0P@CBCCEDAF@msg?$CF0?48x?3?5?$CFs?$CFs@ 00000001401b3760     gpcgtos.obj
 0003:00007778       ??_C@_07GAHDDKCD@?$CFsHELP?$DP@ 00000001401b3778     gpcgtos.obj
 0003:00007788       ??_C@_08BHLLFFDN@?$CFs?5event@ 00000001401b3788     gpcgtos.obj
 0003:00007794       ??_C@_05KFCCGBMA@?3?5?7?$AN?6@ 00000001401b3794     gpcgtos.obj
 0003:0000779c       ??_C@_05PCOIPGG@0x?$CFx?$DO@ 00000001401b379c     gpcgtos.obj
 0003:000077a8       ??_C@_09HGCIBLKC@?1mnt?1ram?1@ 00000001401b37a8     gpcgtos.obj
 0003:000077b4       ??_C@_04GNPKBLNA@?4jpg@    00000001401b37b4     gpcgtos.obj
 0003:000077c0       ??_C@_0BB@DKAFJDDP@?1mnt?1ram?1tmp?4tmp@ 00000001401b37c0     gpcgtos.obj
 0003:000077d8       ??_C@_0BB@MHPAPCEL@?1mnt?1ram?1bg?4kill@ 00000001401b37d8     gpcgtos.obj
 0003:000077f0       ??_C@_09CJPBBJD@?$CFsnonsens@ 00000001401b37f0     gpcgtos.obj
 0003:00007d20       ??_C@_0EK@DIPMHEFO@?$AN?6?$CFs?5x?3?$CF?42fmm?5y?3?$CF?42fmm?5z?3?$CF?42fmm@ 00000001401b3d20     gpcGTslmp.obj
 0003:00007d78       ??_C@_04FOGJPCKN@d000@     00000001401b3d78     gpcGTslmp.obj
 0003:00007d80       ??_C@_08EOEMJABN@0x000000@ 00000001401b3d80     gpcGTslmp.obj
 0003:00007d8c       ??_C@_06IHKGJJDL@0x0000@   00000001401b3d8c     gpcGTslmp.obj
 0003:00007d98       ??_C@_0L@LLGKKFCD@?$AN?6?5?$CFd?4?$CFs?$AN?6@ 00000001401b3d98     gpcGTslmp.obj
 0003:00007da8       ??_C@_0CB@JDHHLCOD@?$CFs?5?$CF0?42x?5END?5HS2i?5off?$CB?5HS2o?5off@ 00000001401b3da8     gpcGTslmp.obj
 0003:00007dd0       ??_C@_0BI@LAELNCGA@?$CFs?5?$CF0?42x?5START?5HS1o?5on?$CB@ 00000001401b3dd0     gpcGTslmp.obj
 0003:00007df0       ??_C@_0BJ@BKOKOMAJ@?$CFs?5?$CF0?42x?5Wait?$CB?5HS1i?5on?$DP?$DP@ 00000001401b3df0     gpcGTslmp.obj
 0003:00007e10       ??_C@_0BM@FJHGGBJO@?$CFs?5?$CF0?42x?5HS1i?5on?$CB?5HS1o?5off?$CB@ 00000001401b3e10     gpcGTslmp.obj
 0003:00007e38       ??_C@_0BI@LHLGEDLE@?$CFs?5?$CF0?42x?5Wait?$CB?5HS2i?5on?$DP@ 00000001401b3e38     gpcGTslmp.obj
 0003:00007e58       ??_C@_0BK@HKJPAHKM@?$CFs?5?$CF0?42x?5ON?5maradt?5a?5HS2?$CB@ 00000001401b3e58     gpcGTslmp.obj
 0003:00007e80       ??_C@_0ED@EEHDGOEL@?$CFs?5?$CF0?42x?5HS2i?5on?$CB?5?5HS2o?5on?$CB?5Err@ 00000001401b3e80     gpcGTslmp.obj
 0003:00007ed0       ??_C@_0BJ@DCLMNGDK@?$CFs?5?$CF0?42x?5Wait?$CB?5HS2i?5off?$DP@ 00000001401b3ed0     gpcGTslmp.obj
 0003:00007ef0       ??_C@_08PHGOBKGJ@?$AN?6?5?$CFd?4?$CFs@ 00000001401b3ef0     gpcGTslmp.obj
 0003:00007efc       ??_C@_01EEMJAFIK@?6@       00000001401b3efc     gpcGTslmp.obj
 0003:00007f00       ??_C@_0CO@OIBFOJKO@?$CFs500000FF03FF00?$CF0?44X0000140100@ 00000001401b3f00     gpcGTslmp.obj
 0003:00007f38       ??_C@_05KJJADAEC@?$CF0?44X@ 00000001401b3f38     gpcGTslmp.obj
 0003:00007f40       ??_C@_06CAEDLGPI@?$AN?6?$CFs?$AN?6@ 00000001401b3f40     gpcGTslmp.obj
 0003:00007f48       ??_C@_0CM@MHGMKHAP@500000FF03FF00?$CF0?44X000004010000@ 00000001401b3f48     gpcGTslmp.obj
 0003:00007f80       ??_C@_0CM@FILGCEJB@500000FF03FF00?$CF0?44X000014010000@ 00000001401b3f80     gpcGTslmp.obj
 0003:00007fb4       ??_C@_05HADPJJFN@?$AN?$CFs?$AN?6@ 00000001401b3fb4     gpcGTslmp.obj
 0003:00008e10       ??_C@_0BP@PHLKMMCH@?$CF8?42f?$CFs?$CF8?42f?$CFs?$CF8?42f?$CFs?$CF8?42f?$CFs?$CFs@ 00000001401b4e10     gpcGTslmpZS.obj
 0003:00008e38       ??_C@_04OAKECGL@iRr?5@     00000001401b4e38     gpcGTslmpZS.obj
 0003:00008e40       ??_C@_05COOOFBBJ@iR?5?5?5@ 00000001401b4e40     gpcGTslmpZS.obj
 0003:00008e48       ??_C@_04JGHKBBFI@tRr?5@    00000001401b4e48     gpcGTslmpZS.obj
 0003:00008e50       ??_C@_05JBKGEAFM@tR?5?5?5@ 00000001401b4e50     gpcGTslmpZS.obj
 0003:00008e58       ??_C@_04IBEKLHML@oRr?5@    00000001401b4e58     gpcGTslmpZS.obj
 0003:00008e60       ??_C@_05PILHLCAE@oR?5?5?5@ 00000001401b4e60     gpcGTslmpZS.obj
 0003:00008e68       ??_C@_05EBKPGANL@a?5?5?5?5@ 00000001401b4e68     gpcGTslmpZS.obj
 0003:00008e70       ??_C@_05PNFGKIDF@oXYZ?5@   00000001401b4e70     gpcGTslmpZS.obj
 0003:00008e78       ??_C@_05JEEHFKGN@tXYZ?5@   00000001401b4e78     gpcGTslmpZS.obj
 0003:00008e80       ??_C@_07OHDNKBEJ@iABC?5?5?5@ 00000001401b4e80     gpcGTslmpZS.obj
 0003:00008e90       ??_C@_07CBFCKIMO@oABC?5?5?5@ 00000001401b4e90     gpcGTslmpZS.obj
 0003:00008ea0       ??_C@_07IDIFLD@tABC?5?5?5@ 00000001401b4ea0     gpcGTslmpZS.obj
 0003:00008eac       ??_C@_05GEFOEJLI@iX?5?5?5@ 00000001401b4eac     gpcGTslmpZS.obj
 0003:00008eb4       ??_C@_05FJDOGAAI@iY?5?5?5@ 00000001401b4eb4     gpcGTslmpZS.obj
 0003:00008ebc       ??_C@_05BOJOBKNI@iZ?5?5?5@ 00000001401b4ebc     gpcGTslmpZS.obj
 0003:00008ec4       ??_C@_05LCAHKKKF@oX?5?5?5@ 00000001401b4ec4     gpcGTslmpZS.obj
 0003:00008ecc       ??_C@_05IPGHIDBF@oY?5?5?5@ 00000001401b4ecc     gpcGTslmpZS.obj
 0003:00008ed4       ??_C@_05MIMHPJMF@oZ?5?5?5@ 00000001401b4ed4     gpcGTslmpZS.obj
 0003:00008edc       ??_C@_05NLBGFIPN@tX?5?5?5@ 00000001401b4edc     gpcGTslmpZS.obj
 0003:00008ee4       ??_C@_05OGHGHBEN@tY?5?5?5@ 00000001401b4ee4     gpcGTslmpZS.obj
 0003:00008eec       ??_C@_05KBNGALJN@tZ?5?5?5@ 00000001401b4eec     gpcGTslmpZS.obj
 0003:00008ef8       ??_C@_0BD@HEEEHJKH@?$CFs?5Turn?5start?5X?3?$CFd@ 00000001401b4ef8     gpcGTslmpZS.obj
 0003:00008f10       ??_C@_0BH@NEDJOGEN@?$CFs?5not?5init?5zs160?5X?3?$CFd@ 00000001401b4f10     gpcGTslmpZS.obj
 0003:00008f30       ??_C@_0BF@EDLLPJKJ@?$CFs?5d160?5turn?5on?5X?3?$CFd@ 00000001401b4f30     gpcGTslmpZS.obj
 0003:00008f50       ??_C@_0DA@LIKCFBDK@?$CFs?5Wait?5zs160?5X?3?$CFd?5POS?3?5?$CF0?42fmm@ 00000001401b4f50     gpcGTslmpZS.obj
 0003:00008f90       ??_C@_0DA@CNNCIFKP@?$CFs?5Wait?5zs161?5X?3?$CFd?5POS?3?5?$CF0?42fmm@ 00000001401b4f90     gpcGTslmpZS.obj
 0003:00008fd0       ??_C@_0BJ@KLCMBEII@?$CFs?5Turn?5end?$CB?5Err?3?$CFd?5X?3?$CFd@ 00000001401b4fd0     gpcGTslmpZS.obj
 0003:00008ff0       ??_C@_0L@GBDICDDO@9115tXYZ?3?5@ 00000001401b4ff0     gpcGTslmpZS.obj
 0003:00009000       ??_C@_0L@DDMJFPCE@Err?5tXYZ?3?5@ 00000001401b5000     gpcGTslmpZS.obj
 0003:00009010       ??_C@_0M@BADFNKEC@CAGE?5tXYZ?3?5@ 00000001401b5010     gpcGTslmpZS.obj
 0003:00009020       ??_C@_08KMEIGIPE@?$AN?6tXYZ?3?5@ 00000001401b5020     gpcGTslmpZS.obj
 0003:0000902c       ??_C@_06NCHLJAIP@oXYZ?3?5@ 00000001401b502c     gpcGTslmpZS.obj
 0003:00009034       __real@3f000000            00000001401b5034     gpcGTslmpZS.obj
 0003:00009038       __real@3f7ff2e5            00000001401b5038     gpcGTslmpZS.obj
 0003:00009040       __real@4070000000000000    00000001401b5040     gpcGTslmpZS.obj
 0003:00009050       __real@4072c00000000000    00000001401b5050     gpcGTslmpZS.obj
 0003:00009060       __real@40d1940000000000    00000001401b5060     gpcGTslmpZS.obj
 0003:00009070       __real@40d3880000000000    00000001401b5070     gpcGTslmpZS.obj
 0003:0000907c       __real@42c80000            00000001401b507c     gpcGTslmpZS.obj
 0003:000098d4       __real@40000000            00000001401b58d4     gpcI4x4.obj
 0003:000098d8       __real@40800000            00000001401b58d8     gpcI4x4.obj
 0003:000098dc       __real@41000000            00000001401b58dc     gpcI4x4.obj
 0003:000098e0       __real@469c4000            00000001401b58e0     gpcI4x4.obj
 0003:000098e8       __real@bfe6a09e667f3bcd    00000001401b58e8     gpcI4x4.obj
 0003:00009a78       __real@3f50000000000000    00000001401b5a78     gpcI8x2.obj
 0003:00009a88       __real@4130000000000000    00000001401b5a88     gpcI8x2.obj
 0003:00009aa0       __xmm@80000000000000008000000000000000 00000001401b5aa0     gpcI8x2.obj
 0003:00009ab4       ??_C@_06GNHJPEK@?$CF0?42x?$HM@ 00000001401b5ab4     gpcLAZY.obj
 0003:00009abc       ??_C@_06CDLMMAJG@?$CF0?44x?$HM@ 00000001401b5abc     gpcLAZY.obj
 0003:00009ac4       ??_C@_06GJGKHPCO@?$CF0?48x?$HM@ 00000001401b5ac4     gpcLAZY.obj
 0003:00009ad0       ??_C@_09FPKBHIBI@?$CF0?416llx?$HM@ 00000001401b5ad0     gpcLAZY.obj
 0003:00009ae0       ??_C@_08KMGJBC@?1?1?$CF0?42x?$HM@ 00000001401b5ae0     gpcLAZY.obj
 0003:00009af0       ??_C@_08CFMHDGMO@?1?1?$CF0?44x?$HM@ 00000001401b5af0     gpcLAZY.obj
 0003:00009b00       ??_C@_08GPBBIJHG@?1?1?$CF0?48x?$HM@ 00000001401b5b00     gpcLAZY.obj
 0003:00009b10       ??_C@_0M@LIDPOJJJ@?1?1?$CF0?416llx?$HM@ 00000001401b5b10     gpcLAZY.obj
 0003:00009f54       ??_C@_03NDEAONJP@?5?5?5@   00000001401b5f54     gpcLAZY.obj
 0003:00009f58       ??_C@_06BANJINBC@?$CF0?42x?5@ 00000001401b5f58     gpcLAZY.obj
 0003:00009f60       ??_C@_01DNKMNLPK@?$HM@     00000001401b5f60     gpcLAZY.obj
 0003:00009f64       ??_C@_05IFKLLJBC@?5?5?5?5?5@ 00000001401b5f64     gpcLAZY.obj
 0003:00009f6c       ??_C@_06DFLCNCMO@?$CF0?44x?5@ 00000001401b5f6c     gpcLAZY.obj
 0003:00009f78       ??_C@_09CMIEKKHO@?5?5?5?5?5?5?5?5?5@ 00000001401b5f78     gpcLAZY.obj
 0003:00009f84       ??_C@_06HPGEGNHG@?$CF0?48x?5@ 00000001401b5f84     gpcLAZY.obj
 0003:00009f90       __real@4010000000000000    00000001401b5f90     gpcLAZY.obj
 0003:00009fa0       __real@4020000000000000    00000001401b5fa0     gpcLAZY.obj
 0003:0000a268       ??_C@_0CN@MDMOMOGF@?5?7?$AN?6?$AH?5?4?0?3?$DL?$CB?$DP?5?$DN?$DM?$DO?5?9?$CL?$CK?1?$CF?$FO?5?$CG?$HO?$HM?$EA?$CD$?5@ 00000001401b6268     gpcOPCD.obj
 0003:0000a2a0       ??_C@_0BH@DDPEBIPJ@?$CF0?42d?3?$CF0?42d?5R?$CFd?$CFs?$CFs?$CFf?5@ 00000001401b62a0     gpcOPCD.obj
 0003:0000a2c0       ??_C@_0BJ@JHDKEJCM@?$CF0?42d?3?$CF0?42d?5R?$CFd?$CFs?$CFs?$CFlld?5@ 00000001401b62c0     gpcOPCD.obj
 0003:0000a2e0       ??_C@_03KFELCGAI@Oxo@      00000001401b62e0     gpcOPCD.obj
 0003:0000a2e8       ??_C@_0CD@CAKAGKHA@?$CF0?42d?3?$CF0?42d?4?$CF0?42d?$FL?$CF0?42d?$FN?$CFs?$CFs?4?$CFs@ 00000001401b62e8     gpcOPCD.obj
 0003:0000a318       ??_C@_0CA@BHPDEFLB@?$CF0?42d?3?$CF0?42d?4?$CF0?42d?$FL?$CF0?42d?$FN?$CFs?$CFs?7?$CFs@ 00000001401b6318     gpcOPCD.obj
 0003:0000a340       ??_C@_0CH@FKJEOPM@?$CF0?42d?3?$CF0?42d?4?$CF0?42d?$FL?$CF0?42d?$FN0x?$CFx?$CFs?$CF@ 00000001401b6340     gpcOPCD.obj
 0003:0000a370       ??_C@_0CE@LDKEDEMO@?$CF0?42d?3?$CF0?42d?4?$CF0?42d?$FL?$CF0?42d?$FN?5?$CFs?$CFs?7?$CF@ 00000001401b6370     gpcOPCD.obj
 0003:0000a3a0       ??_C@_0BA@BAAPGEDL@?9ASM?3WARRNNING?9@ 00000001401b63a0     gpcOPCD.obj
 0003:0000a3b4       ??_C@_01OGPIMHDM@?$DP@     00000001401b63b4     gpcOPCD.obj
 0003:0000a3b8       ??_C@_0CP@HALBPDPO@?$CF0?42d?3?$CF0?42d?5?$CFs?4?$CFc?5?$FL?$CF0?42d?$FN?0?5?$FL?$CF0?4@ 00000001401b63b8     gpcOPCD.obj
 0003:0000a3f0       ??_C@_0CL@DGMBCLOP@?$CF0?42d?5?$CF0?42d?$FL?$CF0?42d?3?$CF0?42d?$FN?$CF0?42db?5@ 00000001401b63f0     gpcOPCD.obj
 0003:0000a428       ??_C@_0BD@LLEFKOJI@?$CF0?42d?5?$CFs?$FL?$CF0?42d?$FN?$CFc?5@ 00000001401b6428     gpcOPCD.obj
 0003:0000a440       ??_C@_0N@KJFICADL@?$CFs?$FL?$CF0?42d?$FN?$CFs?0@ 00000001401b6440     gpcOPCD.obj
 0003:0000a4ac       ??_C@_02KIGLDFAC@D0@       00000001401b64ac     gpCORE.obj
 0003:0000a4b0       ??_C@_02LBHAAEED@D1@       00000001401b64b0     gpCORE.obj
 0003:0000a4b4       ??_C@_02JKFNFHIA@D2@       00000001401b64b4     gpCORE.obj
 0003:0000a4b8       ??_C@_02IDEGGGMB@D3@       00000001401b64b8     gpCORE.obj
 0003:0000a4bc       ??_C@_02MMAHPAAG@D4@       00000001401b64bc     gpCORE.obj
 0003:0000a4c0       ??_C@_02NFBMMBEH@D5@       00000001401b64c0     gpCORE.obj
 0003:0000a4c4       ??_C@_02PODBJCIE@D6@       00000001401b64c4     gpCORE.obj
 0003:0000a4c8       ??_C@_02OHCKKDMF@D7@       00000001401b64c8     gpCORE.obj
 0003:0000a4cc       ??_C@_02KOKAPHOJ@A0@       00000001401b64cc     gpCORE.obj
 0003:0000a4d0       ??_C@_02LHLLMGKI@A1@       00000001401b64d0     gpCORE.obj
 0003:0000a4d4       ??_C@_02JMJGJFGL@A2@       00000001401b64d4     gpCORE.obj
 0003:0000a4d8       ??_C@_02IFINKECK@A3@       00000001401b64d8     gpCORE.obj
 0003:0000a4dc       ??_C@_02MKMMDCON@A4@       00000001401b64dc     gpCORE.obj
 0003:0000a4e0       ??_C@_02NDNHADKM@A5@       00000001401b64e0     gpCORE.obj
 0003:0000a4e4       ??_C@_02PIPKFAGP@A6@       00000001401b64e4     gpCORE.obj
 0003:0000a4e8       ??_C@_02OBOBGBCO@A7@       00000001401b64e8     gpCORE.obj
 0003:0000a4ec       ??_C@_02KLOPOBGM@F0@       00000001401b64ec     gpCORE.obj
 0003:0000a4f0       ??_C@_02LCPENACN@F1@       00000001401b64f0     gpCORE.obj
 0003:0000a4f4       ??_C@_02JJNJIDOO@F2@       00000001401b64f4     gpCORE.obj
 0003:0000a4f8       ??_C@_02IAMCLCKP@F3@       00000001401b64f8     gpCORE.obj
 0003:0000a4fc       ??_C@_02NGJIBFCJ@F5@       00000001401b64fc     gpCORE.obj
 0003:0000a500       ??_C@_02PNLFEGOK@F6@       00000001401b6500     gpCORE.obj
 0003:0000a504       ??_C@_02OEKOHHKL@F7@       00000001401b6504     gpCORE.obj
 0003:0000a508       ??_C@_02KEDONKOD@O0@       00000001401b6508     gpCORE.obj
 0003:0000a50c       ??_C@_02LNCFOLKC@O1@       00000001401b650c     gpCORE.obj
 0003:0000a510       ??_C@_02JGAILIGB@O2@       00000001401b6510     gpCORE.obj
 0003:0000a514       ??_C@_02IPBDIJCA@O3@       00000001401b6514     gpCORE.obj
 0003:0000a518       ??_C@_02MAFCBPOH@O4@       00000001401b6518     gpCORE.obj
 0003:0000a51c       ??_C@_02NJEJCOKG@O5@       00000001401b651c     gpCORE.obj
 0003:0000a520       ??_C@_02PCGEHNGF@O6@       00000001401b6520     gpCORE.obj
 0003:0000a524       ??_C@_02OLHPEMCE@O7@       00000001401b6524     gpCORE.obj
 0003:0000a528       ??_C@_03BDKNJIHM@D?$CFx@   00000001401b6528     gpCORE.obj
 0003:0000a52c       ??_C@_03CEHDGIEO@A?$CFx@   00000001401b652c     gpCORE.obj
 0003:0000a530       ??_C@_05EJBJFBPB@?$CIA?$CFx?$CJ@ 00000001401b6530     gpCORE.obj
 0003:0000a538       ??_C@_06LMIDCGLC@?$CIA?$CFx?$CJ?$CL@ 00000001401b6538     gpCORE.obj
 0003:0000a540       ??_C@_06MLNNHHHA@?9?$CIA?$CFx?$CJ@ 00000001401b6540     gpCORE.obj
 0003:0000a548       ??_C@_07FDJGCLPP@?$CFd?$CIA?$CFx?$CJ@ 00000001401b6548     gpCORE.obj
 0003:0000a558       ??_C@_0L@JMHJGGDI@?$CFd?$CIA?$CFx?0?$CFs?$CJ@ 00000001401b6558     gpCORE.obj
 0003:0000a568       ??_C@_0M@HMDEMPBI@0x?$CF0?44d?$CIPC?$CJ@ 00000001401b6568     gpCORE.obj
 0003:0000a578       ??_C@_0P@DPAACEFJ@0x?$CF0?42d?$CIPC?0?$CFs?$CJ@ 00000001401b6578     gpCORE.obj
 0003:0000a590       ??_C@_09LDCJMLLE@0x?$CF0?44x?4w@ 00000001401b6590     gpCORE.obj
 0003:0000a5a0       ??_C@_09NPOPONCP@0x?$CF0?48x?4l@ 00000001401b65a0     gpCORE.obj
 0003:0000a5b0       ??_C@_07LLKEFOHP@0x?$CF0?48x@ 00000001401b65b0     gpCORE.obj
 0003:0000b1c0       ??_7exception@std@@6B@     00000001401b71c0     gpcpic.obj
 0003:0000b1d8       ??_C@_0BC@EOODALEL@Unknown?5exception@ 00000001401b71d8     gpcpic.obj
 0003:0000b1f8       ??_7bad_alloc@std@@6B@     00000001401b71f8     gpcpic.obj
 0003:0000b218       ??_7bad_array_new_length@std@@6B@ 00000001401b7218     gpcpic.obj
 0003:0000b230       ??_C@_0BF@KINCDENJ@bad?5array?5new?5length@ 00000001401b7230     gpcpic.obj
 0003:0000b250       ??_C@_0BB@FCMFBGOM@invalid?5argument@ 00000001401b7250     gpcpic.obj
 0003:0000b270       ??_C@_0GI@JKOMEBKC@C?3?2Program?5Files?5?$CIx86?$CJ?2Microsof@ 00000001401b7270     gpcpic.obj
 0003:0000b2f0       ??_C@_1NA@OANNLGA@?$AAC?$AA?3?$AA?2?$AAP?$AAr?$AAo?$AAg?$AAr?$AAa?$AAm?$AA?5?$AAF?$AAi?$AAl?$AAe@ 00000001401b72f0     gpcpic.obj
 0003:0000b3f0       ??_C@_1EK@NIFDJFDG@?$AAs?$AAt?$AAd?$AA?3?$AA?3?$AA_?$AAA?$AAd?$AAj?$AAu?$AAs?$AAt?$AA_?$AAm?$AAa@ 00000001401b73f0     gpcpic.obj
 0003:0000b448       ??_C@_1CG@JNLFBNGN@?$AA?$CC?$AAi?$AAn?$AAv?$AAa?$AAl?$AAi?$AAd?$AA?5?$AAa?$AAr?$AAg?$AAu?$AAm?$AAe@ 00000001401b7448     gpcpic.obj
 0003:0000b478       ??_C@_02GMLFBBN@wb@        00000001401b7478     gpcpic.obj
 0003:0000b480       ??_C@_0BO@PFKOHNJC@vector?5subscript?5out?5of?5range@ 00000001401b7480     gpcpic.obj
 0003:0000b4b0       ??_C@_0GH@GEBGMJJM@C?3?2Program?5Files?5?$CIx86?$CJ?2Microsof@ 00000001401b74b0     gpcpic.obj
 0003:0000b530       ??_C@_1MO@NIHBFLCG@?$AAC?$AA?3?$AA?2?$AAP?$AAr?$AAo?$AAg?$AAr?$AAa?$AAm?$AA?5?$AAF?$AAi?$AAl?$AAe@ 00000001401b7530     gpcpic.obj
 0003:0000b630       ??_C@_1JK@PKCFAHNP@?$AAs?$AAt?$AAd?$AA?3?$AA?3?$AAv?$AAe?$AAc?$AAt?$AAo?$AAr?$AA?$DM?$AAu?$AAn?$AAs@ 00000001401b7630     gpcpic.obj
 0003:0000b6f0       ??_C@_1EA@LEKOKFNB@?$AA?$CC?$AAv?$AAe?$AAc?$AAt?$AAo?$AAr?$AA?5?$AAs?$AAu?$AAb?$AAs?$AAc?$AAr?$AAi@ 00000001401b76f0     gpcpic.obj
 0003:0000b740       ??_C@_1EO@GFNCMDLA@?$AAs?$AAt?$AAd?$AA?3?$AA?3?$AA_?$AAA?$AAl?$AAl?$AAo?$AAc?$AAa?$AAt?$AAe?$AA_@ 00000001401b7740     gpcpic.obj
 0003:0000b7a0       ??_C@_0BA@FOIKENOD@vector?5too?5long@ 00000001401b77a0     gpcpic.obj
 0003:0000c0a8       __real@416fffffe0000000    00000001401b80a8     gpcres.obj
 0003:0000c1cc       ??_C@_05MJNJBHN@?$CFs?$CFs?$DN@ 00000001401b81cc     gpcres2mini.obj
 0003:0000c1d4       ??_C@_03HFAIOBFI@?$CFs?$DN@ 00000001401b81d4     gpcres2mini.obj
 0003:0000c1d8       ??_C@_06KPEIPKJE@?$CFs?$CC?$CFs?$CC@ 00000001401b81d8     gpcres2mini.obj
 0003:0000c1e0       ??_C@_01IHBHIGKO@?0@       00000001401b81e0     gpcres2mini.obj
 0003:0000c1e4       ??_C@_04BECFKOHH@?$CFf?$CFs@ 00000001401b81e4     gpcres2mini.obj
 0003:0000c1ec       ??_C@_06FCDCKNLN@?$CFlld?$CFs@ 00000001401b81ec     gpcres2mini.obj
 0003:0000c1f4       ??_C@_04LOCMGGPM@?$CFd?$CFs@ 00000001401b81f4     gpcres2mini.obj
 0003:0000c7bc       ??_C@_04HHCDBDLF@?5?7?$AN?6@ 00000001401b87bc     gpcres_compi.obj
 0003:0000c7c4       ??_C@_02CHHINNLG@?$CK?1@   00000001401b87c4     gpcres_compi.obj
 0003:0000c7c8       ??_C@_02DPNDACHE@?$DM?1@   00000001401b87c8     gpcres_compi.obj
 0003:0000c7cc       ??_C@_01BJJEKLCA@?$CC@     00000001401b87cc     gpcres_compi.obj
 0003:0000c7d0       ??_C@_01GEODFPGF@?8@       00000001401b87d0     gpcres_compi.obj
 0003:0000d6a4       ??_C@_04EEOGCCFB@?4png@    00000001401b96a4     gpcres_run.obj
 0003:0000d6ac       ??_C@_05EABPEJEP@?$AN?6?$CC?$AN?6@ 00000001401b96ac     gpcres_run.obj
 0003:0000d6b4       ??_C@_03CGLHDMIP@?$CC?$AN?6@ 00000001401b96b4     gpcres_run.obj
 0003:0000d6b8       ??_C@_0BA@CPNMNNI@?1mnt?1ram?1bg?4png@ 00000001401b96b8     gpcres_run.obj
 0003:0000d6cc       ??_C@_05PKGOBEKP@?$BL?$FL2J?$AN@ 00000001401b96cc     gpcres_run.obj
 0003:0000e328       ??_C@_0BJ@JMHPPDAE@?$BL?$FL1?$DL31mIlegal?5W?5rob?$CB?$BL?$FL0m@ 00000001401ba328     gpcSLMPdcr.obj
 0003:0000e348       ??_C@_0CE@MACOLGAD@?$AN?6?1?1?5?$CFs?5HS123?3?$CF0?46X?5E?3?$CFdms?5AVG?3@ 00000001401ba348     gpcSLMPdcr.obj
 0003:0000e380       ??_C@_0PE@MEHFNALH@?$AN?6?1?1?5POS?3?5?5n?3?$CFd?$AN?6?1?1?7iXYZ?5?$CF7?42fm@ 00000001401ba380     gpcSLMPdcr.obj
 0003:0000e4b0       ??_C@_0HM@PIIFFDMN@?$AN?6?1?1?5DIR?3?5?5n?3?$CFd?$AN?6?1?1?7iABC?5?$CF7?42fd@ 00000001401ba4b0     gpcSLMPdcr.obj
 0003:0000e550       ??_C@_0HG@HODIEEHD@?$AN?6?1?1?5pos?3?$AN?6?1?1?7ixyz?5?$CF7?42fmm?0?5?$CF7?4@ 00000001401ba550     gpcSLMPdcr.obj
 0003:0000e5e0       ??_C@_0HI@FBJGEFMC@?$AN?6?1?1?5ok?3?$AN?6?1?1?7okXYZ?5?$CF7?42fmm?0?5?$CF7?4@ 00000001401ba5e0     gpcSLMPdcr.obj
 0003:0000e670       ??_C@_01JLIPDDHJ@?3@       00000001401ba670     gpcSLMPdcr.obj
 0003:0000e674       ??_C@_01IDAFKMJL@_@        00000001401ba674     gpcSLMPdcr.obj
 0003:0000e678       ??_C@_01NEMOKFLO@?$DN@     00000001401ba678     gpcSLMPdcr.obj
 0003:0000e67c       ??_C@_01JOAMLHOP@?9@       00000001401ba67c     gpcSLMPdcr.obj
 0003:0000e680       ??_C@_0O@MEOFNMNH@HS1ms?9msSRT3?$DN@ 00000001401ba680     gpcSLMPdcr.obj
 0003:0000e690       ??_C@_06PKEAKMIB@ms?$BL?$FL0m@ 00000001401ba690     gpcSLMPdcr.obj
 0003:0000e698       ??_C@_0BG@OELOEMKJ@?$BL?$FL1?$DL32mEXTRA?5GO?$CB?5lag?3@ 00000001401ba698     gpcSLMPdcr.obj
 0003:0000e954       ??_C@_01CLKCMJKC@?5@       00000001401ba954     gpcSRC.obj
 0003:0000e960       ??_7gpcSRC@@6B@            00000001401ba960     gpcSRC.obj
 0003:0000e978       ??_7gpcMASS@@6B@           00000001401ba978     gpcSRC.obj
 0003:0000e984       ??_C@_02HHLCPGMK@?5?$AH@   00000001401ba984     gpcSRC.obj
 0003:0000efbc       ??_C@_04IEHBKBFP@?7?$AN?6?$AH@ 00000001401bafbc     gpcSRCbreak.obj
 0003:0000efc4       ??_C@_03LBFLGDID@?$AH?$AN?6@ 00000001401bafc4     gpcSRCbreak.obj
 0003:0000f13c       ??_C@_01ICJEACDI@?$DL@     00000001401bb13c     gpcSRCdbg.obj
 0003:0000f4b8       ??_C@_0BB@CGHEPNBL@FFFFffffFFFFffff@ 00000001401bb4b8     gpcSRClnk.obj
 0003:0000f4d0       ??_C@_07LGDDNLKJ@0x?$CF0?42x@ 00000001401bb4d0     gpcSRClnk.obj
 0003:0000f4e0       ??_C@_07LCLOKHBL@0x?$CF0?44x@ 00000001401bb4e0     gpcSRClnk.obj
 0003:0000f4f0       ??_C@_0L@LNDJAGBM@0x?$CF0?416llx@ 00000001401bb4f0     gpcSRClnk.obj
 0003:0000f500       ??_C@_06EDPBIHGM@0x?$CF?43d@ 00000001401bb500     gpcSRClnk.obj
 0003:0000f508       ??_C@_06EFDKEFIH@0x?$CF?46d@ 00000001401bb508     gpcSRClnk.obj
 0003:0000f510       ??_C@_06EOGGACLK@0x?$CF?49d@ 00000001401bb510     gpcSRClnk.obj
 0003:0000f518       ??_C@_09DEICLBDN@0x?$CF?412lld@ 00000001401bb518     gpcSRClnk.obj
 0003:0000f524       ??_C@_05OKBDJFGG@?$CF0?47f@ 00000001401bb524     gpcSRClnk.obj
 0003:0000f530       ??_C@_07JKMAEIEL@?$CC?$CFs?4?4?4?$CC@ 00000001401bb530     gpcSRClnk.obj
 0003:0000f540       ??_C@_0BE@BCFCBCBB@0x?$CF0?48llx?00x?$CF0?48llx@ 00000001401bb540     gpcSRClnk.obj
 0003:0000f680       ??_C@_02FEEPBPGD@A?3@      00000001401bb680     gpcSRCprnt.obj
 0003:0000f684       ??_C@_04OJMLBBED@?6?5?$CFs@ 00000001401bb684     gpcSRCprnt.obj
 0003:0000f68c       ??_C@_06KBJCFHDN@?5?$CFlld?0@ 00000001401bb68c     gpcSRCprnt.obj
 0003:0000f694       ??_C@_04BJBPHALI@?5?$CFd?0@ 00000001401bb694     gpcSRCprnt.obj
 0003:0000f69c       ??_C@_04BKJLKENG@?5?$CFf?0@ 00000001401bb69c     gpcSRCprnt.obj
 0003:00011018       ??_C@_09OKELKCHG@Explode?3?5@ 00000001401bd018     gpcTOOL.obj
 0003:00011028       ??_C@_0P@DFNAHMBA@Explode?3?5nTRD?5@ 00000001401bd028     gpcTOOL.obj
 0003:00011040       ??_C@_0BD@HJFIJCDA@Explode?3?5mainLOOP?5@ 00000001401bd040     gpcTOOL.obj
 0003:00011058       ??_C@_01FHEEJDEE@A@        00000001401bd058     gpcTOOL.obj
 0003:0001105c       ??_C@_03FMFFAAHN@rnd@      00000001401bd05c     gpcTOOL.obj
 0003:00011060       ??_C@_01KDCPPGHE@r@        00000001401bd060     gpcTOOL.obj
 0003:00011064       ??_C@_01FJMABOPO@x@        00000001401bd064     gpcTOOL.obj
 0003:00011068       ??_C@_04IOCOMMHH@BOB?3@    00000001401bd068     gpcTOOL.obj
 0003:00011070       ??_C@_05NMNCMLLL@FOOD?3@   00000001401bd070     gpcTOOL.obj
 0003:00011078       ??_C@_0BC@LHMEJFNE@?5ERR?$CB?5NoGood?5FILE@ 00000001401bd078     gpcTOOL.obj
 0003:00011090       ??_C@_03BGMCNDOO@?5OK@     00000001401bd090     gpcTOOL.obj
 0003:00011098       ??_C@_0BC@HGPFCOE@?5ERR?$CB?5NoGood?5SIZE@ 00000001401bd098     gpcTOOL.obj
 0003:000110b0       ??_C@_07EBDGKKKN@?5NoFnd?$CB@ 00000001401bd0b0     gpcTOOL.obj
 0003:000110c0       ??_C@_07KHDBDBIJ@spc?4png@ 00000001401bd0c0     gpcTOOL.obj
 0003:000110d0       ??_C@_07OGJEJGHK@?5pitch?3@ 00000001401bd0d0     gpcTOOL.obj
 0003:000110e0       ??_C@_08FBJHOIGB@?5food?4w?3@ 00000001401bd0e0     gpcTOOL.obj
 0003:000110f0       ??_C@_08CMEKNGJA@?5save?4w?3@ 00000001401bd0f0     gpcTOOL.obj
 0003:000110fc       ??_C@_05FDNCNCCA@?4kill@   00000001401bd0fc     gpcTOOL.obj
 0003:00011104       ??_C@_04MKEOLIJC@?5to?5@   00000001401bd104     gpcTOOL.obj
 0003:00011110       ??_C@_09MENIBBOJ@?5LZYcpy?3?5@ 00000001401bd110     gpcTOOL.obj
 0003:0001111c       ??_C@_06BALJJENC@?5KILL?3@ 00000001401bd11c     gpcTOOL.obj
 0003:00011124       ??_C@_03NPMJBIL@?$CFs?1@   00000001401bd124     gpcTOOL.obj
 0003:00011128       ??_C@_05NMBAAJCJ@_dir?1@   00000001401bd128     gpcTOOL.obj
 0003:00011130       ??_C@_06LCIBPJHO@mkdir?3@  00000001401bd130     gpcTOOL.obj
 0003:00011138       ??_C@_09MKKGLIPK@?5spcWH?4x?3@ 00000001401bd138     gpcTOOL.obj
 0003:00011144       ??_C@_01HJOKEEBB@U@        00000001401bd144     gpcU14.obj
 0003:00011148       ??_C@_02PCKIEMMK@?$CKU@    00000001401bd148     gpcU14.obj
 0003:0001114c       ??_C@_02JAAHDDMC@rU@       00000001401bd14c     gpcU14.obj
 0003:00011150       ??_C@_03IBINHKJG@?$CKrU@   00000001401bd150     gpcU14.obj
 0003:00011154       ??_C@_01BIAFAFID@F@        00000001401bd154     gpcU14.obj
 0003:00011158       ??_C@_02JDEHANFI@?$CKF@    00000001401bd158     gpcU14.obj
 0003:0001115c       ??_C@_02PBOIHCFA@rF@       00000001401bd15c     gpcU14.obj
 0003:00011160       ??_C@_03OAGCDLAE@?$CKrF@   00000001401bd160     gpcU14.obj
 0003:00011164       ??_C@_01JPJNBJEM@I@        00000001401bd164     gpcU14.obj
 0003:00011168       ??_C@_02BENPBBJH@?$CKI@    00000001401bd168     gpcU14.obj
 0003:0001116c       ??_C@_02HGHAGOJP@rI@       00000001401bd16c     gpcU14.obj
 0003:00011170       ??_C@_03GHPKCHML@?$CKrI@   00000001401bd170     gpcU14.obj
 0003:000112f8       ??_C@_0L@JHMCEDCP@?$CFs?$CFdx?$CFdx?$CFd@ 00000001401bd2f8     gpcU14.obj
 0003:00011308       ??_C@_0L@FPFMPDDA@0123456789@ 00000001401bd308     gpcU14.obj
 0003:00011868       ??_C@_0BB@EIJENLMH@?$CFd?$CFs?$CFd?$CFs?$CFd?$CFs?$CFd?$CFs@ 00000001401bd868     gpMASSbuild.obj
 0003:00011880       ??_C@_0ED@HLNDJBEP@?$AN?6?9?9?9?9?9?9?9?9?9?9?9?9?9?9?9?9?9?$AN?6HD?3?$FL?$CFs?$CFd?$FN?5@ 00000001401bd880     gpMASSbuild.obj
 0003:000118d0       ??_C@_01IPJKGB@?$CD@       00000001401bd8d0     gpMASSbuild.obj
 0003:000118d8       ??_C@_08HPLNNLKD@?$AN?6nTG?3?$CFd@ 00000001401bd8d8     gpMASSbuild.obj
 0003:000118e4       ??_C@_02IGFKBHGM@?5?$CD@   00000001401bd8e4     gpMASSbuild.obj
 0003:000118e8       ??_C@_0O@NGCJCICK@?$AN?6OFF?30x?$CF0?48x@ 00000001401bd8e8     gpMASSbuild.obj
 0003:000118f8       ??_C@_0O@EHHKHAGD@?$AN?6bSW?30x?$CF0?48x@ 00000001401bd8f8     gpMASSbuild.obj
 0003:00012448       ??_C@_03OOAAEEIB@?4?$CFc@  00000001401be448     piMASS_main.obj
 0003:00012450       ??_C@_0L@BFNJMCFM@?$CFd?$CFs?$CFd?$CFs?$CFs@ 00000001401be450     piMASS_main.obj
 0003:00012468       ??_7InitError@@6B@         00000001401be468     piMASS_main.obj
 0003:00012480       ??_C@_0IC@DPJLIEJN@?$DMHTML?$DO?$AN?6?$DMHEAD?$DO?$AN?6?$DMTITLE?$DOHTML?5?$CFs?$DM@ 00000001401be480     piMASS_main.obj
 0003:00012520       ??_C@_0N@GCLAJGFK@?$DM?1TD?$DO?$DM?1TR?$DO?$AN?6@ 00000001401be520     piMASS_main.obj
 0003:00012530       ??_C@_06HMODGFAE@?$CFs?$DMTR?$DO@ 00000001401be530     piMASS_main.obj
 0003:00012538       ??_C@_07KMCNIBDK@?$CDffffff@ 00000001401be538     piMASS_main.obj
 0003:00012544       ??_C@_05MCNIHML@?$DM?1TD?$DO@ 00000001401be544     piMASS_main.obj
 0003:00012550       ??_C@_0BM@BOPEFPGJ@?$CFs?$DMTD?5BGCOLOR?$DN?$CFs?5BORDER?$DN0?$DO?5@ 00000001401be550     piMASS_main.obj
 0003:00012578       ??_C@_07KKOLKLDF@?$CDbfbfbf@ 00000001401be578     piMASS_main.obj
 0003:00012588       ??_C@_07NOOFHFCB@?$CDafafaf@ 00000001401be588     piMASS_main.obj
 0003:00012598       ??_C@_0BM@KGEIDIAM@?$CFs?$DMTD?5BGCOLOR?$DN?$CFs?5BORDER?$DN1?$DO?5@ 00000001401be598     piMASS_main.obj
 0003:000125c0       ??_C@_0M@EIMIENEA@?$CFs?$CFs?1?$CFs?4asm@ 00000001401be5c0     piMASS_main.obj
 0003:000125d0       ??_C@_03EEBNCBOD@?5?$CFs@  00000001401be5d0     piMASS_main.obj
 0003:000125d8       ??_C@_0BG@IEIBHMPO@?$DMBR?$DO?$CL?9?9?9?5?9?9?5?5?9?5?5?5?$DMBR?$DO@ 00000001401be5d8     piMASS_main.obj
 0003:000125f4       ??_C@_04ECOMCMHA@?$DMBR?$DO@ 00000001401be5f4     piMASS_main.obj
 0003:000125fc       ??_C@_03NNLCMHAO@?6?$DM?$DO@ 00000001401be5fc     piMASS_main.obj
 0003:00012600       ??_C@_0BK@FLDAFLNJ@?$DM?1TD?$DO?$DM?1TR?$DO?$DM?1TABLE?$DO?$DM?1BODY?$DO@ 00000001401be600     piMASS_main.obj
 0003:00012620       ??_C@_05HEGJOBKO@?$CFs?$CFs?1@ 00000001401be620     piMASS_main.obj
 0003:00012628       ??_C@_0M@LFMFBCIF@?1index?4html@ 00000001401be628     piMASS_main.obj
 0003:00012638       ??_C@_0BF@ILEDIHEB@?1index0x?$CF0?44llx?4html@ 00000001401be638     piMASS_main.obj
 0003:00012654       ??_C@_04BBFLNFPC@?$AH?5?$CFs@ 00000001401be654     piMASS_main.obj
 0003:0001265c       ??_C@_02JAHFBEMK@?$AH?5@   00000001401be65c     piMASS_main.obj
 0003:00012660       ??_C@_06CPDADIKF@_undo?1@  00000001401be660     piMASS_main.obj
 0003:00012668       ??_C@_09JINEEOBN@0x?$CF0?44llx@ 00000001401be668     piMASS_main.obj
 0003:00012678       ??_C@_07LAIEOGAH@?$FLENTER?$FN@ 00000001401be678     piMASS_main.obj
 0003:00012688       ??_C@_07FOFMBJDF@gpcMASS@  00000001401be688     piMASS_main.obj
 0003:00012694       ??_C@_06LOFJLBGJ@gpcWIN@   00000001401be694     piMASS_main.obj
 0003:0001269c       ??_C@_06IODNFBCM@gpcCRS@   00000001401be69c     piMASS_main.obj
 0003:000126a4       ??_C@_06JEOGBEOC@gpcSRC@   00000001401be6a4     piMASS_main.obj
 0003:000126ac       ??_C@_06HPPBNECD@gpcRES@   00000001401be6ac     piMASS_main.obj
 0003:000126b4       ??_C@_06FILCOCFI@gpcSTK@   00000001401be6b4     piMASS_main.obj
 0003:000126bc       ??_C@_06FBFPADHG@gpcREG@   00000001401be6bc     piMASS_main.obj
 0003:000126c8       ??_C@_08ODCLBFIC@gpcGTall@ 00000001401be6c8     piMASS_main.obj
 0003:000126d4       ??_C@_05CAIPNKIJ@gpcGT@    00000001401be6d4     piMASS_main.obj
 0003:000126dc       ??_C@_06JGCAPHJN@gpcPIC@   00000001401be6dc     piMASS_main.obj
 0003:000126e4       ??_C@_06GENGLAFL@gpcALU@   00000001401be6e4     piMASS_main.obj
 0003:000126ec       ??_C@_06CFIEHHCE@gpcADR@   00000001401be6ec     piMASS_main.obj
 0003:000126f4       ??_C@_06JILGKLKM@gpcISA@   00000001401be6f4     piMASS_main.obj
 0003:000126fc       ??_C@_04LIGJCIIL@I8x4@     00000001401be6fc     piMASS_main.obj
 0003:00012704       ??_C@_04OODDIPAN@I8x2@     00000001401be704     piMASS_main.obj
 0003:0001270c       ??_C@_04FHKPONLA@U4x4@     00000001401be70c     piMASS_main.obj
 0003:00012714       ??_C@_04BPFEKDG@U4x2@      00000001401be714     piMASS_main.obj
 0003:0001271c       ??_C@_04PCLPJHDD@I4x4@     00000001401be71c     piMASS_main.obj
 0003:00012724       ??_C@_04KEOFDALF@I4x2@     00000001401be724     piMASS_main.obj
 0003:00012730       ??_C@_07EOHDDFLC@gpcSLMP@  00000001401be730     piMASS_main.obj
 0003:0001273c       ??_C@_06PEOBBJIG@gpcDrc@   00000001401be73c     piMASS_main.obj
 0003:00012744       ??_C@_05HLDAHMGN@gpcZS@    00000001401be744     piMASS_main.obj
 0003:0001274c       ??_C@_06CBLPHCOF@gpcROB@   00000001401be74c     piMASS_main.obj
 0003:00012758       ??_C@_07FPLMDPOG@gpcZSnD@  00000001401be758     piMASS_main.obj
 0003:00012764       ??_C@_06CCKCPIEI@gpcLZY@   00000001401be764     piMASS_main.obj
 0003:00012770       ??_C@_0M@KCPJJAFO@gpeU4x2nSTR@ 00000001401be770     piMASS_main.obj
 0003:00012780       ??_C@_0NI@EAHKPHNM@?$BL?$FL1?$DL31m?5Megvan?5m?C?$KBr?$DP?$BL?$FL1?$DL34m?5?$AN?61@ 00000001401be780     piMASS_main.obj
 0003:00012884       ??_C@_02HBOOOICD@?9?$DO@   00000001401be884     piMASS_main.obj
 0003:00012888       ??_C@_09PEBDLJDF@Start?5in?3@ 00000001401be888     piMASS_main.obj
 0003:00012898       ??_C@_07IIOPHDEH@Exe?5is?3@ 00000001401be898     piMASS_main.obj
 0003:000128a8       ??_C@_0BC@HCOPAJCP@tstCAGE?4tXYZ0000?3@ 00000001401be8a8     piMASS_main.obj
 0003:000128c0       ??_C@_0BC@NCKHCBGG@tstCAGE?4tXYZball?3@ 00000001401be8c0     piMASS_main.obj
 0003:000128d8       ??_C@_0BC@KJMDFEGD@tstCAGE?4tXYZboxx?3@ 00000001401be8d8     piMASS_main.obj
 0003:000128f0       ??_C@_05MDAGOFLM@?4mass@   00000001401be8f0     piMASS_main.obj
 0003:000128f8       ??_C@_08LPMKNLPM@MASS?5is?3@ 00000001401be8f8     piMASS_main.obj
 0003:00012908       ??_C@_0DG@MEOGNDLG@?$BL?$FL1?$DL31m?5Meg?5kell?5szerezni?5a?5use@ 00000001401be908     piMASS_main.obj
 0003:00012948       ??_C@_07KFJIADNA@pi?4mass@ 00000001401be948     piMASS_main.obj
 0003:00012954       ??_C@_05MECIFJDE@Load?3@   00000001401be954     piMASS_main.obj
 0003:00012960       ??_C@_07DGPFOBOC@?4undo0x@ 00000001401be960     piMASS_main.obj
 0003:00012970       ??_C@_0BJ@NHLHEIHM@mini_char_16x32_8x32?4png@ 00000001401be970     piMASS_main.obj
 0003:00012990       ??_C@_0PB@EIDNFNC@?5?5?5?5?5?5?5?5?5?5?5?5?5?5?5?5?5?5?5?5?5?5?5?5?5?5?5?5?5?5?5@ 00000001401be990     piMASS_main.obj
 0003:00012ab8       ??_C@_0CA@MEFDHJPP@Error?5while?5initializing?5SDL?3?5?5@ 00000001401beab8     piMASS_main.obj
 0003:000148d8       ??_7gpcCRS@@6B@            00000001401c08d8     gpccrs.obj
 0003:000148e4       ??_C@_04BMCEDOKO@EDIT@     00000001401c08e4     gpccrs.obj
 0003:000148ec       ??_C@_06JNJLBPLI@TARGET@   00000001401c08ec     gpccrs.obj
 0003:00014e98       ??_7gpcND@@6B@             00000001401c0e98     gpcND.obj
 0003:000165d4       ??_C@_04MGNJNGKI@?$BL?$FL0m@ 00000001401c25d4     gpcwin.obj
 0003:000165dc       ??_C@_03CFKJINNM@?5H?3@    00000001401c25dc     gpcwin.obj
 0003:000165e0       ??_C@_09LJPBMNLB@?5be?1af?5W?3@ 00000001401c25e0     gpcwin.obj
 0003:000165ec       ??_C@_06BJJLKKLK@frmID?3@  00000001401c25ec     gpcwin.obj
 0003:000165f8       ??_C@_0BA@BPGBFJIA@?$BL?$FL1?$DL31m?5WINreSZ@ 00000001401c25f8     gpcwin.obj
 0003:00016610       ??_C@_0CC@NNKMOFKI@Custom?5shader?5with?5SDL2?5rendere@ 00000001401c2610     gpcwin.obj
 0003:00016638       ??_C@_01HIHLOKLC@1@        00000001401c2638     gpcwin.obj
 0003:00016640       ??_C@_0BC@FOCBAEFG@SDL_RENDER_DRIVER@ 00000001401c2640     gpcwin.obj
 0003:00016658       ??_C@_0BN@JJEBBFLO@mini_ISO_32x32_1024x1536?4png@ 00000001401c2658     gpcwin.obj
 0003:0001667c       ??_C@_02PLJDPFIO@00@       00000001401c267c     gpcwin.obj
 0003:00016680       ??_C@_04HDMMNHEL@move@     00000001401c2680     gpcwin.obj
 0003:00016688       ??_C@_04HDOCAJNK@?$CFs?$CFs@ 00000001401c2688     gpcwin.obj
 0003:00016690       ??_C@_0GC@DJBMGGMF@?9?$DN?5piMASS?$CFd?3?3?$CFs?5x?3?$CFd?5y?3?$CFd?0?5onDI@ 00000001401c2690     gpcwin.obj
 0003:00016708       ??_C@_05GCEHHDHP@HTML?1@   00000001401c2708     gpcwin.obj
 0003:00016710       ??_C@_03LEMCFJEK@?$AN?6?5@ 00000001401c2710     gpcwin.obj
 0003:00016714       ??_C@_02LBMPKHPO@?C?$IB@   00000001401c2714     gpcwin.obj
 0003:00016718       ??_C@_02CEELIDFM@?C?$KB@   00000001401c2718     gpcwin.obj
 0003:0001671c       ??_C@_02HJBGCNPG@?C?$IJ@   00000001401c271c     gpcwin.obj
 0003:00016720       ??_C@_02OMJCAJFE@?C?$KJ@   00000001401c2720     gpcwin.obj
 0003:00016724       ??_C@_02BNHKOIPC@?C?$IN@   00000001401c2724     gpcwin.obj
 0003:00016728       ??_C@_02IIPOMMFA@?C?$KN@   00000001401c2728     gpcwin.obj
 0003:0001672c       ??_C@_02MJDLNHCN@?C?$JD@   00000001401c272c     gpcwin.obj
 0003:00016730       ??_C@_02FMLPPDIP@?C?$LD@   00000001401c2730     gpcwin.obj
 0003:00016734       ??_C@_02BIPJGMGE@?C?$JK@   00000001401c2734     gpcwin.obj
 0003:00016738       ??_C@_02INHNEIMG@?C?$LK@   00000001401c2738     gpcwin.obj
 0003:0001673c       ??_C@_02OGJLPIFM@?E?$JA@   00000001401c273c     gpcwin.obj
 0003:00016740       ??_C@_02PPIAMJBN@?E?$JB@   00000001401c2740     gpcwin.obj
 0003:00016744       ??_C@_02HDBPNMPO@?E?$LA@   00000001401c2744     gpcwin.obj
 0003:00016748       ??_C@_02GKAEONLP@?E?$LB@   00000001401c2748     gpcwin.obj
 0003:0001674c       ??_C@_02LEEMCDGI@?C?$JG@   00000001401c274c     gpcwin.obj
 0003:00016750       ??_C@_02CBMIAHMK@?C?$LG@   00000001401c2750     gpcwin.obj
 0003:00016754       ??_C@_02OCBGIEOO@?C?$JA@   00000001401c2754     gpcwin.obj
 0003:00016758       ??_C@_02NLCHOPEA@?C?$LM@   00000001401c2758     gpcwin.obj
 0003:0001675c       ??_C@_01IFKFHFEL@?$IA@     00000001401c275c     gpcwin.obj
 0003:00016760       ??_C@_0BA@JFNIOLAK@string?5too?5long@ 00000001401c2760     gpcwin.obj
 0003:00016774       __real@3ccccccd            00000001401c2774     gpcwin.obj
 0003:00016778       __real@3e000000            00000001401c2778     gpcwin.obj
 0003:0001677c       __real@3f666666            00000001401c277c     gpcwin.obj
 0003:00016780       __real@3fc0a3d70a3d70a4    00000001401c2780     gpcwin.obj
 0003:00016790       __real@3fd3333333333333    00000001401c2790     gpcwin.obj
 0003:000167a0       ??_C@_0M@CIIOFPA@GL_EXT_bgra?$AA@ 00000001401c27a0     glew32s:glew.obj
 0003:000167b0       ??_C@_0BI@FJEJKAHN@GL_EXT_bindable_uniform?$AA@ 00000001401c27b0     glew32s:glew.obj
 0003:000167d0       ??_C@_0BD@LMOCEJB@GL_EXT_blend_color?$AA@ 00000001401c27d0     glew32s:glew.obj
 0003:000167e8       ??_C@_0BP@PPPKEOIM@GL_EXT_blend_equation_separate?$AA@ 00000001401c27e8     glew32s:glew.obj
 0003:00016810       ??_C@_0BL@CGAHOHJD@GL_EXT_blend_func_extended?$AA@ 00000001401c2810     glew32s:glew.obj
 0003:00016830       ??_C@_0BL@OHIMOMCA@GL_EXT_blend_func_separate?$AA@ 00000001401c2830     glew32s:glew.obj
 0003:00016850       ??_C@_0BG@NIFIPAMG@GL_EXT_blend_logic_op?$AA@ 00000001401c2850     glew32s:glew.obj
 0003:00016870       ??_C@_0BE@CICKIAIK@GL_EXT_blend_minmax?$AA@ 00000001401c2870     glew32s:glew.obj
 0003:00016888       ??_C@_0BG@ILCIGDKH@GL_EXT_blend_subtract?$AA@ 00000001401c2888     glew32s:glew.obj
 0003:000168a8       ??_C@_0BG@BIECEFEL@GL_EXT_buffer_storage?$AA@ 00000001401c28a8     glew32s:glew.obj
 0003:000168c8       ??_C@_0BF@PPEPCKFM@GL_EXT_clear_texture?$AA@ 00000001401c28c8     glew32s:glew.obj
 0003:000168e8       ??_C@_0BK@DIPLABAK@GL_EXT_clip_cull_distance?$AA@ 00000001401c28e8     glew32s:glew.obj
 0003:00016908       ??_C@_08INEPGKHH@No?5error?$AA@ 00000001401c2908     glew32s:glew.obj
 0003:00016918       ??_C@_0BI@KLBNPAMK@GL_EXT_clip_volume_hint?$AA@ 00000001401c2918     glew32s:glew.obj
 0003:00016938       ??_C@_0BD@NFNBFBCB@Missing?5GL?5version?$AA@ 00000001401c2938     glew32s:glew.obj
 0003:00016950       ??_C@_0N@JKCDOJMM@GL_EXT_cmyka?$AA@ 00000001401c2950     glew32s:glew.obj
 0003:00016960       ??_C@_0CA@NKBPONJJ@GL?51?41?5and?5up?5are?5not?5supported?$AA@ 00000001401c2960     glew32s:glew.obj
 0003:00016988       ??_C@_0BK@PFKCOLDO@GL_EXT_color_buffer_float?$AA@ 00000001401c2988     glew32s:glew.obj
 0003:000169a8       ??_C@_0CB@KEAEENFG@GLX?51?42?5and?5up?5are?5not?5supported@ 00000001401c29a8     glew32s:glew.obj
 0003:000169d0       ??_C@_0BP@BGEOCIJP@GL_EXT_color_buffer_half_float?$AA@ 00000001401c29d0     glew32s:glew.obj
 0003:000169f8       ??_C@_0O@NIPGCINC@Unknown?5error?$AA@ 00000001401c29f8     glew32s:glew.obj
 0003:00016a08       ??_C@_0BG@HJLBPDAK@GL_EXT_color_subtable?$AA@ 00000001401c2a08     glew32s:glew.obj
 0003:00016a28       ??_C@_0BN@LBNKGIPJ@GL_EXT_compiled_vertex_array?$AA@ 00000001401c2a28     glew32s:glew.obj
 0003:00016a50       ??_C@_0CI@GCJJDCDF@GL_EXT_compressed_ETC1_RGB8_sub_@ 00000001401c2a50     glew32s:glew.obj
 0003:00016a80       ??_C@_0BK@OOFMMMMC@GL_EXT_conservative_depth?$AA@ 00000001401c2a80     glew32s:glew.obj
 0003:00016aa0       ??_C@_0BD@DBIGFMIC@GL_EXT_convolution?$AA@ 00000001401c2aa0     glew32s:glew.obj
 0003:00016ab8       ??_C@_0BI@LOIOLJBM@GL_EXT_coordinate_frame?$AA@ 00000001401c2ab8     glew32s:glew.obj
 0003:00016ad8       ??_C@_0BC@MAHCCADB@GL_EXT_copy_image?$AA@ 00000001401c2ad8     glew32s:glew.obj
 0003:00016af0       ??_C@_0BE@DFBNEHNH@GL_EXT_copy_texture?$AA@ 00000001401c2af0     glew32s:glew.obj
 0003:00016b08       ??_C@_0BD@DJENAAJK@GL_EXT_cull_vertex?$AA@ 00000001401c2b08     glew32s:glew.obj
 0003:00016b20       ??_C@_0BD@KKBHLOEM@GL_EXT_debug_label?$AA@ 00000001401c2b20     glew32s:glew.obj
 0003:00016b38       ??_C@_0BE@ELFANBPL@GL_EXT_debug_marker?$AA@ 00000001401c2b38     glew32s:glew.obj
 0003:00016b50       ??_C@_0BJ@FCDHADKB@GL_EXT_depth_bounds_test?$AA@ 00000001401c2b50     glew32s:glew.obj
 0003:00016b70       ??_C@_0BL@KMPCDGGG@GL_EXT_direct_state_access?$AA@ 00000001401c2b70     glew32s:glew.obj
 0003:00016b90       ??_C@_0BL@KADAIOH@GL_EXT_discard_framebuffer?$AA@ 00000001401c2b90     glew32s:glew.obj
 0003:00016bb0       ??_C@_0BE@BJBPGHAG@GL_EXT_draw_buffers?$AA@ 00000001401c2bb0     glew32s:glew.obj
 0003:00016bc8       ??_C@_05NMHMKLEC@2?41?40?$AA@ 00000001401c2bc8     glew32s:glew.obj
 0003:00016bd0       ??_C@_0BF@EAKOOCD@GL_EXT_draw_buffers2?$AA@ 00000001401c2bd0     glew32s:glew.obj
 0003:00016bec       ??_C@_01FDFGLJHB@2?$AA@    00000001401c2bec     glew32s:glew.obj
 0003:00016bf0       ??_C@_0BM@INHJKGLE@GL_EXT_draw_buffers_indexed?$AA@ 00000001401c2bf0     glew32s:glew.obj
 0003:00016c14       ??_C@_01HIHLOKLC@1?$AA@    00000001401c2c14     glew32s:glew.obj
 0003:00016c18       ??_C@_0CB@JMPNMGHB@GL_EXT_draw_elements_base_vertex@ 00000001401c2c18     glew32s:glew.obj
 0003:00016c40       ??_C@_01GBGANLPD@0?$AA@    00000001401c2c40     glew32s:glew.obj
 0003:00016c48       ??_C@_0BG@LGPGBHPD@GL_EXT_draw_instanced?$AA@ 00000001401c2c48     glew32s:glew.obj
 0003:00016c68       ??_C@_0BL@BBECEKLJ@GL_EXT_draw_range_elements?$AA@ 00000001401c2c68     glew32s:glew.obj
 0003:00016c88       ??_C@_0BH@MMIDCGAG@GL_EXT_external_buffer?$AA@ 00000001401c2c88     glew32s:glew.obj
 0003:00016ca8       ??_C@_0BD@FAEGEIMC@GL_EXT_float_blend?$AA@ 00000001401c2ca8     glew32s:glew.obj
 0003:00016cc0       ??_C@_0BB@KKBCECGP@GL_EXT_fog_coord?$AA@ 00000001401c2cc0     glew32s:glew.obj
 0003:00016cd8       ??_C@_0BC@HOHKPIIB@GL_EXT_frag_depth?$AA@ 00000001401c2cd8     glew32s:glew.obj
 0003:00016cf0       ??_C@_0BJ@BEINNDMI@GL_EXT_fragment_lighting?$AA@ 00000001401c2cf0     glew32s:glew.obj
 0003:00016d10       ??_C@_0BI@HCGEDMJI@GL_EXT_framebuffer_blit?$AA@ 00000001401c2d10     glew32s:glew.obj
 0003:00016d30       ??_C@_0BP@MBELPLHD@GL_EXT_framebuffer_multisample?$AA@ 00000001401c2d30     glew32s:glew.obj
 0003:00016d58       ??_C@_0CL@EFPJBGDJ@GL_EXT_framebuffer_multisample_b@ 00000001401c2d58     glew32s:glew.obj
 0003:00016d90       ??_C@_0BK@GDONINOA@GL_EXT_framebuffer_object?$AA@ 00000001401c2d90     glew32s:glew.obj
 0003:00016db0       ??_C@_0BI@IENPPHKH@GL_EXT_framebuffer_sRGB?$AA@ 00000001401c2db0     glew32s:glew.obj
 0003:00016dd0       ??_C@_0BL@MCDNNMCP@GL_EXT_geometry_point_size?$AA@ 00000001401c2dd0     glew32s:glew.obj
 0003:00016df0       ??_C@_0BH@PIBJANIH@GL_EXT_geometry_shader?$AA@ 00000001401c2df0     glew32s:glew.obj
 0003:00016e10       ??_C@_0BI@MIAOPMHJ@GL_EXT_geometry_shader4?$AA@ 00000001401c2e10     glew32s:glew.obj
 0003:00016e30       ??_C@_0BO@JOJLOPAH@GL_EXT_gpu_program_parameters?$AA@ 00000001401c2e30     glew32s:glew.obj
 0003:00016e58       ??_C@_0BD@MHBCPECK@GL_EXT_gpu_shader4?$AA@ 00000001401c2e58     glew32s:glew.obj
 0003:00016e70       ??_C@_0BD@NOAJMFGL@GL_EXT_gpu_shader5?$AA@ 00000001401c2e70     glew32s:glew.obj
 0003:00016e88       ??_C@_0BB@NIOJPLHJ@GL_EXT_histogram?$AA@ 00000001401c2e88     glew32s:glew.obj
 0003:00016ea0       ??_C@_0BL@LBKCKHHF@GL_EXT_index_array_formats?$AA@ 00000001401c2ea0     glew32s:glew.obj
 0003:00016ec0       ??_C@_0BC@DODOKKOA@GL_EXT_index_func?$AA@ 00000001401c2ec0     glew32s:glew.obj
 0003:00016ed8       ??_C@_0BG@KIAGJAFD@GL_EXT_index_material?$AA@ 00000001401c2ed8     glew32s:glew.obj
 0003:00016ef8       ??_C@_0BF@HBHKOKKI@GL_EXT_index_texture?$AA@ 00000001401c2ef8     glew32s:glew.obj
 0003:00016f18       ??_C@_0BI@KPDGBABF@GL_EXT_instanced_arrays?$AA@ 00000001401c2f18     glew32s:glew.obj
 0003:00016f38       ??_C@_0BF@COJMPNOE@GL_EXT_light_texture?$AA@ 00000001401c2f38     glew32s:glew.obj
 0003:00016f58       ??_C@_0BI@GDICDALD@GL_EXT_map_buffer_range?$AA@ 00000001401c2f58     glew32s:glew.obj
 0003:00016f78       ??_C@_0BF@HFAFEHHN@GL_EXT_memory_object?$AA@ 00000001401c2f78     glew32s:glew.obj
 0003:00016f98       ??_C@_0BI@ENNONAPO@GL_EXT_memory_object_fd?$AA@ 00000001401c2f98     glew32s:glew.obj
 0003:00016fb8       ??_C@_0BL@HPLHPOFM@GL_EXT_memory_object_win32?$AA@ 00000001401c2fb8     glew32s:glew.obj
 0003:00016fd8       ??_C@_0BG@CJEJOJBO@GL_EXT_misc_attribute?$AA@ 00000001401c2fd8     glew32s:glew.obj
 0003:00016ff8       ??_C@_0BJ@BEDGNCEH@GL_EXT_multi_draw_arrays?$AA@ 00000001401c2ff8     glew32s:glew.obj
 0003:00017018       ??_C@_0BL@KMBECDDA@GL_EXT_multi_draw_indirect?$AA@ 00000001401c3018     glew32s:glew.obj
 0003:00017038       ??_C@_0BJ@JLOMGOLP@GL_EXT_multiple_textures?$AA@ 00000001401c3038     glew32s:glew.obj
 0003:00017058       ??_C@_0BD@NAAAMEDB@GL_EXT_multisample?$AA@ 00000001401c3058     glew32s:glew.obj
 0003:00017070       ??_C@_0CB@HHNMELNP@GL_EXT_multisample_compatibility@ 00000001401c3070     glew32s:glew.obj
 0003:00017098       ??_C@_0CG@NJOILHFI@GL_EXT_multisampled_render_to_te@ 00000001401c3098     glew32s:glew.obj
 0003:000170c8       ??_C@_0CH@IIBJGFAA@GL_EXT_multisampled_render_to_te@ 00000001401c30c8     glew32s:glew.obj
 0003:000170f8       ??_C@_0BO@CFPPKLNC@GL_EXT_multiview_draw_buffers?$AA@ 00000001401c30f8     glew32s:glew.obj
 0003:00017120       ??_C@_0BM@EBAGAGKL@GL_EXT_packed_depth_stencil?$AA@ 00000001401c3120     glew32s:glew.obj
 0003:00017148       ??_C@_0BE@BBEIBKND@GL_EXT_packed_float?$AA@ 00000001401c3148     glew32s:glew.obj
 0003:00017160       ??_C@_0BF@INPHAL@GL_EXT_packed_pixels?$AA@ 00000001401c3160     glew32s:glew.obj
 0003:00017180       ??_C@_0BI@OJEGBCEK@GL_EXT_paletted_texture?$AA@ 00000001401c3180     glew32s:glew.obj
 0003:000171a0       ??_C@_0BL@HIIPPLEN@GL_EXT_pixel_buffer_object?$AA@ 00000001401c31a0     glew32s:glew.obj
 0003:000171c0       ??_C@_0BH@GFMFFLC@GL_EXT_pixel_transform?$AA@ 00000001401c31c0     glew32s:glew.obj
 0003:000171e0       ??_C@_0CD@HMHELBCP@GL_EXT_pixel_transform_color_tab@ 00000001401c31e0     glew32s:glew.obj
 0003:00017210       ??_C@_0BI@GCJDFKGN@GL_EXT_point_parameters?$AA@ 00000001401c3210     glew32s:glew.obj
 0003:00017230       ??_C@_0BG@GEKEEJAM@GL_EXT_polygon_offset?$AA@ 00000001401c3230     glew32s:glew.obj
 0003:00017250       ??_C@_0BM@EEGDNIOI@GL_EXT_polygon_offset_clamp?$AA@ 00000001401c3250     glew32s:glew.obj
 0003:00017278       ??_C@_0BL@KNIBFIEF@GL_EXT_post_depth_coverage?$AA@ 00000001401c3278     glew32s:glew.obj
 0003:00017298       ??_C@_0BI@BEAPECOC@GL_EXT_provoking_vertex?$AA@ 00000001401c3298     glew32s:glew.obj
 0003:000172b8       ??_C@_0BC@PLAILEDB@GL_EXT_pvrtc_sRGB?$AA@ 00000001401c32b8     glew32s:glew.obj
 0003:000172d0       ??_C@_0BK@GLODIHMN@GL_EXT_raster_multisample?$AA@ 00000001401c32d0     glew32s:glew.obj
 0003:000172f0       ??_C@_0BI@GKIBDOLD@GL_EXT_read_format_bgra?$AA@ 00000001401c32f0     glew32s:glew.obj
 0003:00017310       ??_C@_0BE@FOOCMOLI@GL_EXT_render_snorm?$AA@ 00000001401c3310     glew32s:glew.obj
 0003:00017328       ??_C@_0BG@MLFGMAPO@GL_EXT_rescale_normal?$AA@ 00000001401c3328     glew32s:glew.obj
 0003:00017348       ??_C@_0M@EPEADEL@GL_EXT_sRGB?$AA@ 00000001401c3348     glew32s:glew.obj
 0003:00017358       ??_C@_0BK@PMOELEHF@GL_EXT_sRGB_write_control?$AA@ 00000001401c3358     glew32s:glew.obj
 0003:00017378       ??_C@_0BE@LFJKJDID@GL_EXT_scene_marker?$AA@ 00000001401c3378     glew32s:glew.obj
 0003:00017390       ??_C@_0BH@DLNOEEKJ@GL_EXT_secondary_color?$AA@ 00000001401c3390     glew32s:glew.obj
 0003:000173b0       ??_C@_0BB@LJFONNPO@GL_EXT_semaphore?$AA@ 00000001401c33b0     glew32s:glew.obj
 0003:000173c8       ??_C@_0BE@NJLKJPAH@GL_EXT_semaphore_fd?$AA@ 00000001401c33c8     glew32s:glew.obj
 0003:000173e0       ??_C@_0BH@PIJMEABM@GL_EXT_semaphore_win32?$AA@ 00000001401c33e0     glew32s:glew.obj
 0003:00017400       ??_C@_0BP@KOANOKOE@GL_EXT_separate_shader_objects?$AA@ 00000001401c3400     glew32s:glew.obj
 0003:00017428       ??_C@_0BP@CMBLOBPA@GL_EXT_separate_specular_color?$AA@ 00000001401c3428     glew32s:glew.obj
 0003:00017450       ??_C@_0CA@LNGLFGJK@GL_EXT_shader_framebuffer_fetch?$AA@ 00000001401c3450     glew32s:glew.obj
 0003:00017478       ??_C@_0BJ@MHHBOJHD@GL_EXT_shader_group_vote?$AA@ 00000001401c3478     glew32s:glew.obj
 0003:00017498       ??_C@_0CD@DEHDKDKM@GL_EXT_shader_image_load_formatt@ 00000001401c3498     glew32s:glew.obj
 0003:000174c8       ??_C@_0BP@BLBIDGOK@GL_EXT_shader_image_load_store?$AA@ 00000001401c34c8     glew32s:glew.obj
 0003:000174f0       ??_C@_0CD@NJLKEEGN@GL_EXT_shader_implicit_conversio@ 00000001401c34f0     glew32s:glew.obj
 0003:00017520       ??_C@_0BK@HEKIMGCC@GL_EXT_shader_integer_mix?$AA@ 00000001401c3520     glew32s:glew.obj
 0003:00017540       ??_C@_0BI@FNBNFNE@GL_EXT_shader_io_blocks?$AA@ 00000001401c3540     glew32s:glew.obj
 0003:00017560       ??_C@_0CP@OIKCHNNE@GL_EXT_shader_non_constant_globa@ 00000001401c3560     glew32s:glew.obj
 0003:00017598       ??_C@_0CC@LOIBPOBL@GL_EXT_shader_pixel_local_storag@ 00000001401c3598     glew32s:glew.obj
 0003:000175c0       ??_C@_0CD@GHKLBMGD@GL_EXT_shader_pixel_local_storag@ 00000001401c35c0     glew32s:glew.obj
 0003:000175f0       ??_C@_0BK@LMMLPLHH@GL_EXT_shader_texture_lod?$AA@ 00000001401c35f0     glew32s:glew.obj
 0003:00017610       ??_C@_0BE@GGNPMCKJ@GL_EXT_shadow_funcs?$AA@ 00000001401c3610     glew32s:glew.obj
 0003:00017628       ??_C@_0BH@COCKNPCO@GL_EXT_shadow_samplers?$AA@ 00000001401c3628     glew32s:glew.obj
 0003:00017648       ??_C@_0BO@IIBPGOJH@GL_EXT_shared_texture_palette?$AA@ 00000001401c3648     glew32s:glew.obj
 0003:00017670       ??_C@_0BG@PENNDPA@GL_EXT_sparse_texture?$AA@ 00000001401c3670     glew32s:glew.obj
 0003:00017690       ??_C@_0BH@FAMCOLLO@GL_EXT_sparse_texture2?$AA@ 00000001401c3690     glew32s:glew.obj
 0003:000176b0       ??_C@_0BJ@DIMHMNPE@GL_EXT_stencil_clear_tag?$AA@ 00000001401c36b0     glew32s:glew.obj
 0003:000176d0       ??_C@_0BI@CPMDBHLG@GL_EXT_stencil_two_side?$AA@ 00000001401c36d0     glew32s:glew.obj
 0003:000176f0       ??_C@_0BE@LFGLIENC@GL_EXT_stencil_wrap?$AA@ 00000001401c36f0     glew32s:glew.obj
 0003:00017708       ??_C@_0BC@CLMEPFHP@GL_EXT_subtexture?$AA@ 00000001401c3708     glew32s:glew.obj
 0003:00017720       ??_C@_0P@ECGABOAK@GL_EXT_texture?$AA@ 00000001401c3720     glew32s:glew.obj
 0003:00017738       ??_C@_0BB@LCNIEGEB@GL_EXT_texture3D?$AA@ 00000001401c3738     glew32s:glew.obj
 0003:00017750       ??_C@_0BF@NFIKFJJJ@GL_EXT_texture_array?$AA@ 00000001401c3750     glew32s:glew.obj
 0003:00017770       ??_C@_0BN@NGDAHMPO@GL_EXT_texture_buffer_object?$AA@ 00000001401c3770     glew32s:glew.obj
 0003:00017798       ??_C@_0CM@LEMOBDBF@GL_EXT_texture_compression_astc_@ 00000001401c3798     glew32s:glew.obj
 0003:000177d0       ??_C@_0DD@BEGNALNK@GL_EXT_texture_compression_astc_@ 00000001401c37d0     glew32s:glew.obj
 0003:00017810       ??_C@_0CA@ONOCCHML@GL_EXT_texture_compression_bptc?$AA@ 00000001401c3810     glew32s:glew.obj
 0003:00017838       ??_C@_0CA@CPJLMFFC@GL_EXT_texture_compression_dxt1?$AA@ 00000001401c3838     glew32s:glew.obj
 0003:00017860       ??_C@_0CA@LKHHKJFA@GL_EXT_texture_compression_latc?$AA@ 00000001401c3860     glew32s:glew.obj
 0003:00017888       ??_C@_0CA@EAMMNPGP@GL_EXT_texture_compression_rgtc?$AA@ 00000001401c3888     glew32s:glew.obj
 0003:000178b0       ??_C@_0CA@DJMDGOCK@GL_EXT_texture_compression_s3tc?$AA@ 00000001401c38b0     glew32s:glew.obj
 0003:000178d8       ??_C@_0BI@KNENNNFF@GL_EXT_texture_cube_map?$AA@ 00000001401c38d8     glew32s:glew.obj
 0003:000178f8       ??_C@_0BO@HGABJBMO@GL_EXT_texture_cube_map_array?$AA@ 00000001401c38f8     glew32s:glew.obj
 0003:00017920       ??_C@_0BK@BAOPHLFB@GL_EXT_texture_edge_clamp?$AA@ 00000001401c3920     glew32s:glew.obj
 0003:00017940       ??_C@_0BD@JLNECHE@GL_EXT_texture_env?$AA@ 00000001401c3940     glew32s:glew.obj
 0003:00017958       ??_C@_0BH@MIGCADBH@GL_EXT_texture_env_add?$AA@ 00000001401c3958     glew32s:glew.obj
 0003:00017978       ??_C@_0BL@JFMOHFPL@GL_EXT_texture_env_combine?$AA@ 00000001401c3978     glew32s:glew.obj
 0003:00017998       ??_C@_0BI@HELHCJPF@GL_EXT_texture_env_dot3?$AA@ 00000001401c3998     glew32s:glew.obj
 0003:000179b8       ??_C@_0CC@BCHFGKCK@GL_EXT_texture_filter_anisotropi@ 00000001401c39b8     glew32s:glew.obj
 0003:000179e0       ??_C@_0BN@JPNBINAI@GL_EXT_texture_filter_minmax?$AA@ 00000001401c39e0     glew32s:glew.obj
 0003:00017a08       ??_C@_0BP@DBMLMAHN@GL_EXT_texture_format_BGRA8888?$AA@ 00000001401c3a08     glew32s:glew.obj
 0003:00017a30       ??_C@_0BH@BKFJHEI@GL_EXT_texture_integer?$AA@ 00000001401c3a30     glew32s:glew.obj
 0003:00017a50       ??_C@_0BI@KEEAJGDF@GL_EXT_texture_lod_bias?$AA@ 00000001401c3a50     glew32s:glew.obj
 0003:00017a70       ??_C@_0BM@EKJOCDLJ@GL_EXT_texture_mirror_clamp?$AA@ 00000001401c3a70     glew32s:glew.obj
 0003:00017a98       ??_C@_0BG@HNEFDCKA@GL_EXT_texture_norm16?$AA@ 00000001401c3a98     glew32s:glew.obj
 0003:00017ab8       ??_C@_0BG@FPPPAJDP@GL_EXT_texture_object?$AA@ 00000001401c3ab8     glew32s:glew.obj
 0003:00017ad8       ??_C@_0BO@MGIKHAJP@GL_EXT_texture_perturb_normal?$AA@ 00000001401c3ad8     glew32s:glew.obj
 0003:00017b00       ??_C@_0BJ@CDAOFBMC@GL_EXT_texture_rectangle?$AA@ 00000001401c3b00     glew32s:glew.obj
 0003:00017b20       ??_C@_0BC@HKMDIFLJ@GL_EXT_texture_rg?$AA@ 00000001401c3b20     glew32s:glew.obj
 0003:00017b38       ??_C@_0BE@OFNKIPHM@GL_EXT_texture_sRGB?$AA@ 00000001401c3b38     glew32s:glew.obj
 0003:00017b50       ??_C@_0BH@GMDPHHEO@GL_EXT_texture_sRGB_R8?$AA@ 00000001401c3b50     glew32s:glew.obj
 0003:00017b70       ??_C@_0BI@NJDKMAHG@GL_EXT_texture_sRGB_RG8?$AA@ 00000001401c3b70     glew32s:glew.obj
 0003:00017b90       ??_C@_0BL@KHIPMLAD@GL_EXT_texture_sRGB_decode?$AA@ 00000001401c3b90     glew32s:glew.obj
 0003:00017bb0       ??_C@_0BP@HHNAOEFE@GL_EXT_texture_shared_exponent?$AA@ 00000001401c3bb0     glew32s:glew.obj
 0003:00017bd8       ??_C@_0BF@KMDJMFLE@GL_EXT_texture_snorm?$AA@ 00000001401c3bd8     glew32s:glew.obj
 0003:00017bf8       ??_C@_0BH@LHMNMPMF@GL_EXT_texture_storage?$AA@ 00000001401c3bf8     glew32s:glew.obj
 0003:00017c18       ??_C@_0BH@OLEBECPL@GL_EXT_texture_swizzle?$AA@ 00000001401c3c18     glew32s:glew.obj
 0003:00017c38       ??_C@_0CD@DMBIGDLE@GL_EXT_texture_type_2_10_10_10_R@ 00000001401c3c38     glew32s:glew.obj
 0003:00017c68       ??_C@_0BE@JDOICPJE@GL_EXT_texture_view?$AA@ 00000001401c3c68     glew32s:glew.obj
 0003:00017c80       ??_C@_0BD@FMKGKMJL@GL_EXT_timer_query?$AA@ 00000001401c3c80     glew32s:glew.obj
 0003:00017c98       ??_C@_0BK@GKBBHBBG@GL_EXT_transform_feedback?$AA@ 00000001401c3c98     glew32s:glew.obj
 0003:00017cb8       ??_C@_0BH@IGCCGBHM@GL_EXT_unpack_subimage?$AA@ 00000001401c3cb8     glew32s:glew.obj
 0003:00017cd8       ??_C@_0BE@PFGKPDCP@GL_EXT_vertex_array?$AA@ 00000001401c3cd8     glew32s:glew.obj
 0003:00017cf0       ??_C@_0BJ@GIIBONPP@GL_EXT_vertex_array_bgra?$AA@ 00000001401c3cf0     glew32s:glew.obj
 0003:00017d10       ??_C@_0BL@NDFANHJI@GL_EXT_vertex_array_setXXX?$AA@ 00000001401c3d10     glew32s:glew.obj
 0003:00017d30       ??_C@_0BL@PDLDALDJ@GL_EXT_vertex_attrib_64bit?$AA@ 00000001401c3d30     glew32s:glew.obj
 0003:00017d50       ??_C@_0BF@OBIDKHLA@GL_EXT_vertex_shader?$AA@ 00000001401c3d50     glew32s:glew.obj
 0003:00017d70       ??_C@_0BI@FHAFAFPN@GL_EXT_vertex_weighting?$AA@ 00000001401c3d70     glew32s:glew.obj
 0003:00017d90       ??_C@_0BJ@KGHCCHFC@GL_EXT_win32_keyed_mutex?$AA@ 00000001401c3d90     glew32s:glew.obj
 0003:00017db0       ??_C@_0BJ@HKAGNECI@GL_EXT_window_rectangles?$AA@ 00000001401c3db0     glew32s:glew.obj
 0003:00017dd0       ??_C@_0BH@KPBHOHAF@GL_EXT_x11_sync_object?$AA@ 00000001401c3dd0     glew32s:glew.obj
 0003:00017df0       ??_C@_0BM@IIPBBPMG@GL_GREMEDY_frame_terminator?$AA@ 00000001401c3df0     glew32s:glew.obj
 0003:00017e18       ??_C@_0BJ@MCEHFJIH@GL_GREMEDY_string_marker?$AA@ 00000001401c3e18     glew32s:glew.obj
 0003:00017e38       ??_C@_0BP@NPGEDPGJ@GL_HP_convolution_border_modes?$AA@ 00000001401c3e38     glew32s:glew.obj
 0003:00017e60       ??_C@_0BG@DEGPKEAF@GL_HP_image_transform?$AA@ 00000001401c3e60     glew32s:glew.obj
 0003:00017e80       ??_C@_0BF@FBOKPIHP@GL_HP_occlusion_test?$AA@ 00000001401c3e80     glew32s:glew.obj
 0003:00017ea0       ??_C@_0BH@CDOAECOM@GL_HP_texture_lighting?$AA@ 00000001401c3ea0     glew32s:glew.obj
 0003:00017ec0       ??_C@_0BD@HFOGPCCH@GL_IBM_cull_vertex?$AA@ 00000001401c3ec0     glew32s:glew.obj
 0003:00017ed8       ??_C@_0BN@JOBNCFH@GL_IBM_multimode_draw_arrays?$AA@ 00000001401c3ed8     glew32s:glew.obj
 0003:00017f00       ??_C@_0BG@OFHNGGEN@GL_IBM_rasterpos_clip?$AA@ 00000001401c3f00     glew32s:glew.obj
 0003:00017f20       ??_C@_0BD@IHLAMDEK@GL_IBM_static_data?$AA@ 00000001401c3f20     glew32s:glew.obj
 0003:00017f38       ??_C@_0BP@JFEILOCJ@GL_IBM_texture_mirrored_repeat?$AA@ 00000001401c3f38     glew32s:glew.obj
 0003:00017f60       ??_C@_0BK@MBNOECMK@GL_IBM_vertex_array_lists?$AA@ 00000001401c3f60     glew32s:glew.obj
 0003:00017f80       ??_C@_0BE@LBGOEBKG@GL_INGR_color_clamp?$AA@ 00000001401c3f80     glew32s:glew.obj
 0003:00017f98       ??_C@_0BH@JHPNMIIP@GL_INGR_interlace_read?$AA@ 00000001401c3f98     glew32s:glew.obj
 0003:00017fb8       ??_C@_0CE@BPLKKEKN@GL_INTEL_conservative_rasterizat@ 00000001401c3fb8     glew32s:glew.obj
 0003:00017fe8       ??_C@_0CC@LEDLFNEA@GL_INTEL_fragment_shader_orderin@ 00000001401c3fe8     glew32s:glew.obj
 0003:00018010       ??_C@_0BK@GOFHDBAL@GL_INTEL_framebuffer_CMAA?$AA@ 00000001401c4010     glew32s:glew.obj
 0003:00018030       ??_C@_0BF@FDAEHEHG@GL_INTEL_map_texture?$AA@ 00000001401c4030     glew32s:glew.obj
 0003:00018050       ??_C@_0BJ@LDMGHMAI@GL_INTEL_parallel_arrays?$AA@ 00000001401c4050     glew32s:glew.obj
 0003:00018070       ??_C@_0BL@ONHEKAPC@GL_INTEL_performance_query?$AA@ 00000001401c4070     glew32s:glew.obj
 0003:00018090       ??_C@_0BJ@HKIOJCEG@GL_INTEL_texture_scissor?$AA@ 00000001401c4090     glew32s:glew.obj
 0003:000180b0       ??_C@_0BP@LAOJMLJD@GL_KHR_blend_equation_advanced?$AA@ 00000001401c40b0     glew32s:glew.obj
 0003:000180d8       ??_C@_0CI@BKIMHFLF@GL_KHR_blend_equation_advanced_c@ 00000001401c40d8     glew32s:glew.obj
 0003:00018108       ??_C@_0BN@FNDGKECA@GL_KHR_context_flush_control?$AA@ 00000001401c4108     glew32s:glew.obj
 0003:00018130       ??_C@_0N@EMKBAJC@GL_KHR_debug?$AA@ 00000001401c4130     glew32s:glew.obj
 0003:00018140       ??_C@_0BA@DGNMOCLG@GL_KHR_no_error?$AA@ 00000001401c4140     glew32s:glew.obj
 0003:00018158       ??_C@_0BP@DNJJFOHK@GL_KHR_parallel_shader_compile?$AA@ 00000001401c4158     glew32s:glew.obj
 0003:00018180       ??_C@_0CF@CMDIPHFF@GL_KHR_robust_buffer_access_beha@ 00000001401c4180     glew32s:glew.obj
 0003:000181b0       ??_C@_0BC@CJJHKOBH@GL_KHR_robustness?$AA@ 00000001401c41b0     glew32s:glew.obj
 0003:000181c8       ??_C@_0CE@GOHKANGN@GL_KHR_texture_compression_astc_@ 00000001401c41c8     glew32s:glew.obj
 0003:000181f8       ??_C@_0CE@OBBIJKDK@GL_KHR_texture_compression_astc_@ 00000001401c41f8     glew32s:glew.obj
 0003:00018228       ??_C@_0CK@HFHBHIBP@GL_KHR_texture_compression_astc_@ 00000001401c4228     glew32s:glew.obj
 0003:00018260       ??_C@_0BF@OBAENHIG@GL_KTX_buffer_region?$AA@ 00000001401c4260     glew32s:glew.obj
 0003:00018280       ??_C@_0BH@NGEPILKE@GL_MESAX_texture_stack?$AA@ 00000001401c4280     glew32s:glew.obj
 0003:000182a0       ??_C@_0BE@KBNHNMI@GL_MESA_pack_invert?$AA@ 00000001401c42a0     glew32s:glew.obj
 0003:000182b8       ??_C@_0BH@BJFHALJP@GL_MESA_resize_buffers?$AA@ 00000001401c42b8     glew32s:glew.obj
 0003:000182d8       ??_C@_0CB@NHNKMEHA@GL_MESA_shader_integer_functions@ 00000001401c42d8     glew32s:glew.obj
 0003:00018300       ??_C@_0BD@GECBEGOD@GL_MESA_window_pos?$AA@ 00000001401c4300     glew32s:glew.obj
 0003:00018318       ??_C@_0BG@FJHFIHCP@GL_MESA_ycbcr_texture?$AA@ 00000001401c4318     glew32s:glew.obj
 0003:00018338       ??_C@_0DC@LGECAAME@GL_NVX_blend_equation_advanced_m@ 00000001401c4338     glew32s:glew.obj
 0003:00018378       ??_C@_0BK@KKCPFBIB@GL_NVX_conditional_render?$AA@ 00000001401c4378     glew32s:glew.obj
 0003:00018398       ??_C@_0BH@PLDKIMGD@GL_NVX_gpu_memory_info?$AA@ 00000001401c4398     glew32s:glew.obj
 0003:000183b8       ??_C@_0BM@OGOBCLGJ@GL_NVX_linked_gpu_multicast?$AA@ 00000001401c43b8     glew32s:glew.obj
 0003:000183e0       ??_C@_0BI@GLNGHIPJ@GL_NV_3dvision_settings?$AA@ 00000001401c43e0     glew32s:glew.obj
 0003:00018400       ??_C@_0CD@DGGIPLLM@GL_NV_EGL_stream_consumer_extern@ 00000001401c4400     glew32s:glew.obj
 0003:00018430       ??_C@_0CH@BCGAPLPH@GL_NV_alpha_to_coverage_dither_c@ 00000001401c4430     glew32s:glew.obj
 0003:00018460       ??_C@_09GBKNNOKE@GL_NV_bgr?$AA@ 00000001401c4460     glew32s:glew.obj
 0003:00018470       ??_C@_0CD@PLNLDNIA@GL_NV_bindless_multi_draw_indire@ 00000001401c4470     glew32s:glew.obj
 0003:000184a0       ??_C@_0CJ@BKKBMEAG@GL_NV_bindless_multi_draw_indire@ 00000001401c44a0     glew32s:glew.obj
 0003:000184d8       ??_C@_0BH@CMMMAADP@GL_NV_bindless_texture?$AA@ 00000001401c44d8     glew32s:glew.obj
 0003:000184f8       ??_C@_0BO@CKBJMIKO@GL_NV_blend_equation_advanced?$AA@ 00000001401c44f8     glew32s:glew.obj
 0003:00018520       ??_C@_0CH@JDPOFKCP@GL_NV_blend_equation_advanced_co@ 00000001401c4520     glew32s:glew.obj
 0003:00018550       ??_C@_0BK@KGHFBKDE@GL_NV_blend_minmax_factor?$AA@ 00000001401c4550     glew32s:glew.obj
 0003:00018570       ??_C@_0BD@BLFKGBAP@GL_NV_blend_square?$AA@ 00000001401c4570     glew32s:glew.obj
 0003:00018588       ??_C@_0BL@LAJPDOAL@GL_NV_clip_space_w_scaling?$AA@ 00000001401c4588     glew32s:glew.obj
 0003:000185a8       ??_C@_0BD@IGNGHEKN@GL_NV_command_list?$AA@ 00000001401c45a8     glew32s:glew.obj
 0003:000185c0       ??_C@_0BH@BBLILMGF@GL_NV_compute_program5?$AA@ 00000001401c45c0     glew32s:glew.obj
 0003:000185e0       ??_C@_0BJ@JHPMACKB@GL_NV_conditional_render?$AA@ 00000001401c45e0     glew32s:glew.obj
 0003:00018600       ??_C@_0BK@BLLAEBE@GL_NV_conservative_raster?$AA@ 00000001401c4600     glew32s:glew.obj
 0003:00018620       ??_C@_0CB@JPIFCGOB@GL_NV_conservative_raster_dilate@ 00000001401c4620     glew32s:glew.obj
 0003:00018648       ??_C@_0CN@BILLGIMK@GL_NV_conservative_raster_pre_sn@ 00000001401c4648     glew32s:glew.obj
 0003:00018680       ??_C@_0BC@DNFCNNGD@GL_NV_copy_buffer?$AA@ 00000001401c4680     glew32s:glew.obj
 0003:00018698       ??_C@_0BK@IGFAMMKB@GL_NV_copy_depth_to_color?$AA@ 00000001401c4698     glew32s:glew.obj
 0003:000186b8       ??_C@_0BB@JCABNKHL@GL_NV_copy_image?$AA@ 00000001401c46b8     glew32s:glew.obj
 0003:000186d0       ??_C@_0BF@CEMDMNFF@GL_NV_deep_texture3D?$AA@ 00000001401c46d0     glew32s:glew.obj
 0003:000186f0       ??_C@_0BJ@HPHPLNK@GL_NV_depth_buffer_float?$AA@ 00000001401c46f0     glew32s:glew.obj
 0003:00018710       ??_C@_0BC@CCFLOHGN@GL_NV_depth_clamp?$AA@ 00000001401c4710     glew32s:glew.obj
 0003:00018728       ??_C@_0BM@JNFMOFMO@GL_NV_depth_range_unclamped?$AA@ 00000001401c4728     glew32s:glew.obj
 0003:00018750       ??_C@_0BD@EOOBIJPI@GL_NV_draw_buffers?$AA@ 00000001401c4750     glew32s:glew.obj
 0003:00018768       ??_C@_0BF@HLHLEDEB@GL_NV_draw_instanced?$AA@ 00000001401c4768     glew32s:glew.obj
 0003:00018788       ??_C@_0BD@PMJGGINL@GL_NV_draw_texture?$AA@ 00000001401c4788     glew32s:glew.obj
 0003:000187a0       ??_C@_0BI@KLBEDMIG@GL_NV_draw_vulkan_image?$AA@ 00000001401c47a0     glew32s:glew.obj
 0003:000187c0       ??_C@_0BB@CCCLGBFE@GL_NV_evaluators?$AA@ 00000001401c47c0     glew32s:glew.obj
 0003:000187d8       ??_C@_0BP@NGPCPLFJ@GL_NV_explicit_attrib_location?$AA@ 00000001401c47d8     glew32s:glew.obj
 0003:00018800       ??_C@_0BL@DEECKFDI@GL_NV_explicit_multisample?$AA@ 00000001401c4800     glew32s:glew.obj
 0003:00018820       ??_C@_0BM@LJJDFCFH@GL_NV_fbo_color_attachments?$AA@ 00000001401c4820     glew32s:glew.obj
 0003:00018848       ??_C@_0M@CIFPEFJ@GL_NV_fence?$AA@ 00000001401c4848     glew32s:glew.obj
 0003:00018858       ??_C@_0BF@HINJJEKN@GL_NV_fill_rectangle?$AA@ 00000001401c4858     glew32s:glew.obj
 0003:00018878       ??_C@_0BD@JIMCHLAF@GL_NV_float_buffer?$AA@ 00000001401c4878     glew32s:glew.obj
 0003:00018890       ??_C@_0BD@LAKIKKLE@GL_NV_fog_distance?$AA@ 00000001401c4890     glew32s:glew.obj
 0003:000188a8       ??_C@_0CB@PBLCOHGE@GL_NV_fragment_coverage_to_color@ 00000001401c48a8     glew32s:glew.obj
 0003:000188d0       ??_C@_0BH@MFDHEDPG@GL_NV_fragment_program?$AA@ 00000001401c48d0     glew32s:glew.obj
 0003:000188f0       ??_C@_0BI@LJGLDEBL@GL_NV_fragment_program2?$AA@ 00000001401c48f0     glew32s:glew.obj
 0003:00018910       ??_C@_0BI@OPDBJDJN@GL_NV_fragment_program4?$AA@ 00000001401c4910     glew32s:glew.obj
 0003:00018930       ??_C@_0BO@NEKDOJJG@GL_NV_fragment_program_option?$AA@ 00000001401c4930     glew32s:glew.obj
 0003:00018958       ??_C@_0CA@IBMFHLGM@GL_NV_fragment_shader_interlock?$AA@ 00000001401c4958     glew32s:glew.obj
 0003:00018980       ??_C@_0BH@MIJBKIMC@GL_NV_framebuffer_blit?$AA@ 00000001401c4980     glew32s:glew.obj
 0003:000189a0       ??_C@_0CA@OEFMOHFK@GL_NV_framebuffer_mixed_samples?$AA@ 00000001401c49a0     glew32s:glew.obj
 0003:000189c8       ??_C@_0BO@DCACGIAM@GL_NV_framebuffer_multisample?$AA@ 00000001401c49c8     glew32s:glew.obj
 0003:000189f0       ??_C@_0CH@JNDGDHFA@GL_NV_framebuffer_multisample_co@ 00000001401c49f0     glew32s:glew.obj
 0003:00018a20       ??_C@_0BL@OBNBFFGG@GL_NV_generate_mipmap_sRGB?$AA@ 00000001401c4a20     glew32s:glew.obj
 0003:00018a40       ??_C@_0BI@OIGDMHOE@GL_NV_geometry_program4?$AA@ 00000001401c4a40     glew32s:glew.obj
 0003:00018a60       ??_C@_0BH@HCPLGICD@GL_NV_geometry_shader4?$AA@ 00000001401c4a60     glew32s:glew.obj
 0003:00018a80       ??_C@_0CC@NOHELHJI@GL_NV_geometry_shader_passthroug@ 00000001401c4a80     glew32s:glew.obj
 0003:00018aa8       ??_C@_0BE@NMKPGKIK@GL_NV_gpu_multicast?$AA@ 00000001401c4aa8     glew32s:glew.obj
 0003:00018ac0       ??_C@_0BD@MGPEHICC@GL_NV_gpu_program4?$AA@ 00000001401c4ac0     glew32s:glew.obj
 0003:00018ad8       ??_C@_0BD@NPOPEJGD@GL_NV_gpu_program5?$AA@ 00000001401c4ad8     glew32s:glew.obj
 0003:00018af0       ??_C@_0CA@KLFOEKPC@GL_NV_gpu_program5_mem_extended?$AA@ 00000001401c4af0     glew32s:glew.obj
 0003:00018b18       ??_C@_0BH@NGLMKKFM@GL_NV_gpu_program_fp64?$AA@ 00000001401c4b18     glew32s:glew.obj
 0003:00018b38       ??_C@_0BC@EIFCBOBP@GL_NV_gpu_shader5?$AA@ 00000001401c4b38     glew32s:glew.obj
 0003:00018b50       ??_C@_0BB@DLDLEMJK@GL_NV_half_float?$AA@ 00000001401c4b50     glew32s:glew.obj
 0003:00018b68       ??_C@_0BE@BFJGNFDK@GL_NV_image_formats?$AA@ 00000001401c4b68     glew32s:glew.obj
 0003:00018b80       ??_C@_0BH@BFMDIEEP@GL_NV_instanced_arrays?$AA@ 00000001401c4b80     glew32s:glew.obj
 0003:00018ba0       ??_C@_0CC@JDEMGGLH@GL_NV_internalformat_sample_quer@ 00000001401c4ba0     glew32s:glew.obj
 0003:00018bc8       ??_C@_0BJ@LEONBEFL@GL_NV_light_max_exponent?$AA@ 00000001401c4bc8     glew32s:glew.obj
 0003:00018be8       ??_C@_0BL@GPGMPJDG@GL_NV_multisample_coverage?$AA@ 00000001401c4be8     glew32s:glew.obj
 0003:00018c08       ??_C@_0BO@CFHIAJML@GL_NV_multisample_filter_hint?$AA@ 00000001401c4c08     glew32s:glew.obj
 0003:00018c30       ??_C@_0BK@LBBMCIOL@GL_NV_non_square_matrices?$AA@ 00000001401c4c30     glew32s:glew.obj
 0003:00018c50       ??_C@_0BG@OMGEIBLM@GL_NV_occlusion_query?$AA@ 00000001401c4c50     glew32s:glew.obj
 0003:00018c70       ??_C@_0BE@ECPHMNFN@GL_NV_pack_subimage?$AA@ 00000001401c4c70     glew32s:glew.obj
 0003:00018c88       ??_C@_0BL@FNNDLGCL@GL_NV_packed_depth_stencil?$AA@ 00000001401c4c88     glew32s:glew.obj
 0003:00018ca8       ??_C@_0BD@EGLGPECN@GL_NV_packed_float?$AA@ 00000001401c4ca8     glew32s:glew.obj
 0003:00018cc0       ??_C@_0BK@JAJMBEBB@GL_NV_packed_float_linear?$AA@ 00000001401c4cc0     glew32s:glew.obj
 0003:00018ce0       ??_C@_0BO@BBOEIKNL@GL_NV_parameter_buffer_object?$AA@ 00000001401c4ce0     glew32s:glew.obj
 0003:00018d08       ??_C@_0BP@PMGALLKH@GL_NV_parameter_buffer_object2?$AA@ 00000001401c4d08     glew32s:glew.obj
 0003:00018d30       ??_C@_0BF@NDCNPPLL@GL_NV_path_rendering?$AA@ 00000001401c4d30     glew32s:glew.obj
 0003:00018d50       ??_C@_0CB@FFIJHPNJ@GL_NV_path_rendering_shared_edge@ 00000001401c4d50     glew32s:glew.obj
 0003:00018d78       ??_C@_0BK@MBFOBJBM@GL_NV_pixel_buffer_object?$AA@ 00000001401c4d78     glew32s:glew.obj
 0003:00018d98       ??_C@_0BH@OCDMKOAK@GL_NV_pixel_data_range?$AA@ 00000001401c4d98     glew32s:glew.obj
 0003:00018db8       ??_C@_0BG@GJNLHEF@GL_NV_platform_binary?$AA@ 00000001401c4db8     glew32s:glew.obj
 0003:00018dd8       ??_C@_0BD@KGAACLDA@GL_NV_point_sprite?$AA@ 00000001401c4dd8     glew32s:glew.obj
 0003:00018df0       ??_C@_0BD@CJKLIGDI@GL_NV_polygon_mode?$AA@ 00000001401c4df0     glew32s:glew.obj
 0003:00018e08       ??_C@_0BE@FOMHCOKE@GL_NV_present_video?$AA@ 00000001401c4e08     glew32s:glew.obj
 0003:00018e20       ??_C@_0BI@PBNGCPPL@GL_NV_primitive_restart?$AA@ 00000001401c4e20     glew32s:glew.obj
 0003:00018e40       ??_C@_0BB@HJNLCIPA@GL_NV_read_depth?$AA@ 00000001401c4e40     glew32s:glew.obj
 0003:00018e58       ??_C@_0BJ@MBPHDKCD@GL_NV_read_depth_stencil?$AA@ 00000001401c4e58     glew32s:glew.obj
 0003:00018e78       ??_C@_0BD@LGNKNANK@GL_NV_read_stencil?$AA@ 00000001401c4e78     glew32s:glew.obj
 0003:00018e90       ??_C@_0BJ@LJODJOAI@GL_NV_register_combiners?$AA@ 00000001401c4e90     glew32s:glew.obj
 0003:00018eb0       ??_C@_0BK@ODBCDPNN@GL_NV_register_combiners2?$AA@ 00000001401c4eb0     glew32s:glew.obj
 0003:00018ed0       ??_C@_0CE@FOBHKPIL@GL_NV_robustness_video_memory_pu@ 00000001401c4ed0     glew32s:glew.obj
 0003:00018f00       ??_C@_0BD@FMMLKJGJ@GL_NV_sRGB_formats?$AA@ 00000001401c4f00     glew32s:glew.obj
 0003:00018f18       ??_C@_0BH@IONKMELG@GL_NV_sample_locations?$AA@ 00000001401c4f18     glew32s:glew.obj
 0003:00018f38       ??_C@_0CE@DEABOHFP@GL_NV_sample_mask_override_cover@ 00000001401c4f38     glew32s:glew.obj
 0003:00018f68       ??_C@_0BN@GKIBPFOE@GL_NV_shader_atomic_counters?$AA@ 00000001401c4f68     glew32s:glew.obj
 0003:00018f90       ??_C@_0BK@INPEFALF@GL_NV_shader_atomic_float?$AA@ 00000001401c4f90     glew32s:glew.obj
 0003:00018fb0       ??_C@_0BM@GJBFOMCI@GL_NV_shader_atomic_float64?$AA@ 00000001401c4fb0     glew32s:glew.obj
 0003:00018fd8       ??_C@_0CA@JACPCAKB@GL_NV_shader_atomic_fp16_vector?$AA@ 00000001401c4fd8     glew32s:glew.obj
 0003:00019000       ??_C@_0BK@BIPABGKO@GL_NV_shader_atomic_int64?$AA@ 00000001401c5000     glew32s:glew.obj
 0003:00019020       ??_C@_0BJ@NKIPKBCI@GL_NV_shader_buffer_load?$AA@ 00000001401c5020     glew32s:glew.obj
 0003:00019040       ??_C@_0CJ@HNHJJNDN@GL_NV_shader_noperspective_inter@ 00000001401c5040     glew32s:glew.obj
 0003:00019078       ??_C@_0CD@CNLBHGJA@GL_NV_shader_storage_buffer_obje@ 00000001401c5078     glew32s:glew.obj
 0003:000190a8       ??_C@_0BK@IBKJLDNG@GL_NV_shader_thread_group?$AA@ 00000001401c50a8     glew32s:glew.obj
 0003:000190c8       ??_C@_0BM@BHGNJEBN@GL_NV_shader_thread_shuffle?$AA@ 00000001401c50c8     glew32s:glew.obj
 0003:000190f0       ??_C@_0BM@MFACADFP@GL_NV_shadow_samplers_array?$AA@ 00000001401c50f0     glew32s:glew.obj
 0003:00019118       ??_C@_0BL@OLMCFIN@GL_NV_shadow_samplers_cube?$AA@ 00000001401c5118     glew32s:glew.obj
 0003:00019138       ??_C@_0BM@IGAKOJAB@GL_NV_stereo_view_rendering?$AA@ 00000001401c5138     glew32s:glew.obj
 0003:00019160       ??_C@_0BM@PJBMHOC@GL_NV_tessellation_program5?$AA@ 00000001401c5160     glew32s:glew.obj
 0003:00019188       ??_C@_0BE@JNJEBIKN@GL_NV_texgen_emboss?$AA@ 00000001401c5188     glew32s:glew.obj
 0003:000191a0       ??_C@_0BI@IEIPMLHJ@GL_NV_texgen_reflection?$AA@ 00000001401c51a0     glew32s:glew.obj
 0003:000191c0       ??_C@_0BE@IPNIHIGM@GL_NV_texture_array?$AA@ 00000001401c51c0     glew32s:glew.obj
 0003:000191d8       ??_C@_0BG@GLGDHLLP@GL_NV_texture_barrier?$AA@ 00000001401c51d8     glew32s:glew.obj
 0003:000191f8       ??_C@_0BL@CBJIJINN@GL_NV_texture_border_clamp?$AA@ 00000001401c51f8     glew32s:glew.obj
 0003:00019218       ??_C@_0BP@HKDOIMGO@GL_NV_texture_compression_latc?$AA@ 00000001401c5218     glew32s:glew.obj
 0003:00019240       ??_C@_0BP@PJIKELBE@GL_NV_texture_compression_s3tc?$AA@ 00000001401c5240     glew32s:glew.obj
 0003:00019268       ??_C@_0CG@GLBILOMO@GL_NV_texture_compression_s3tc_u@ 00000001401c5268     glew32s:glew.obj
 0003:00019298       ??_C@_0BO@KAKHKEJP@GL_NV_texture_compression_vtc?$AA@ 00000001401c5298     glew32s:glew.obj
 0003:000192c0       ??_C@_0BL@INAFKGJG@GL_NV_texture_env_combine4?$AA@ 00000001401c52c0     glew32s:glew.obj
 0003:000192e0       ??_C@_0BM@PKADNNLC@GL_NV_texture_expand_normal?$AA@ 00000001401c52e0     glew32s:glew.obj
 0003:00019308       ??_C@_0BK@HNFFNOCH@GL_NV_texture_multisample?$AA@ 00000001401c5308     glew32s:glew.obj
 0003:00019328       ??_C@_0BN@POCHIIHF@GL_NV_texture_npot_2D_mipmap?$AA@ 00000001401c5328     glew32s:glew.obj
 0003:00019350       ??_C@_0BI@KIAKBMLM@GL_NV_texture_rectangle?$AA@ 00000001401c5350     glew32s:glew.obj
 0003:00019370       ??_C@_0CD@IJHHALLB@GL_NV_texture_rectangle_compress@ 00000001401c5370     glew32s:glew.obj
 0003:000193a0       ??_C@_0BF@OCMAFBB@GL_NV_texture_shader?$AA@ 00000001401c53a0     glew32s:glew.obj
 0003:000193c0       ??_C@_0BG@IHMOFIIG@GL_NV_texture_shader2?$AA@ 00000001401c53c0     glew32s:glew.obj
 0003:000193e0       ??_C@_0BG@JONFGJMH@GL_NV_texture_shader3?$AA@ 00000001401c53e0     glew32s:glew.obj
 0003:00019400       ??_C@_0BJ@NNCHCJGA@GL_NV_transform_feedback?$AA@ 00000001401c5400     glew32s:glew.obj
 0003:00019420       ??_C@_0BK@KABPBCAA@GL_NV_transform_feedback2?$AA@ 00000001401c5420     glew32s:glew.obj
 0003:00019440       ??_C@_0CE@BFBFCDGO@GL_NV_uniform_buffer_unified_mem@ 00000001401c5440     glew32s:glew.obj
 0003:00019470       ??_C@_0BE@BKAPOLJH@GL_NV_vdpau_interop?$AA@ 00000001401c5470     glew32s:glew.obj
 0003:00019488       ??_C@_0BJ@BAACMKFK@GL_NV_vertex_array_range?$AA@ 00000001401c5488     glew32s:glew.obj
 0003:000194a8       ??_C@_0BK@GGNOOOFB@GL_NV_vertex_array_range2?$AA@ 00000001401c54a8     glew32s:glew.obj
 0003:000194c8       ??_C@_0CC@JDEBDKAE@GL_NV_vertex_attrib_integer_64bi@ 00000001401c54c8     glew32s:glew.obj
 0003:000194f0       ??_C@_0CD@MJBDICNG@GL_NV_vertex_buffer_unified_memo@ 00000001401c54f0     glew32s:glew.obj
 0003:00019520       ??_C@_0BF@DFHLNMLP@GL_NV_vertex_program?$AA@ 00000001401c5520     glew32s:glew.obj
 0003:00019540       ??_C@_0BI@MNHCGKEE@GL_NV_vertex_program1_1?$AA@ 00000001401c5540     glew32s:glew.obj
 0003:00019560       ??_C@_0BG@LGJLIBLA@GL_NV_vertex_program2?$AA@ 00000001401c5560     glew32s:glew.obj
 0003:00019580       ??_C@_0BN@GDAFGLIP@GL_NV_vertex_program2_option?$AA@ 00000001401c5580     glew32s:glew.obj
 0003:000195a8       ??_C@_0BG@KPIALAPB@GL_NV_vertex_program3?$AA@ 00000001401c55a8     glew32s:glew.obj
 0003:000195c8       ??_C@_0BG@OAMBCGDG@GL_NV_vertex_program4?$AA@ 00000001401c55c8     glew32s:glew.obj
 0003:000195e8       ??_C@_0BE@MNGNEBEC@GL_NV_video_capture?$AA@ 00000001401c55e8     glew32s:glew.obj
 0003:00019600       ??_C@_0BF@FOINFAHN@GL_NV_viewport_array?$AA@ 00000001401c5600     glew32s:glew.obj
 0003:00019620       ??_C@_0BG@MDJKNEKA@GL_NV_viewport_array2?$AA@ 00000001401c5620     glew32s:glew.obj
 0003:00019640       ??_C@_0BH@KIIPEHLA@GL_NV_viewport_swizzle?$AA@ 00000001401c5640     glew32s:glew.obj
 0003:00019660       ??_C@_0BI@NHHEDEOP@GL_OES_byte_coordinates?$AA@ 00000001401c5660     glew32s:glew.obj
 0003:00019680       ??_C@_0BB@KIEELBPO@GL_OML_interlace?$AA@ 00000001401c5680     glew32s:glew.obj
 0003:00019698       ??_C@_0BA@JFICFOLJ@GL_OML_resample?$AA@ 00000001401c5698     glew32s:glew.obj
 0003:000196b0       ??_C@_0BB@FDFMMDGJ@GL_OML_subsample?$AA@ 00000001401c56b0     glew32s:glew.obj
 0003:000196c8       ??_C@_0BB@KNKGAOKC@GL_OVR_multiview?$AA@ 00000001401c56c8     glew32s:glew.obj
 0003:000196e0       ??_C@_0BC@NFAFDALL@GL_OVR_multiview2?$AA@ 00000001401c56e0     glew32s:glew.obj
 0003:000196f8       ??_C@_0DA@MJFLGHJE@GL_OVR_multiview_multisampled_re@ 00000001401c56f8     glew32s:glew.obj
 0003:00019738       ??_C@_0BC@JLEDMIGB@GL_PGI_misc_hints?$AA@ 00000001401c5738     glew32s:glew.obj
 0003:00019750       ??_C@_0BE@MMGKEFE@GL_PGI_vertex_hints?$AA@ 00000001401c5750     glew32s:glew.obj
 0003:00019768       ??_C@_0BD@HCIPKLPA@GL_QCOM_alpha_test?$AA@ 00000001401c5768     glew32s:glew.obj
 0003:00019780       ??_C@_0BI@MGOILGMG@GL_QCOM_binning_control?$AA@ 00000001401c5780     glew32s:glew.obj
 0003:000197a0       ??_C@_0BH@JAGLMKPH@GL_QCOM_driver_control?$AA@ 00000001401c57a0     glew32s:glew.obj
 0003:000197c0       ??_C@_0BF@JBABOGBN@GL_QCOM_extended_get?$AA@ 00000001401c57c0     glew32s:glew.obj
 0003:000197e0       ??_C@_0BG@IOOHDJEO@GL_QCOM_extended_get2?$AA@ 00000001401c57e0     glew32s:glew.obj
 0003:00019800       ??_C@_0BN@FHGHNJAH@GL_QCOM_framebuffer_foveated?$AA@ 00000001401c5800     glew32s:glew.obj
 0003:00019828       ??_C@_0BM@BFDPBOCO@GL_QCOM_perfmon_global_mode?$AA@ 00000001401c5828     glew32s:glew.obj
 0003:00019850       ??_C@_0CN@IICCNOIA@GL_QCOM_shader_framebuffer_fetch@ 00000001401c5850     glew32s:glew.obj
 0003:00019888       ??_C@_0BI@GBIBCIEK@GL_QCOM_tiled_rendering?$AA@ 00000001401c5888     glew32s:glew.obj
 0003:000198a8       ??_C@_0BM@CBHKIECL@GL_QCOM_writeonly_rendering?$AA@ 00000001401c58a8     glew32s:glew.obj
 0003:000198d0       ??_C@_0BN@KALDKJLB@GL_REGAL_ES1_0_compatibility?$AA@ 00000001401c58d0     glew32s:glew.obj
 0003:000198f8       ??_C@_0BN@ONLDICA@GL_REGAL_ES1_1_compatibility?$AA@ 00000001401c58f8     glew32s:glew.obj
 0003:00019920       ??_C@_0BA@ECKFOFDN@GL_REGAL_enable?$AA@ 00000001401c5920     glew32s:glew.obj
 0003:00019938       ??_C@_0BG@KHGCGBJ@GL_REGAL_error_string?$AA@ 00000001401c5938     glew32s:glew.obj
 0003:00019958       ??_C@_0BJ@PKCHFGKO@GL_REGAL_extension_query?$AA@ 00000001401c5958     glew32s:glew.obj
 0003:00019978       ??_C@_0N@NMIEPDNC@GL_REGAL_log?$AA@ 00000001401c5978     glew32s:glew.obj
 0003:00019988       ??_C@_0BG@OONAIGDM@GL_REGAL_proc_address?$AA@ 00000001401c5988     glew32s:glew.obj
 0003:000199a8       ??_C@_0BL@FCLACNMJ@GL_REND_screen_coordinates?$AA@ 00000001401c59a8     glew32s:glew.obj
 0003:000199c8       ??_C@_0L@LMFIOPIG@GL_S3_s3tc?$AA@ 00000001401c59c8     glew32s:glew.obj
 0003:000199d8       ??_C@_0BH@MOLMOLIB@GL_SGIS_clip_band_hint?$AA@ 00000001401c59d8     glew32s:glew.obj
 0003:000199f8       ??_C@_0BE@GLEPJGEE@GL_SGIS_color_range?$AA@ 00000001401c59f8     glew32s:glew.obj
 0003:00019a10       ??_C@_0BH@PAHCODJ@GL_SGIS_detail_texture?$AA@ 00000001401c5a10     glew32s:glew.obj
 0003:00019a30       ??_C@_0BF@GPGNHNMN@GL_SGIS_fog_function?$AA@ 00000001401c5a30     glew32s:glew.obj
 0003:00019a50       ??_C@_0BI@MOOJOJFP@GL_SGIS_generate_mipmap?$AA@ 00000001401c5a50     glew32s:glew.obj
 0003:00019a70       ??_C@_0BE@CBCHAGML@GL_SGIS_line_texgen?$AA@ 00000001401c5a70     glew32s:glew.obj
 0003:00019a88       ??_C@_0BE@DFFPCJFF@GL_SGIS_multisample?$AA@ 00000001401c5a88     glew32s:glew.obj
 0003:00019aa0       ??_C@_0BF@GPNHNALC@GL_SGIS_multitexture?$AA@ 00000001401c5aa0     glew32s:glew.obj
 0003:00019ac0       ??_C@_0BG@DMJAHLAK@GL_SGIS_pixel_texture?$AA@ 00000001401c5ac0     glew32s:glew.obj
 0003:00019ae0       ??_C@_0BK@ENABMDEB@GL_SGIS_point_line_texgen?$AA@ 00000001401c5ae0     glew32s:glew.obj
 0003:00019b00       ??_C@_0BL@MEEPIBEG@GL_SGIS_shared_multisample?$AA@ 00000001401c5b00     glew32s:glew.obj
 0003:00019b20       ??_C@_0BI@FOOBIIJK@GL_SGIS_sharpen_texture?$AA@ 00000001401c5b20     glew32s:glew.obj
 0003:00019b40       ??_C@_0BC@IBDHHBNP@GL_SGIS_texture4D?$AA@ 00000001401c5b40     glew32s:glew.obj
 0003:00019b58       ??_C@_0BN@LHADNLCK@GL_SGIS_texture_border_clamp?$AA@ 00000001401c5b58     glew32s:glew.obj
 0003:00019b80       ??_C@_0BL@JOCOPCOL@GL_SGIS_texture_edge_clamp?$AA@ 00000001401c5b80     glew32s:glew.obj
 0003:00019ba0       ??_C@_0BI@ECFJGEJI@GL_SGIS_texture_filter4?$AA@ 00000001401c5ba0     glew32s:glew.obj
 0003:00019bc0       ??_C@_0BE@OINMPKHO@GL_SGIS_texture_lod?$AA@ 00000001401c5bc0     glew32s:glew.obj
 0003:00019bd8       ??_C@_0BH@DCBOJIEA@GL_SGIS_texture_select?$AA@ 00000001401c5bd8     glew32s:glew.obj
 0003:00019bf8       ??_C@_0O@LIMJCCBB@GL_SGIX_async?$AA@ 00000001401c5bf8     glew32s:glew.obj
 0003:00019c08       ??_C@_0BI@HLJGOPMC@GL_SGIX_async_histogram?$AA@ 00000001401c5c08     glew32s:glew.obj
 0003:00019c28       ??_C@_0BE@NAMBIHMO@GL_SGIX_async_pixel?$AA@ 00000001401c5c28     glew32s:glew.obj
 0003:00019c40       ??_C@_0BL@DMCHLAJK@GL_SGIX_bali_g_instruments?$AA@ 00000001401c5c40     glew32s:glew.obj
 0003:00019c60       ??_C@_0BL@NODGOCJL@GL_SGIX_bali_r_instruments?$AA@ 00000001401c5c60     glew32s:glew.obj
 0003:00019c80       ??_C@_0BP@GAGIGAAF@GL_SGIX_bali_timer_instruments?$AA@ 00000001401c5c80     glew32s:glew.obj
 0003:00019ca8       ??_C@_0BL@EIBFJLIA@GL_SGIX_blend_alpha_minmax?$AA@ 00000001401c5ca8     glew32s:glew.obj
 0003:00019cc8       ??_C@_0BD@MLFCIJPB@GL_SGIX_blend_cadd?$AA@ 00000001401c5cc8     glew32s:glew.obj
 0003:00019ce0       ??_C@_0BI@BHGHPCEN@GL_SGIX_blend_cmultiply?$AA@ 00000001401c5ce0     glew32s:glew.obj
 0003:00019d00       ??_C@_0BO@DCMIKEBB@GL_SGIX_calligraphic_fragment?$AA@ 00000001401c5d00     glew32s:glew.obj
 0003:00019d28       ??_C@_0BA@PPJLFMN@GL_SGIX_clipmap?$AA@ 00000001401c5d28     glew32s:glew.obj
 0003:00019d40       ??_C@_0BO@OBHMCEHE@GL_SGIX_color_matrix_accuracy?$AA@ 00000001401c5d40     glew32s:glew.obj
 0003:00019d68       ??_C@_0BP@NGKBEJLA@GL_SGIX_color_table_index_mode?$AA@ 00000001401c5d68     glew32s:glew.obj
 0003:00019d90       ??_C@_0BG@LKFFGEPD@GL_SGIX_complex_polar?$AA@ 00000001401c5d90     glew32s:glew.obj
 0003:00019db0       ??_C@_0BN@JKOOPNJD@GL_SGIX_convolution_accuracy?$AA@ 00000001401c5db0     glew32s:glew.obj
 0003:00019dd8       ??_C@_0BB@HENOEOIF@GL_SGIX_cube_map?$AA@ 00000001401c5dd8     glew32s:glew.obj
 0003:00019df0       ??_C@_0BI@OMMFHBNK@GL_SGIX_cylinder_texgen?$AA@ 00000001401c5df0     glew32s:glew.obj
 0003:00019e10       ??_C@_0BB@JBHDPHKO@GL_SGIX_datapipe?$AA@ 00000001401c5e10     glew32s:glew.obj
 0003:00019e28       ??_C@_0BD@OMALFPPD@GL_SGIX_decimation?$AA@ 00000001401c5e28     glew32s:glew.obj
 0003:00019e40       ??_C@_0BO@FCNOGMIO@GL_SGIX_depth_pass_instrument?$AA@ 00000001401c5e40     glew32s:glew.obj
 0003:00019e68       ??_C@_0BG@ODHAJHLE@GL_SGIX_depth_texture?$AA@ 00000001401c5e68     glew32s:glew.obj
 0003:00019e88       ??_C@_0M@BNPOCJLN@GL_SGIX_dvc?$AA@ 00000001401c5e88     glew32s:glew.obj
 0003:00019e98       ??_C@_0BF@NDINOOPD@GL_SGIX_flush_raster?$AA@ 00000001401c5e98     glew32s:glew.obj
 0003:00019eb8       ??_C@_0BC@BLFNNEHP@GL_SGIX_fog_blend?$AA@ 00000001401c5eb8     glew32s:glew.obj
 0003:00019ed0       ??_C@_0BM@JLFLFIPK@GL_SGIX_fog_factor_to_alpha?$AA@ 00000001401c5ed0     glew32s:glew.obj
 0003:00019ef8       ??_C@_0BD@ECKIFBIP@GL_SGIX_fog_layers?$AA@ 00000001401c5ef8     glew32s:glew.obj
 0003:00019f10       ??_C@_0BD@KPKPFAII@GL_SGIX_fog_offset?$AA@ 00000001401c5f10     glew32s:glew.obj
 0003:00019f28       ??_C@_0BD@NEHDPCHE@GL_SGIX_fog_patchy?$AA@ 00000001401c5f28     glew32s:glew.obj
 0003:00019f40       ??_C@_0BC@MEHKOAOI@GL_SGIX_fog_scale?$AA@ 00000001401c5f40     glew32s:glew.obj
 0003:00019f58       ??_C@_0BE@DEBHJIJG@GL_SGIX_fog_texture?$AA@ 00000001401c5f58     glew32s:glew.obj
 0003:00019f70       ??_C@_0CA@BPLPOAOL@GL_SGIX_fragment_lighting_space?$AA@ 00000001401c5f70     glew32s:glew.obj
 0003:00019f98       ??_C@_0CD@BAKMNONH@GL_SGIX_fragment_specular_lighti@ 00000001401c5f98     glew32s:glew.obj
 0003:00019fc8       ??_C@_0BN@IBNLLJHJ@GL_SGIX_fragments_instrument?$AA@ 00000001401c5fc8     glew32s:glew.obj
 0003:00019ff0       ??_C@_0BC@PCFJKPCF@GL_SGIX_framezoom?$AA@ 00000001401c5ff0     glew32s:glew.obj
 0003:0001a008       ??_C@_0BE@EFHCDFFK@GL_SGIX_icc_texture?$AA@ 00000001401c6008     glew32s:glew.obj
 0003:0001a020       ??_C@_0BI@LHAAEKNC@GL_SGIX_igloo_interface?$AA@ 00000001401c6020     glew32s:glew.obj
 0003:0001a040       ??_C@_0BK@PILPPCLB@GL_SGIX_image_compression?$AA@ 00000001401c6040     glew32s:glew.obj
 0003:0001a060       ??_C@_0BN@BDOAODAP@GL_SGIX_impact_pixel_texture?$AA@ 00000001401c6060     glew32s:glew.obj
 0003:0001a088       ??_C@_0BJ@LLBPALNF@GL_SGIX_instrument_error?$AA@ 00000001401c6088     glew32s:glew.obj
 0003:0001a0a8       ??_C@_0BC@JOHNGALL@GL_SGIX_interlace?$AA@ 00000001401c60a8     glew32s:glew.obj
 0003:0001a0c0       ??_C@_0BH@BKBFADJM@GL_SGIX_ir_instrument1?$AA@ 00000001401c60c0     glew32s:glew.obj
 0003:0001a0e0       ??_C@_0BK@JHAKELFJ@GL_SGIX_line_quality_hint?$AA@ 00000001401c60e0     glew32s:glew.obj
 0003:0001a100       ??_C@_0BG@ICADFLAC@GL_SGIX_list_priority?$AA@ 00000001401c6100     glew32s:glew.obj
 0003:0001a120       ??_C@_0O@BFDIHEME@GL_SGIX_mpeg1?$AA@ 00000001401c6120     glew32s:glew.obj
 0003:0001a130       ??_C@_0O@DOBFCHAH@GL_SGIX_mpeg2?$AA@ 00000001401c6130     glew32s:glew.obj
 0003:0001a140       ??_C@_0CF@EELCPHAF@GL_SGIX_nonlinear_lighting_perve@ 00000001401c6140     glew32s:glew.obj
 0003:0001a170       ??_C@_0BD@KLBIPLMG@GL_SGIX_nurbs_eval?$AA@ 00000001401c6170     glew32s:glew.obj
 0003:0001a188       ??_C@_0BN@DCGGJJML@GL_SGIX_occlusion_instrument?$AA@ 00000001401c6188     glew32s:glew.obj
 0003:0001a1b0       ??_C@_0BG@BCHEJLMK@GL_SGIX_packed_6bytes?$AA@ 00000001401c61b0     glew32s:glew.obj
 0003:0001a1d0       ??_C@_0BG@GGELFALH@GL_SGIX_pixel_texture?$AA@ 00000001401c61d0     glew32s:glew.obj
 0003:0001a1f0       ??_C@_0BL@CJGMLJJJ@GL_SGIX_pixel_texture_bits?$AA@ 00000001401c61f0     glew32s:glew.obj
 0003:0001a210       ??_C@_0BK@NCOMDICP@GL_SGIX_pixel_texture_lod?$AA@ 00000001401c6210     glew32s:glew.obj
 0003:0001a230       ??_C@_0BE@DGCCNBBN@GL_SGIX_pixel_tiles?$AA@ 00000001401c6230     glew32s:glew.obj
 0003:0001a248       ??_C@_0BH@PNEACOBI@GL_SGIX_polynomial_ffd?$AA@ 00000001401c6248     glew32s:glew.obj
 0003:0001a268       ??_C@_0BC@LGAFDMMC@GL_SGIX_quad_mesh?$AA@ 00000001401c6268     glew32s:glew.obj
 0003:0001a280       ??_C@_0BI@LDFBLACJ@GL_SGIX_reference_plane?$AA@ 00000001401c6280     glew32s:glew.obj
 0003:0001a2a0       ??_C@_0BB@KPBJONBD@GL_SGIX_resample?$AA@ 00000001401c62a0     glew32s:glew.obj
 0003:0001a2b8       ??_C@_0BH@DAJFKGFO@GL_SGIX_scalebias_hint?$AA@ 00000001401c62b8     glew32s:glew.obj
 0003:0001a2d8       ??_C@_0P@KFBBLMBN@GL_SGIX_shadow?$AA@ 00000001401c62d8     glew32s:glew.obj
 0003:0001a2f0       ??_C@_0BH@PPBBCFNF@GL_SGIX_shadow_ambient?$AA@ 00000001401c62f0     glew32s:glew.obj
 0003:0001a310       ??_C@_0N@IFGNFNEN@GL_SGIX_slim?$AA@ 00000001401c6310     glew32s:glew.obj
 0003:0001a320       ??_C@_0BJ@PEFJIHCG@GL_SGIX_spotlight_cutoff?$AA@ 00000001401c6320     glew32s:glew.obj
 0003:0001a340       ??_C@_0P@PHDJDFCG@GL_SGIX_sprite?$AA@ 00000001401c6340     glew32s:glew.obj
 0003:0001a358       ??_C@_0BF@JAIJMBFJ@GL_SGIX_subdiv_patch?$AA@ 00000001401c6358     glew32s:glew.obj
 0003:0001a378       ??_C@_0BC@GFGFBCCM@GL_SGIX_subsample?$AA@ 00000001401c6378     glew32s:glew.obj
 0003:0001a390       ??_C@_0BK@DEFLGOMM@GL_SGIX_tag_sample_buffer?$AA@ 00000001401c6390     glew32s:glew.obj
 0003:0001a3b0       ??_C@_0BI@FJKNJEME@GL_SGIX_texture_add_env?$AA@ 00000001401c63b0     glew32s:glew.obj
 0003:0001a3d0       ??_C@_0CB@DEFOJPBA@GL_SGIX_texture_coordinate_clamp@ 00000001401c63d0     glew32s:glew.obj
 0003:0001a3f8       ??_C@_0BJ@CPJCLFF@GL_SGIX_texture_lod_bias?$AA@ 00000001401c63f8     glew32s:glew.obj
 0003:0001a418       ??_C@_0CD@OPILJJMG@GL_SGIX_texture_mipmap_anisotrop@ 00000001401c6418     glew32s:glew.obj
 0003:0001a448       ??_C@_0BN@KIBAKNBJ@GL_SGIX_texture_multi_buffer?$AA@ 00000001401c6448     glew32s:glew.obj
 0003:0001a470       ??_C@_0BG@JNICLDC@GL_SGIX_texture_phase?$AA@ 00000001401c6470     glew32s:glew.obj
 0003:0001a490       ??_C@_0BG@KEMPDLC@GL_SGIX_texture_range?$AA@ 00000001401c6490     glew32s:glew.obj
 0003:0001a4b0       ??_C@_0BL@CPBAAPMN@GL_SGIX_texture_scale_bias?$AA@ 00000001401c64b0     glew32s:glew.obj
 0003:0001a4d0       ??_C@_0BM@CNFEAIOG@GL_SGIX_texture_supersample?$AA@ 00000001401c64d0     glew32s:glew.obj
 0003:0001a4f8       ??_C@_0BD@JEJOKOIH@GL_SGIX_vector_ops?$AA@ 00000001401c64f8     glew32s:glew.obj
 0003:0001a510       ??_C@_0BM@JLEGJIB@GL_SGIX_vertex_array_object?$AA@ 00000001401c6510     glew32s:glew.obj
 0003:0001a538       ??_C@_0BH@HAEKGGE@GL_SGIX_vertex_preclip?$AA@ 00000001401c6538     glew32s:glew.obj
 0003:0001a558       ??_C@_0BM@FHFEMNLA@GL_SGIX_vertex_preclip_hint?$AA@ 00000001401c6558     glew32s:glew.obj
 0003:0001a580       ??_C@_0O@PBGOBAHG@GL_SGIX_ycrcb?$AA@ 00000001401c6580     glew32s:glew.obj
 0003:0001a590       ??_C@_0BI@MDMPKKOA@GL_SGIX_ycrcb_subsample?$AA@ 00000001401c6590     glew32s:glew.obj
 0003:0001a5b0       ??_C@_0P@MFHBOAPP@GL_SGIX_ycrcba?$AA@ 00000001401c65b0     glew32s:glew.obj
 0003:0001a5c8       ??_C@_0BE@GJNJGEBC@GL_SGI_color_matrix?$AA@ 00000001401c65c8     glew32s:glew.obj
 0003:0001a5e0       ??_C@_0BD@GKNOIPPL@GL_SGI_color_table?$AA@ 00000001401c65e0     glew32s:glew.obj
 0003:0001a5f8       ??_C@_0P@PBJKPPCL@GL_SGI_complex?$AA@ 00000001401c65f8     glew32s:glew.obj
 0003:0001a610       ??_C@_0BE@DOPBBBLH@GL_SGI_complex_type?$AA@ 00000001401c6610     glew32s:glew.obj
 0003:0001a628       ??_C@_0L@JDDDDECF@GL_SGI_fft?$AA@ 00000001401c6628     glew32s:glew.obj
 0003:0001a638       ??_C@_0BL@OJFHNLAL@GL_SGI_texture_color_table?$AA@ 00000001401c6638     glew32s:glew.obj
 0003:0001a658       ??_C@_0BG@EJHFCACO@GL_SUNX_constant_data?$AA@ 00000001401c6658     glew32s:glew.obj
 0003:0001a678       ??_C@_0CA@PKECLOJO@GL_SUN_convolution_border_modes?$AA@ 00000001401c6678     glew32s:glew.obj
 0003:0001a6a0       ??_C@_0BE@IJMMGMJE@GL_SUN_global_alpha?$AA@ 00000001401c66a0     glew32s:glew.obj
 0003:0001a6b8       ??_C@_0BC@PNDFDGDE@GL_SUN_mesh_array?$AA@ 00000001401c66b8     glew32s:glew.obj
 0003:0001a6d0       ??_C@_0BJ@IEPAHBPA@GL_SUN_read_video_pixels?$AA@ 00000001401c66d0     glew32s:glew.obj
 0003:0001a6f0       ??_C@_0BD@EKCHDFKA@GL_SUN_slice_accum?$AA@ 00000001401c66f0     glew32s:glew.obj
 0003:0001a708       ??_C@_0BF@JCOGPNNJ@GL_SUN_triangle_list?$AA@ 00000001401c6708     glew32s:glew.obj
 0003:0001a728       ??_C@_0O@FOOLPMFL@GL_SUN_vertex?$AA@ 00000001401c6728     glew32s:glew.obj
 0003:0001a738       ??_C@_0BF@CGJHJCNI@GL_WIN_phong_shading?$AA@ 00000001401c6738     glew32s:glew.obj
 0003:0001a758       ??_C@_0BH@GFDPHGJK@GL_WIN_scene_markerXXX?$AA@ 00000001401c6758     glew32s:glew.obj
 0003:0001a778       ??_C@_0BE@IHNEDPNH@GL_WIN_specular_fog?$AA@ 00000001401c6778     glew32s:glew.obj
 0003:0001a790       ??_C@_0BB@DAHICGAE@GL_WIN_swap_hint?$AA@ 00000001401c6790     glew32s:glew.obj
 0003:0001a7a8       ??_C@_0P@HHIACAAI@GL_VERSION_1_2?$AA@ 00000001401c67a8     glew32s:glew.obj
 0003:0001a7c0       ??_C@_0BB@FCAKLDHP@GL_VERSION_1_2_1?$AA@ 00000001401c67c0     glew32s:glew.obj
 0003:0001a7d8       ??_C@_0P@GOJLBBEJ@GL_VERSION_1_3?$AA@ 00000001401c67d8     glew32s:glew.obj
 0003:0001a7f0       ??_C@_0P@CBNKIHIO@GL_VERSION_1_4?$AA@ 00000001401c67f0     glew32s:glew.obj
 0003:0001a808       ??_C@_0P@DIMBLGMP@GL_VERSION_1_5?$AA@ 00000001401c6808     glew32s:glew.obj
 0003:0001a820       ??_C@_0P@FHADONGE@GL_VERSION_2_0?$AA@ 00000001401c6820     glew32s:glew.obj
 0003:0001a838       ??_C@_0P@EOBINMCF@GL_VERSION_2_1?$AA@ 00000001401c6838     glew32s:glew.obj
 0003:0001a850       ??_C@_0P@OPLPIKAB@GL_VERSION_3_0?$AA@ 00000001401c6850     glew32s:glew.obj
 0003:0001a868       ??_C@_0P@PGKELLEA@GL_VERSION_3_1?$AA@ 00000001401c6868     glew32s:glew.obj
 0003:0001a880       ??_C@_0P@NNIJOIID@GL_VERSION_3_2?$AA@ 00000001401c6880     glew32s:glew.obj
 0003:0001a898       ??_C@_0P@MEJCNJMC@GL_VERSION_3_3?$AA@ 00000001401c6898     glew32s:glew.obj
 0003:0001a8b0       ??_C@_0P@HCGILCLI@GL_VERSION_4_0?$AA@ 00000001401c68b0     glew32s:glew.obj
 0003:0001a8c8       ??_C@_0P@GLHDIDPJ@GL_VERSION_4_1?$AA@ 00000001401c68c8     glew32s:glew.obj
 0003:0001a8e0       ??_C@_0P@EAFONADK@GL_VERSION_4_2?$AA@ 00000001401c68e0     glew32s:glew.obj
 0003:0001a8f8       ??_C@_0P@FJEFOBHL@GL_VERSION_4_3?$AA@ 00000001401c68f8     glew32s:glew.obj
 0003:0001a910       ??_C@_0P@BGAEHHLM@GL_VERSION_4_4?$AA@ 00000001401c6910     glew32s:glew.obj
 0003:0001a928       ??_C@_0P@PBPEGPN@GL_VERSION_4_5?$AA@ 00000001401c6928     glew32s:glew.obj
 0003:0001a940       ??_C@_0P@CEDCBFDO@GL_VERSION_4_6?$AA@ 00000001401c6940     glew32s:glew.obj
 0003:0001a958       ??_C@_0BE@HEMCDCNJ@GL_3DFX_multisample?$AA@ 00000001401c6958     glew32s:glew.obj
 0003:0001a970       ??_C@_0BA@LKKHOHFH@GL_3DFX_tbuffer?$AA@ 00000001401c6970     glew32s:glew.obj
 0003:0001a988       ??_C@_0CB@KLJAICC@GL_3DFX_texture_compression_FXT1@ 00000001401c6988     glew32s:glew.obj
 0003:0001a9b0       ??_C@_0BL@EFAIOBHA@GL_AMD_blend_minmax_factor?$AA@ 00000001401c69b0     glew32s:glew.obj
 0003:0001a9d0       ??_C@_0BO@PDFBFIPA@GL_AMD_compressed_3DC_texture?$AA@ 00000001401c69d0     glew32s:glew.obj
 0003:0001a9f8       ??_C@_0BO@JFNGIDFA@GL_AMD_compressed_ATC_texture?$AA@ 00000001401c69f8     glew32s:glew.obj
 0003:0001aa20       ??_C@_0BK@EHJKMCDM@GL_AMD_conservative_depth?$AA@ 00000001401c6a20     glew32s:glew.obj
 0003:0001aa40       ??_C@_0BE@KNLIPKJP@GL_AMD_debug_output?$AA@ 00000001401c6a40     glew32s:glew.obj
 0003:0001aa58       ??_C@_0BM@EDNNFHPA@GL_AMD_depth_clamp_separate?$AA@ 00000001401c6a58     glew32s:glew.obj
 0003:0001aa80       ??_C@_0BK@MMEDHLHD@GL_AMD_draw_buffers_blend?$AA@ 00000001401c6a80     glew32s:glew.obj
 0003:0001aaa0       ??_C@_0CE@ELDJFDJM@GL_AMD_framebuffer_sample_positi@ 00000001401c6aa0     glew32s:glew.obj
 0003:0001aad0       ??_C@_0BC@NKIOBNDB@GL_AMD_gcn_shader?$AA@ 00000001401c6ad0     glew32s:glew.obj
 0003:0001aae8       ??_C@_0BN@OAEPJMPI@GL_AMD_gpu_shader_half_float?$AA@ 00000001401c6ae8     glew32s:glew.obj
 0003:0001ab10       ??_C@_0BI@BLDLGCPB@GL_AMD_gpu_shader_int16?$AA@ 00000001401c6b10     glew32s:glew.obj
 0003:0001ab30       ??_C@_0BI@CMECBGPG@GL_AMD_gpu_shader_int64?$AA@ 00000001401c6b30     glew32s:glew.obj
 0003:0001ab50       ??_C@_0BM@FMJHGKLI@GL_AMD_interleaved_elements?$AA@ 00000001401c6b50     glew32s:glew.obj
 0003:0001ab78       ??_C@_0BL@PGLIDKCF@GL_AMD_multi_draw_indirect?$AA@ 00000001401c6b78     glew32s:glew.obj
 0003:0001ab98       ??_C@_0BH@NLIAOGBG@GL_AMD_name_gen_delete?$AA@ 00000001401c6b98     glew32s:glew.obj
 0003:0001abb8       ??_C@_0BN@LFJMAOGF@GL_AMD_occlusion_query_event?$AA@ 00000001401c6bb8     glew32s:glew.obj
 0003:0001abe0       ??_C@_0BL@LIFGNDBF@GL_AMD_performance_monitor?$AA@ 00000001401c6be0     glew32s:glew.obj
 0003:0001ac00       ??_C@_0BF@OBCHLGLA@GL_AMD_pinned_memory?$AA@ 00000001401c6c00     glew32s:glew.obj
 0003:0001ac20       ??_C@_0BL@LDFGCGCC@GL_AMD_program_binary_Z400?$AA@ 00000001401c6c20     glew32s:glew.obj
 0003:0001ac40       ??_C@_0BL@MCHKGHDO@GL_AMD_query_buffer_object?$AA@ 00000001401c6c40     glew32s:glew.obj
 0003:0001ac60       ??_C@_0BI@IMBOAKEN@GL_AMD_sample_positions?$AA@ 00000001401c6c60     glew32s:glew.obj
 0003:0001ac80       ??_C@_0CE@PBNJNIGF@GL_AMD_seamless_cubemap_per_text@ 00000001401c6c80     glew32s:glew.obj
 0003:0001acb0       ??_C@_0CB@PDNEIGOD@GL_AMD_shader_atomic_counter_ops@ 00000001401c6cb0     glew32s:glew.obj
 0003:0001acd8       ??_C@_0BF@OMGNEMCP@GL_AMD_shader_ballot?$AA@ 00000001401c6cd8     glew32s:glew.obj
 0003:0001acf8       ??_C@_0CI@PCGLBCAB@GL_AMD_shader_explicit_vertex_pa@ 00000001401c6cf8     glew32s:glew.obj
 0003:0001ad28       ??_C@_0BN@NIMADLIB@GL_AMD_shader_stencil_export?$AA@ 00000001401c6d28     glew32s:glew.obj
 0003:0001ad50       ??_C@_0CD@COCFCEDA@GL_AMD_shader_stencil_value_expo@ 00000001401c6d50     glew32s:glew.obj
 0003:0001ad80       ??_C@_0BN@HMKFCOCC@GL_AMD_shader_trinary_minmax?$AA@ 00000001401c6d80     glew32s:glew.obj
 0003:0001ada8       ??_C@_0BG@DLCNHKJA@GL_AMD_sparse_texture?$AA@ 00000001401c6da8     glew32s:glew.obj
 0003:0001adc8       ??_C@_0CC@NMJBEMDB@GL_AMD_stencil_operation_extende@ 00000001401c6dc8     glew32s:glew.obj
 0003:0001adf0       ??_C@_0BP@CPAGMGDG@GL_AMD_texture_gather_bias_lod?$AA@ 00000001401c6df0     glew32s:glew.obj
 0003:0001ae18       ??_C@_0BI@MIJDMHEC@GL_AMD_texture_texture4?$AA@ 00000001401c6e18     glew32s:glew.obj
 0003:0001ae38       ??_C@_0CL@CJBAIOJF@GL_AMD_transform_feedback3_lines@ 00000001401c6e38     glew32s:glew.obj
 0003:0001ae70       ??_C@_0BL@BFDIEOMC@GL_AMD_transform_feedback4?$AA@ 00000001401c6e70     glew32s:glew.obj
 0003:0001ae90       ??_C@_0BL@JOHGBPIP@GL_AMD_vertex_shader_layer?$AA@ 00000001401c6e90     glew32s:glew.obj
 0003:0001aeb0       ??_C@_0CB@JNGJKAIL@GL_AMD_vertex_shader_tessellator@ 00000001401c6eb0     glew32s:glew.obj
 0003:0001aed8       ??_C@_0CE@CFBMOIJC@GL_AMD_vertex_shader_viewport_in@ 00000001401c6ed8     glew32s:glew.obj
 0003:0001af08       ??_C@_0CA@MNHCFKAA@GL_ANDROID_extension_pack_es31a?$AA@ 00000001401c6f08     glew32s:glew.obj
 0003:0001af30       ??_C@_0BH@DMNPEDPN@GL_ANGLE_depth_texture?$AA@ 00000001401c6f30     glew32s:glew.obj
 0003:0001af50       ??_C@_0BK@IKLIJAK@GL_ANGLE_framebuffer_blit?$AA@ 00000001401c6f50     glew32s:glew.obj
 0003:0001af70       ??_C@_0CB@JMNMCBFC@GL_ANGLE_framebuffer_multisample@ 00000001401c6f70     glew32s:glew.obj
 0003:0001af98       ??_C@_0BK@NFPJKFIH@GL_ANGLE_instanced_arrays?$AA@ 00000001401c6f98     glew32s:glew.obj
 0003:0001afb8       ??_C@_0CA@FMDIMLLO@GL_ANGLE_pack_reverse_row_order?$AA@ 00000001401c6fb8     glew32s:glew.obj
 0003:0001afe0       ??_C@_0BI@GEDBPLH@GL_ANGLE_program_binary?$AA@ 00000001401c6fe0     glew32s:glew.obj
 0003:0001b000       ??_C@_0CC@GDKPECNG@GL_ANGLE_texture_compression_dxt@ 00000001401c7000     glew32s:glew.obj
 0003:0001b028       ??_C@_0CC@FBJJCAFE@GL_ANGLE_texture_compression_dxt@ 00000001401c7028     glew32s:glew.obj
 0003:0001b050       ??_C@_0CC@HMDIHNC@GL_ANGLE_texture_compression_dxt@ 00000001401c7050     glew32s:glew.obj
 0003:0001b078       ??_C@_0BH@IKKFMDPH@GL_ANGLE_texture_usage?$AA@ 00000001401c7078     glew32s:glew.obj
 0003:0001b098       ??_C@_0BF@HHNOEPCE@GL_ANGLE_timer_query?$AA@ 00000001401c7098     glew32s:glew.obj
 0003:0001b0b8       ??_C@_0CC@FGFONHBA@GL_ANGLE_translated_shader_sourc@ 00000001401c70b8     glew32s:glew.obj
 0003:0001b0e0       ??_C@_0BL@KBHOLKKO@GL_APPLE_aux_depth_stencil?$AA@ 00000001401c70e0     glew32s:glew.obj
 0003:0001b100       ??_C@_0BI@FCEBBNGN@GL_APPLE_client_storage?$AA@ 00000001401c7100     glew32s:glew.obj
 0003:0001b120       ??_C@_0BH@DHJILHMK@GL_APPLE_clip_distance?$AA@ 00000001401c7120     glew32s:glew.obj
 0003:0001b140       ??_C@_0CD@OBFINHKG@GL_APPLE_color_buffer_packed_flo@ 00000001401c7140     glew32s:glew.obj
 0003:0001b170       ??_C@_0BN@LJGKHGIP@GL_APPLE_copy_texture_levels?$AA@ 00000001401c7170     glew32s:glew.obj
 0003:0001b198       ??_C@_0BH@CBAJMICC@GL_APPLE_element_array?$AA@ 00000001401c7198     glew32s:glew.obj
 0003:0001b1b8       ??_C@_0P@NMNHHHAB@GL_APPLE_fence?$AA@ 00000001401c71b8     glew32s:glew.obj
 0003:0001b1d0       ??_C@_0BG@MLHOCLGG@GL_APPLE_float_pixels?$AA@ 00000001401c71d0     glew32s:glew.obj
 0003:0001b1f0       ??_C@_0BM@CIPCMPNH@GL_APPLE_flush_buffer_range?$AA@ 00000001401c71f0     glew32s:glew.obj
 0003:0001b218       ??_C@_0CB@DKPPJLOP@GL_APPLE_framebuffer_multisample@ 00000001401c7218     glew32s:glew.obj
 0003:0001b240       ??_C@_0BK@KOMLKFPF@GL_APPLE_object_purgeable?$AA@ 00000001401c7240     glew32s:glew.obj
 0003:0001b260       ??_C@_0BG@IBPLHHOO@GL_APPLE_pixel_buffer?$AA@ 00000001401c7260     glew32s:glew.obj
 0003:0001b280       ??_C@_0BB@BCCJLPEF@GL_APPLE_rgb_422?$AA@ 00000001401c7280     glew32s:glew.obj
 0003:0001b298       ??_C@_0BD@FINGDMIO@GL_APPLE_row_bytes?$AA@ 00000001401c7298     glew32s:glew.obj
 0003:0001b2b0       ??_C@_0BJ@DGHEHAAE@GL_APPLE_specular_vector?$AA@ 00000001401c72b0     glew32s:glew.obj
 0003:0001b2d0       ??_C@_0O@IOGNKLCM@GL_APPLE_sync?$AA@ 00000001401c72d0     glew32s:glew.obj
 0003:0001b2e0       ??_C@_0CB@FJKPEONO@GL_APPLE_texture_2D_limited_npot@ 00000001401c72e0     glew32s:glew.obj
 0003:0001b308       ??_C@_0CB@MKHPKAOB@GL_APPLE_texture_format_BGRA8888@ 00000001401c7308     glew32s:glew.obj
 0003:0001b330       ??_C@_0BL@IHIAPGIP@GL_APPLE_texture_max_level?$AA@ 00000001401c7330     glew32s:glew.obj
 0003:0001b350       ??_C@_0BO@IHGIHMNM@GL_APPLE_texture_packed_float?$AA@ 00000001401c7350     glew32s:glew.obj
 0003:0001b378       ??_C@_0BH@JNFBFMBL@GL_APPLE_texture_range?$AA@ 00000001401c7378     glew32s:glew.obj
 0003:0001b398       ??_C@_0BI@OKOIOKAB@GL_APPLE_transform_hint?$AA@ 00000001401c7398     glew32s:glew.obj
 0003:0001b3b8       ??_C@_0BN@JPPPAANH@GL_APPLE_vertex_array_object?$AA@ 00000001401c73b8     glew32s:glew.obj
 0003:0001b3e0       ??_C@_0BM@DFNIEIEJ@GL_APPLE_vertex_array_range?$AA@ 00000001401c73e0     glew32s:glew.obj
 0003:0001b408       ??_C@_0CD@HOINNAAO@GL_APPLE_vertex_program_evaluato@ 00000001401c7408     glew32s:glew.obj
 0003:0001b438       ??_C@_0BD@ELEIACHH@GL_APPLE_ycbcr_422?$AA@ 00000001401c7438     glew32s:glew.obj
 0003:0001b450       ??_C@_0BJ@EKCAAKBG@GL_ARB_ES2_compatibility?$AA@ 00000001401c7450     glew32s:glew.obj
 0003:0001b470       ??_C@_0BL@EMMAHNAP@GL_ARB_ES3_1_compatibility?$AA@ 00000001401c7470     glew32s:glew.obj
 0003:0001b490       ??_C@_0BL@GFAIMJPN@GL_ARB_ES3_2_compatibility?$AA@ 00000001401c7490     glew32s:glew.obj
 0003:0001b4b0       ??_C@_0BJ@OEEIJLIH@GL_ARB_ES3_compatibility?$AA@ 00000001401c74b0     glew32s:glew.obj
 0003:0001b4d0       ??_C@_0BI@PPKMFHJJ@GL_ARB_arrays_of_arrays?$AA@ 00000001401c74d0     glew32s:glew.obj
 0003:0001b4f0       ??_C@_0BF@LBGBLLJA@GL_ARB_base_instance?$AA@ 00000001401c74f0     glew32s:glew.obj
 0003:0001b510       ??_C@_0BI@FNELAAPJ@GL_ARB_bindless_texture?$AA@ 00000001401c7510     glew32s:glew.obj
 0003:0001b530       ??_C@_0BL@HJCIPJMC@GL_ARB_blend_func_extended?$AA@ 00000001401c7530     glew32s:glew.obj
 0003:0001b550       ??_C@_0BG@FDMKKDFD@GL_ARB_buffer_storage?$AA@ 00000001401c7550     glew32s:glew.obj
 0003:0001b570       ??_C@_0BA@FEEMKBCF@GL_ARB_cl_event?$AA@ 00000001401c7570     glew32s:glew.obj
 0003:0001b588       ??_C@_0BL@DOOAPCEA@GL_ARB_clear_buffer_object?$AA@ 00000001401c7588     glew32s:glew.obj
 0003:0001b5a8       ??_C@_0BF@HDHNHFHJ@GL_ARB_clear_texture?$AA@ 00000001401c75a8     glew32s:glew.obj
 0003:0001b5c8       ??_C@_0BE@NFGEKHNE@GL_ARB_clip_control?$AA@ 00000001401c75c8     glew32s:glew.obj
 0003:0001b5e0       ??_C@_0BK@NPDELCAH@GL_ARB_color_buffer_float?$AA@ 00000001401c75e0     glew32s:glew.obj
 0003:0001b600       ??_C@_0BF@CJMIIMBG@GL_ARB_compatibility?$AA@ 00000001401c7600     glew32s:glew.obj
 0003:0001b620       ??_C@_0CI@CIAMCDD@GL_ARB_compressed_texture_pixel_@ 00000001401c7620     glew32s:glew.obj
 0003:0001b650       ??_C@_0BG@CCENKDIE@GL_ARB_compute_shader?$AA@ 00000001401c7650     glew32s:glew.obj
 0003:0001b670       ??_C@_0CD@DFOMJNFO@GL_ARB_compute_variable_group_si@ 00000001401c7670     glew32s:glew.obj
 0003:0001b6a0       ??_C@_0CD@LLGIPNHI@GL_ARB_conditional_render_invert@ 00000001401c76a0     glew32s:glew.obj
 0003:0001b6d0       ??_C@_0BK@MEMKJFPL@GL_ARB_conservative_depth?$AA@ 00000001401c76d0     glew32s:glew.obj
 0003:0001b6f0       ??_C@_0BD@IGEHEAFM@GL_ARB_copy_buffer?$AA@ 00000001401c76f0     glew32s:glew.obj
 0003:0001b708       ??_C@_0BC@IMNLOGMO@GL_ARB_copy_image?$AA@ 00000001401c7708     glew32s:glew.obj
 0003:0001b720       ??_C@_0BF@KGJLDEOM@GL_ARB_cull_distance?$AA@ 00000001401c7720     glew32s:glew.obj
 0003:0001b740       ??_C@_0BE@OHIPHHMJ@GL_ARB_debug_output?$AA@ 00000001401c7740     glew32s:glew.obj
 0003:0001b758       ??_C@_0BK@JKFHPKJF@GL_ARB_depth_buffer_float?$AA@ 00000001401c7758     glew32s:glew.obj
 0003:0001b778       ??_C@_0BD@JJEOHKFC@GL_ARB_depth_clamp?$AA@ 00000001401c7778     glew32s:glew.obj
 0003:0001b790       ??_C@_0BF@OKLDDGBF@GL_ARB_depth_texture?$AA@ 00000001401c7790     glew32s:glew.obj
 0003:0001b7b0       ??_C@_0BK@FDDJMLN@GL_ARB_derivative_control?$AA@ 00000001401c77b0     glew32s:glew.obj
 0003:0001b7d0       ??_C@_0BL@PDNNCIDH@GL_ARB_direct_state_access?$AA@ 00000001401c77d0     glew32s:glew.obj
 0003:0001b7f0       ??_C@_0BE@PIDMLBFI@GL_ARB_draw_buffers?$AA@ 00000001401c77f0     glew32s:glew.obj
 0003:0001b808       ??_C@_0BK@EPBDCMLE@GL_ARB_draw_buffers_blend?$AA@ 00000001401c7808     glew32s:glew.obj
 0003:0001b828       ??_C@_0CB@BLEOOCCF@GL_ARB_draw_elements_base_vertex@ 00000001401c7828     glew32s:glew.obj
 0003:0001b850       ??_C@_0BF@OIHOMOBN@GL_ARB_draw_indirect?$AA@ 00000001401c7850     glew32s:glew.obj
 0003:0001b870       ??_C@_0BG@PNHOPBOL@GL_ARB_draw_instanced?$AA@ 00000001401c7870     glew32s:glew.obj
 0003:0001b890       ??_C@_0BI@LFEBAIDE@GL_ARB_enhanced_layouts?$AA@ 00000001401c7890     glew32s:glew.obj
 0003:0001b8b0       ??_C@_0CA@KNDMFIPG@GL_ARB_explicit_attrib_location?$AA@ 00000001401c78b0     glew32s:glew.obj
 0003:0001b8d8       ??_C@_0CB@FHPCHNPI@GL_ARB_explicit_uniform_location@ 00000001401c78d8     glew32s:glew.obj
 0003:0001b900       ??_C@_0CC@FMGHNLMA@GL_ARB_fragment_coord_convention@ 00000001401c7900     glew32s:glew.obj
 0003:0001b928       ??_C@_0BP@JOPGEIBH@GL_ARB_fragment_layer_viewport?$AA@ 00000001401c7928     glew32s:glew.obj
 0003:0001b950       ??_C@_0BI@LELAEDDA@GL_ARB_fragment_program?$AA@ 00000001401c7950     glew32s:glew.obj
 0003:0001b970       ??_C@_0BP@CFLKPHCH@GL_ARB_fragment_program_shadow?$AA@ 00000001401c7970     glew32s:glew.obj
 0003:0001b998       ??_C@_0BH@MOFIMEJB@GL_ARB_fragment_shader?$AA@ 00000001401c7998     glew32s:glew.obj
 0003:0001b9b8       ??_C@_0CB@MHNHALLG@GL_ARB_fragment_shader_interlock@ 00000001401c79b8     glew32s:glew.obj
 0003:0001b9e0       ??_C@_0CC@CGMKCMOO@GL_ARB_framebuffer_no_attachment@ 00000001401c79e0     glew32s:glew.obj
 0003:0001ba08       ??_C@_0BK@EJHLNENJ@GL_ARB_framebuffer_object?$AA@ 00000001401c7a08     glew32s:glew.obj
 0003:0001ba28       ??_C@_0BI@EPKNGDDL@GL_ARB_framebuffer_sRGB?$AA@ 00000001401c7a28     glew32s:glew.obj
 0003:0001ba48       ??_C@_0BI@DHMGIOF@GL_ARB_geometry_shader4?$AA@ 00000001401c7a48     glew32s:glew.obj
 0003:0001ba68       ??_C@_0BK@HNPMALLK@GL_ARB_get_program_binary?$AA@ 00000001401c7a68     glew32s:glew.obj
 0003:0001ba88       ??_C@_0BN@IAACIKEI@GL_ARB_get_texture_sub_image?$AA@ 00000001401c7a88     glew32s:glew.obj
 0003:0001bab0       ??_C@_0BA@DOLDGDCB@GL_ARB_gl_spirv?$AA@ 00000001401c7ab0     glew32s:glew.obj
 0003:0001bac8       ??_C@_0BD@PDEHIDCA@GL_ARB_gpu_shader5?$AA@ 00000001401c7ac8     glew32s:glew.obj
 0003:0001bae0       ??_C@_0BH@JHCDBEBL@GL_ARB_gpu_shader_fp64?$AA@ 00000001401c7ae0     glew32s:glew.obj
 0003:0001bb00       ??_C@_0BI@CNMHMGOB@GL_ARB_gpu_shader_int64?$AA@ 00000001401c7b00     glew32s:glew.obj
 0003:0001bb20       ??_C@_0BI@DMCPNBMK@GL_ARB_half_float_pixel?$AA@ 00000001401c7b20     glew32s:glew.obj
 0003:0001bb40       ??_C@_0BJ@CFLNBBBE@GL_ARB_half_float_vertex?$AA@ 00000001401c7b40     glew32s:glew.obj
 0003:0001bb60       ??_C@_0P@GDHEIIHD@GL_ARB_imaging?$AA@ 00000001401c7b60     glew32s:glew.obj
 0003:0001bb78       ??_C@_0BL@KOLCPNBO@GL_ARB_indirect_parameters?$AA@ 00000001401c7b78     glew32s:glew.obj
 0003:0001bb98       ??_C@_0BI@GEEEIEIJ@GL_ARB_instanced_arrays?$AA@ 00000001401c7b98     glew32s:glew.obj
 0003:0001bbb8       ??_C@_0BM@CAEGIJIO@GL_ARB_internalformat_query?$AA@ 00000001401c7bb8     glew32s:glew.obj
 0003:0001bbe0       ??_C@_0BN@OHFALMNP@GL_ARB_internalformat_query2?$AA@ 00000001401c7be0     glew32s:glew.obj
 0003:0001bc08       ??_C@_0BK@HKMBDNBJ@GL_ARB_invalidate_subdata?$AA@ 00000001401c7c08     glew32s:glew.obj
 0003:0001bc28       ??_C@_0BM@NDAFEKMA@GL_ARB_map_buffer_alignment?$AA@ 00000001401c7c28     glew32s:glew.obj
 0003:0001bc50       ??_C@_0BI@KIPAKECP@GL_ARB_map_buffer_range?$AA@ 00000001401c7c50     glew32s:glew.obj
 0003:0001bc70       ??_C@_0BG@CILLCDJH@GL_ARB_matrix_palette?$AA@ 00000001401c7c70     glew32s:glew.obj
 0003:0001bc90       ??_C@_0BC@HHGOLJHF@GL_ARB_multi_bind?$AA@ 00000001401c7c90     glew32s:glew.obj
 0003:0001bca8       ??_C@_0BL@PDDLDNGB@GL_ARB_multi_draw_indirect?$AA@ 00000001401c7ca8     glew32s:glew.obj
 0003:0001bcc8       ??_C@_0BD@PNEOICHK@GL_ARB_multisample?$AA@ 00000001401c7cc8     glew32s:glew.obj
 0003:0001bce0       ??_C@_0BE@MEMOPMEA@GL_ARB_multitexture?$AA@ 00000001401c7ce0     glew32s:glew.obj
 0003:0001bcf8       ??_C@_0BH@NKOBMOPI@GL_ARB_occlusion_query?$AA@ 00000001401c7cf8     glew32s:glew.obj
 0003:0001bd18       ??_C@_0BI@FOMMMPJB@GL_ARB_occlusion_query2?$AA@ 00000001401c7d18     glew32s:glew.obj
 0003:0001bd38       ??_C@_0BP@NIOBFMIN@GL_ARB_parallel_shader_compile?$AA@ 00000001401c7d38     glew32s:glew.obj
 0003:0001bd60       ??_C@_0CB@HBLEHCJL@GL_ARB_pipeline_statistics_query@ 00000001401c7d60     glew32s:glew.obj
 0003:0001bd88       ??_C@_0BL@CHKAOFBM@GL_ARB_pixel_buffer_object?$AA@ 00000001401c7d88     glew32s:glew.obj
 0003:0001bda8       ??_C@_0BI@KJOBMOPB@GL_ARB_point_parameters?$AA@ 00000001401c7da8     glew32s:glew.obj
 0003:0001bdc8       ??_C@_0BE@BANNBDJA@GL_ARB_point_sprite?$AA@ 00000001401c7dc8     glew32s:glew.obj
 0003:0001bde0       ??_C@_0BM@FIFAJGJE@GL_ARB_polygon_offset_clamp?$AA@ 00000001401c7de0     glew32s:glew.obj
 0003:0001be08       ??_C@_0BL@PCKOEGBE@GL_ARB_post_depth_coverage?$AA@ 00000001401c7e08     glew32s:glew.obj
 0003:0001be28       ??_C@_0BP@DBPLPPLA@GL_ARB_program_interface_query?$AA@ 00000001401c7e28     glew32s:glew.obj
 0003:0001be50       ??_C@_0BI@NPHNNGHO@GL_ARB_provoking_vertex?$AA@ 00000001401c7e50     glew32s:glew.obj
 0003:0001be70       ??_C@_0BL@MHPJGAHK@GL_ARB_query_buffer_object?$AA@ 00000001401c7e70     glew32s:glew.obj
 0003:0001be90       ??_C@_0CF@FPMNBHKM@GL_ARB_robust_buffer_access_beha@ 00000001401c7e90     glew32s:glew.obj
 0003:0001bec0       ??_C@_0BC@EOBKJDCM@GL_ARB_robustness?$AA@ 00000001401c7ec0     glew32s:glew.obj
 0003:0001bed8       ??_C@_0CI@NPCKNLCF@GL_ARB_robustness_application_is@ 00000001401c7ed8     glew32s:glew.obj
 0003:0001bf08       ??_C@_0CI@GGMOEMOD@GL_ARB_robustness_share_group_is@ 00000001401c7f08     glew32s:glew.obj
 0003:0001bf38       ??_C@_0BI@PPFNMEHA@GL_ARB_sample_locations?$AA@ 00000001401c7f38     glew32s:glew.obj
 0003:0001bf58       ??_C@_0BG@OGBJIDCC@GL_ARB_sample_shading?$AA@ 00000001401c7f58     glew32s:glew.obj
 0003:0001bf78       ??_C@_0BH@CHCPNBIE@GL_ARB_sampler_objects?$AA@ 00000001401c7f78     glew32s:glew.obj
 0003:0001bf98       ??_C@_0BJ@HMEOFOCO@GL_ARB_seamless_cube_map?$AA@ 00000001401c7f98     glew32s:glew.obj
 0003:0001bfb8       ??_C@_0CE@JBFBOCKL@GL_ARB_seamless_cubemap_per_text@ 00000001401c7fb8     glew32s:glew.obj
 0003:0001bfe8       ??_C@_0BP@CCMMHIFB@GL_ARB_separate_shader_objects?$AA@ 00000001401c7fe8     glew32s:glew.obj
 0003:0001c010       ??_C@_0CB@CMBKMJLH@GL_ARB_shader_atomic_counter_ops@ 00000001401c8010     glew32s:glew.obj
 0003:0001c038       ??_C@_0BO@IIINIEKI@GL_ARB_shader_atomic_counters?$AA@ 00000001401c8038     glew32s:glew.obj
 0003:0001c060       ??_C@_0BF@GOCPIPGD@GL_ARB_shader_ballot?$AA@ 00000001401c8060     glew32s:glew.obj
 0003:0001c080       ??_C@_0BL@OPPDFHHK@GL_ARB_shader_bit_encoding?$AA@ 00000001401c8080     glew32s:glew.obj
 0003:0001c0a0       ??_C@_0BE@FNKIALHB@GL_ARB_shader_clock?$AA@ 00000001401c80a0     glew32s:glew.obj
 0003:0001c0b8       ??_C@_0BO@LPBAPNPP@GL_ARB_shader_draw_parameters?$AA@ 00000001401c80b8     glew32s:glew.obj
 0003:0001c0e0       ??_C@_0BJ@DOADEEII@GL_ARB_shader_group_vote?$AA@ 00000001401c80e0     glew32s:glew.obj
 0003:0001c100       ??_C@_0BP@JHNJKEFP@GL_ARB_shader_image_load_store?$AA@ 00000001401c8100     glew32s:glew.obj
 0003:0001c128       ??_C@_0BJ@JOHPBGOA@GL_ARB_shader_image_size?$AA@ 00000001401c8128     glew32s:glew.obj
 0003:0001c148       ??_C@_0BG@OLLFAEMA@GL_ARB_shader_objects?$AA@ 00000001401c8148     glew32s:glew.obj
 0003:0001c168       ??_C@_0BI@JIOIMFNJ@GL_ARB_shader_precision?$AA@ 00000001401c8168     glew32s:glew.obj
 0003:0001c188       ??_C@_0BN@NCLBCBKA@GL_ARB_shader_stencil_export?$AA@ 00000001401c8188     glew32s:glew.obj
 0003:0001c1b0       ??_C@_0CE@HBCJMOIO@GL_ARB_shader_storage_buffer_obj@ 00000001401c81b0     glew32s:glew.obj
 0003:0001c1e0       ??_C@_0BJ@EAMBOGJL@GL_ARB_shader_subroutine?$AA@ 00000001401c81e0     glew32s:glew.obj
 0003:0001c200       ??_C@_0CE@OONEBAFK@GL_ARB_shader_texture_image_samp@ 00000001401c8200     glew32s:glew.obj
 0003:0001c230       ??_C@_0BK@JGFNKCEO@GL_ARB_shader_texture_lod?$AA@ 00000001401c8230     glew32s:glew.obj
 0003:0001c250       ??_C@_0CD@GFLKLCBB@GL_ARB_shader_viewport_layer_arr@ 00000001401c8250     glew32s:glew.obj
 0003:0001c280       ??_C@_0BM@IABMMANC@GL_ARB_shading_language_100?$AA@ 00000001401c8280     glew32s:glew.obj
 0003:0001c2a8       ??_C@_0CA@HPJCJBNO@GL_ARB_shading_language_420pack?$AA@ 00000001401c82a8     glew32s:glew.obj
 0003:0001c2d0       ??_C@_0CA@DOHJAPBD@GL_ARB_shading_language_include?$AA@ 00000001401c82d0     glew32s:glew.obj
 0003:0001c2f8       ??_C@_0CA@DMILIGJJ@GL_ARB_shading_language_packing?$AA@ 00000001401c82f8     glew32s:glew.obj
 0003:0001c320       ??_C@_0O@LPGJHGJB@GL_ARB_shadow?$AA@ 00000001401c8320     glew32s:glew.obj
 0003:0001c330       ??_C@_0BG@FOMJHFAK@GL_ARB_shadow_ambient?$AA@ 00000001401c8330     glew32s:glew.obj
 0003:0001c350       ??_C@_0BF@MCPOLAFD@GL_ARB_sparse_buffer?$AA@ 00000001401c8350     glew32s:glew.obj
 0003:0001c370       ??_C@_0BG@EEMFDFOI@GL_ARB_sparse_texture?$AA@ 00000001401c8370     glew32s:glew.obj
 0003:0001c390       ??_C@_0BH@EDOFPLAO@GL_ARB_sparse_texture2?$AA@ 00000001401c8390     glew32s:glew.obj
 0003:0001c3b0       ??_C@_0BM@EOEDFKDE@GL_ARB_sparse_texture_clamp?$AA@ 00000001401c83b0     glew32s:glew.obj
 0003:0001c3d8       ??_C@_0BI@ELHBHDFI@GL_ARB_spirv_extensions?$AA@ 00000001401c83d8     glew32s:glew.obj
 0003:0001c3f8       ??_C@_0BJ@PHEHMICE@GL_ARB_stencil_texturing?$AA@ 00000001401c83f8     glew32s:glew.obj
 0003:0001c418       ??_C@_0M@OGKHMI@GL_ARB_sync?$AA@ 00000001401c8418     glew32s:glew.obj
 0003:0001c428       ??_C@_0BL@MJOBOBBG@GL_ARB_tessellation_shader?$AA@ 00000001401c8428     glew32s:glew.obj
 0003:0001c448       ??_C@_0BH@FNOGDEPL@GL_ARB_texture_barrier?$AA@ 00000001401c8448     glew32s:glew.obj
 0003:0001c468       ??_C@_0BM@CBHOGGCB@GL_ARB_texture_border_clamp?$AA@ 00000001401c8468     glew32s:glew.obj
 0003:0001c490       ??_C@_0BN@IPJPHCKH@GL_ARB_texture_buffer_object?$AA@ 00000001401c8490     glew32s:glew.obj
 0003:0001c4b8       ??_C@_0CD@GKFGJBEP@GL_ARB_texture_buffer_object_rgb@ 00000001401c84b8     glew32s:glew.obj
 0003:0001c4e8       ??_C@_0BM@IPNAGCND@GL_ARB_texture_buffer_range?$AA@ 00000001401c84e8     glew32s:glew.obj
 0003:0001c510       ??_C@_0BL@PEFPCGDJ@GL_ARB_texture_compression?$AA@ 00000001401c8510     glew32s:glew.obj
 0003:0001c530       ??_C@_0CA@FGGFKBFK@GL_ARB_texture_compression_bptc?$AA@ 00000001401c8530     glew32s:glew.obj
 0003:0001c558       ??_C@_0CA@PLELFJPO@GL_ARB_texture_compression_rgtc?$AA@ 00000001401c8558     glew32s:glew.obj
 0003:0001c580       ??_C@_0BI@GGDPEJMJ@GL_ARB_texture_cube_map?$AA@ 00000001401c8580     glew32s:glew.obj
 0003:0001c5a0       ??_C@_0BO@GEOPNHJA@GL_ARB_texture_cube_map_array?$AA@ 00000001401c85a0     glew32s:glew.obj
 0003:0001c5c8       ??_C@_0BH@NLEFBDKH@GL_ARB_texture_env_add?$AA@ 00000001401c85c8     glew32s:glew.obj
 0003:0001c5e8       ??_C@_0BL@MKOBGLKK@GL_ARB_texture_env_combine?$AA@ 00000001401c85e8     glew32s:glew.obj
 0003:0001c608       ??_C@_0BM@PEOEMMED@GL_ARB_texture_env_crossbar?$AA@ 00000001401c8608     glew32s:glew.obj
 0003:0001c630       ??_C@_0BI@LPMFLNGJ@GL_ARB_texture_env_dot3?$AA@ 00000001401c8630     glew32s:glew.obj
 0003:0001c650       ??_C@_0CC@HOPEEMOD@GL_ARB_texture_filter_anisotropi@ 00000001401c8650     glew32s:glew.obj
 0003:0001c678       ??_C@_0BN@MGHOIDFB@GL_ARB_texture_filter_minmax?$AA@ 00000001401c8678     glew32s:glew.obj
 0003:0001c6a0       ??_C@_0BF@IMLAOOOI@GL_ARB_texture_float?$AA@ 00000001401c86a0     glew32s:glew.obj
 0003:0001c6c0       ??_C@_0BG@NOGBPJOE@GL_ARB_texture_gather?$AA@ 00000001401c86c0     glew32s:glew.obj
 0003:0001c6e0       ??_C@_0CE@HPKFBBOA@GL_ARB_texture_mirror_clamp_to_e@ 00000001401c86e0     glew32s:glew.obj
 0003:0001c710       ??_C@_0BP@ELHJKLAO@GL_ARB_texture_mirrored_repeat?$AA@ 00000001401c8710     glew32s:glew.obj
 0003:0001c738       ??_C@_0BL@JLKLCCCH@GL_ARB_texture_multisample?$AA@ 00000001401c8738     glew32s:glew.obj
 0003:0001c758       ??_C@_0CA@IICOLDCN@GL_ARB_texture_non_power_of_two?$AA@ 00000001401c8758     glew32s:glew.obj
 0003:0001c780       ??_C@_0BM@ILGJDCPP@GL_ARB_texture_query_levels?$AA@ 00000001401c8780     glew32s:glew.obj
 0003:0001c7a8       ??_C@_0BJ@IHKMCACP@GL_ARB_texture_query_lod?$AA@ 00000001401c87a8     glew32s:glew.obj
 0003:0001c7c8       ??_C@_0BJ@NKHMPMDJ@GL_ARB_texture_rectangle?$AA@ 00000001401c87c8     glew32s:glew.obj
 0003:0001c7e8       ??_C@_0BC@DGGKEDEG@GL_ARB_texture_rg?$AA@ 00000001401c87e8     glew32s:glew.obj
 0003:0001c800       ??_C@_0BK@GLCDDEKH@GL_ARB_texture_rgb10_a2ui?$AA@ 00000001401c8800     glew32s:glew.obj
 0003:0001c820       ??_C@_0BI@HCPOFBOF@GL_ARB_texture_stencil8?$AA@ 00000001401c8820     glew32s:glew.obj
 0003:0001c840       ??_C@_0BH@KEOKNPHF@GL_ARB_texture_storage?$AA@ 00000001401c8840     glew32s:glew.obj
 0003:0001c860       ??_C@_0CD@EKHGLAOK@GL_ARB_texture_storage_multisamp@ 00000001401c8860     glew32s:glew.obj
 0003:0001c890       ??_C@_0BH@PIGGFCEL@GL_ARB_texture_swizzle?$AA@ 00000001401c8890     glew32s:glew.obj
 0003:0001c8b0       ??_C@_0BE@HCMLPJMK@GL_ARB_texture_view?$AA@ 00000001401c88b0     glew32s:glew.obj
 0003:0001c8c8       ??_C@_0BD@HBOIOKNA@GL_ARB_timer_query?$AA@ 00000001401c88c8     glew32s:glew.obj
 0003:0001c8e0       ??_C@_0BL@EGOBOOAA@GL_ARB_transform_feedback2?$AA@ 00000001401c88e0     glew32s:glew.obj
 0003:0001c900       ??_C@_0BL@FPPKNPEB@GL_ARB_transform_feedback3?$AA@ 00000001401c8900     glew32s:glew.obj
 0003:0001c920       ??_C@_0CE@HBNDFFCP@GL_ARB_transform_feedback_instan@ 00000001401c8920     glew32s:glew.obj
 0003:0001c950       ??_C@_0CJ@IBFLJHOL@GL_ARB_transform_feedback_overfl@ 00000001401c8950     glew32s:glew.obj
 0003:0001c988       ??_C@_0BI@OLAKMOK@GL_ARB_transpose_matrix?$AA@ 00000001401c8988     glew32s:glew.obj
 0003:0001c9a8       ??_C@_0BN@GLDJDGLC@GL_ARB_uniform_buffer_object?$AA@ 00000001401c89a8     glew32s:glew.obj
 0003:0001c9d0       ??_C@_0BJ@JBPDEAAE@GL_ARB_vertex_array_bgra?$AA@ 00000001401c89d0     glew32s:glew.obj
 0003:0001c9f0       ??_C@_0BL@PNJKGHIL@GL_ARB_vertex_array_object?$AA@ 00000001401c89f0     glew32s:glew.obj
 0003:0001ca10       ??_C@_0BL@KMJMBFGI@GL_ARB_vertex_attrib_64bit?$AA@ 00000001401c8a10     glew32s:glew.obj
 0003:0001ca30       ??_C@_0BN@BGEDEMFB@GL_ARB_vertex_attrib_binding?$AA@ 00000001401c8a30     glew32s:glew.obj
 0003:0001ca58       ??_C@_0BE@HEPDDKDL@GL_ARB_vertex_blend?$AA@ 00000001401c8a58     glew32s:glew.obj
 0003:0001ca70       ??_C@_0BM@OOMEFFAE@GL_ARB_vertex_buffer_object?$AA@ 00000001401c8a70     glew32s:glew.obj
 0003:0001ca98       ??_C@_0BG@LDHOGOBF@GL_ARB_vertex_program?$AA@ 00000001401c8a98     glew32s:glew.obj
 0003:0001cab8       ??_C@_0BF@GNLBPIJF@GL_ARB_vertex_shader?$AA@ 00000001401c8ab8     glew32s:glew.obj
 0003:0001cad8       ??_C@_0CD@MKMCLBCO@GL_ARB_vertex_type_10f_11f_11f_r@ 00000001401c8ad8     glew32s:glew.obj
 0003:0001cb08       ??_C@_0CC@GKEHOMBK@GL_ARB_vertex_type_2_10_10_10_re@ 00000001401c8b08     glew32s:glew.obj
 0003:0001cb30       ??_C@_0BG@NIIIOCNH@GL_ARB_viewport_array?$AA@ 00000001401c8b30     glew32s:glew.obj
 0003:0001cb50       ??_C@_0BC@KMCGGFBD@GL_ARB_window_pos?$AA@ 00000001401c8b50     glew32s:glew.obj
 0003:0001cb68       ??_C@_0BL@NOMIJPPO@GL_ARM_mali_program_binary?$AA@ 00000001401c8b68     glew32s:glew.obj
 0003:0001cb88       ??_C@_0BK@PLEBCOJN@GL_ARM_mali_shader_binary?$AA@ 00000001401c8b88     glew32s:glew.obj
 0003:0001cba8       ??_C@_0N@GNOJDOC@GL_ARM_rgba8?$AA@ 00000001401c8ba8     glew32s:glew.obj
 0003:0001cbb8       ??_C@_0CA@BGLLEAAH@GL_ARM_shader_framebuffer_fetch?$AA@ 00000001401c8bb8     glew32s:glew.obj
 0003:0001cbe0       ??_C@_0CO@CBLHFFBI@GL_ARM_shader_framebuffer_fetch_@ 00000001401c8be0     glew32s:glew.obj
 0003:0001cc18       ??_C@_0BG@FOBNHJEC@GL_ATIX_point_sprites?$AA@ 00000001401c8c18     glew32s:glew.obj
 0003:0001cc38       ??_C@_0BN@PAGBIIJH@GL_ATIX_texture_env_combine3?$AA@ 00000001401c8c38     glew32s:glew.obj
 0003:0001cc60       ??_C@_0BK@PMLAFJLP@GL_ATIX_texture_env_route?$AA@ 00000001401c8c60     glew32s:glew.obj
 0003:0001cc80       ??_C@_0CI@ICFKCCCO@GL_ATIX_vertex_shader_output_poi@ 00000001401c8c80     glew32s:glew.obj
 0003:0001ccb0       ??_C@_0BE@HFFJHOEC@GL_ATI_draw_buffers?$AA@ 00000001401c8cb0     glew32s:glew.obj
 0003:0001ccc8       ??_C@_0BF@ECDIFKJP@GL_ATI_element_array?$AA@ 00000001401c8cc8     glew32s:glew.obj
 0003:0001cce8       ??_C@_0BG@HDIOEPEI@GL_ATI_envmap_bumpmap?$AA@ 00000001401c8ce8     glew32s:glew.obj
 0003:0001cd08       ??_C@_0BH@KOFDLMOM@GL_ATI_fragment_shader?$AA@ 00000001401c8d08     glew32s:glew.obj
 0003:0001cd28       ??_C@_0BJ@JJAIEKEE@GL_ATI_map_object_buffer?$AA@ 00000001401c8d28     glew32s:glew.obj
 0003:0001cd48       ??_C@_0P@FHGLGEEJ@GL_ATI_meminfo?$AA@ 00000001401c8d48     glew32s:glew.obj
 0003:0001cd60       ??_C@_0BE@JBMJFJLH@GL_ATI_pn_triangles?$AA@ 00000001401c8d60     glew32s:glew.obj
 0003:0001cd78       ??_C@_0BI@MNCDOEAG@GL_ATI_separate_stencil?$AA@ 00000001401c8d78     glew32s:glew.obj
 0003:0001cd98       ??_C@_0BK@LKEAHDFL@GL_ATI_shader_texture_lod?$AA@ 00000001401c8d98     glew32s:glew.obj
 0003:0001cdb8       ??_C@_0BM@FPCKLJJL@GL_ATI_text_fragment_shader?$AA@ 00000001401c8db8     glew32s:glew.obj
 0003:0001cde0       ??_C@_0BP@HEOEDDKJ@GL_ATI_texture_compression_3dc?$AA@ 00000001401c8de0     glew32s:glew.obj
 0003:0001ce08       ??_C@_0BM@EMDOGOG@GL_ATI_texture_env_combine3?$AA@ 00000001401c8e08     glew32s:glew.obj
 0003:0001ce30       ??_C@_0BF@HBFPHCFN@GL_ATI_texture_float?$AA@ 00000001401c8e30     glew32s:glew.obj
 0003:0001ce50       ??_C@_0BL@IHPJBFNP@GL_ATI_texture_mirror_once?$AA@ 00000001401c8e50     glew32s:glew.obj
 0003:0001ce70       ??_C@_0BL@JAGLJOLB@GL_ATI_vertex_array_object?$AA@ 00000001401c8e70     glew32s:glew.obj
 0003:0001ce90       ??_C@_0CC@PHCKILMI@GL_ATI_vertex_attrib_array_objec@ 00000001401c8e90     glew32s:glew.obj
 0003:0001ceb8       ??_C@_0BG@LPKIIILM@GL_ATI_vertex_streams?$AA@ 00000001401c8eb8     glew32s:glew.obj
 0003:0001ced8       ??_C@_0CB@PBDKMOMO@GL_EGL_KHR_context_flush_control@ 00000001401c8ed8     glew32s:glew.obj
 0003:0001cf00       ??_C@_0CI@GGKKBFEB@GL_EGL_NV_robustness_video_memor@ 00000001401c8f00     glew32s:glew.obj
 0003:0001cf30       ??_C@_0BC@BMDKDJNI@GL_EXT_422_pixels?$AA@ 00000001401c8f30     glew32s:glew.obj
 0003:0001cf48       ??_C@_0BB@OBIMPKEC@GL_EXT_Cg_shader?$AA@ 00000001401c8f48     glew32s:glew.obj
 0003:0001cf60       ??_C@_0BH@GLBPBEKF@GL_EXT_EGL_image_array?$AA@ 00000001401c8f60     glew32s:glew.obj
 0003:0001cf80       ??_C@_0BC@NPLPGFK@GL_EXT_YUV_target?$AA@ 00000001401c8f80     glew32s:glew.obj
 0003:0001cf98       ??_C@_0M@JPEEPBL@GL_EXT_abgr?$AA@ 00000001401c8f98     glew32s:glew.obj
 0003:0001cfa8       ??_C@_0BF@DNFDOELF@GL_EXT_base_instance?$AA@ 00000001401c8fa8     glew32s:glew.obj
 0003:0001cfc8       ??_C@_0BE@PJFGNMAG@glCopyTexSubImage3D?$AA@ 00000001401c8fc8     glew32s:glew.obj
 0003:0001cfe0       ??_C@_0BE@IHNAGJGJ@glDrawRangeElements?$AA@ 00000001401c8fe0     glew32s:glew.obj
 0003:0001cff8       ??_C@_0N@JAEIBBBF@glTexImage3D?$AA@ 00000001401c8ff8     glew32s:glew.obj
 0003:0001d008       ??_C@_0BA@NGGKPOPN@glTexSubImage3D?$AA@ 00000001401c9008     glew32s:glew.obj
 0003:0001d020       ??_C@_0BA@KOBBIKOF@glActiveTexture?$AA@ 00000001401c9020     glew32s:glew.obj
 0003:0001d038       ??_C@_0BG@EGKOMLFO@glClientActiveTexture?$AA@ 00000001401c9038     glew32s:glew.obj
 0003:0001d058       ??_C@_0BH@GFPJBEAB@glCompressedTexImage1D?$AA@ 00000001401c9058     glew32s:glew.obj
 0003:0001d078       ??_C@_0BH@GHLPKKFI@glCompressedTexImage2D?$AA@ 00000001401c9078     glew32s:glew.obj
 0003:0001d098       ??_C@_0BH@GGHNMAGP@glCompressedTexImage3D?$AA@ 00000001401c9098     glew32s:glew.obj
 0003:0001d0b8       ??_C@_0BK@ECBIPHJO@glCompressedTexSubImage1D?$AA@ 00000001401c90b8     glew32s:glew.obj
 0003:0001d0d8       ??_C@_0BK@EAFOEJMH@glCompressedTexSubImage2D?$AA@ 00000001401c90d8     glew32s:glew.obj
 0003:0001d0f8       ??_C@_0BK@EBJMCDPA@glCompressedTexSubImage3D?$AA@ 00000001401c90f8     glew32s:glew.obj
 0003:0001d118       ??_C@_0BI@MPANLPPL@glGetCompressedTexImage?$AA@ 00000001401c9118     glew32s:glew.obj
 0003:0001d138       ??_C@_0BH@DMKLNEPC@glLoadTransposeMatrixd?$AA@ 00000001401c9138     glew32s:glew.obj
 0003:0001d158       ??_C@_0BH@OJNLGHA@glLoadTransposeMatrixf?$AA@ 00000001401c9158     glew32s:glew.obj
 0003:0001d178       ??_C@_0BH@NCKJAFA@glMultTransposeMatrixd?$AA@ 00000001401c9178     glew32s:glew.obj
 0003:0001d198       ??_C@_0BH@DPBMPCNC@glMultTransposeMatrixf?$AA@ 00000001401c9198     glew32s:glew.obj
 0003:0001d1b8       ??_C@_0BC@IHHPPFPP@glMultiTexCoord1d?$AA@ 00000001401c91b8     glew32s:glew.obj
 0003:0001d1d0       ??_C@_0BD@FEOAEOAI@glMultiTexCoord1dv?$AA@ 00000001401c91d0     glew32s:glew.obj
 0003:0001d1e8       ??_C@_0BC@LFEJJHHN@glMultiTexCoord1f?$AA@ 00000001401c91e8     glew32s:glew.obj
 0003:0001d200       ??_C@_0BD@FHGEJKGG@glMultiTexCoord1fv?$AA@ 00000001401c9200     glew32s:glew.obj
 0003:0001d218       ??_C@_0BC@DCNBILLC@glMultiTexCoord1i?$AA@ 00000001401c9218     glew32s:glew.obj
 0003:0001d230       ??_C@_0BD@FMDINNFL@glMultiTexCoord1iv?$AA@ 00000001401c9230     glew32s:glew.obj
 0003:0001d248       ??_C@_0BC@ICPMHBGJ@glMultiTexCoord1s?$AA@ 00000001401c9248     glew32s:glew.obj
 0003:0001d260       ??_C@_0BD@ENIJPLPN@glMultiTexCoord1sv?$AA@ 00000001401c9260     glew32s:glew.obj
 0003:0001d278       ??_C@_0BC@IFDJELKG@glMultiTexCoord2d?$AA@ 00000001401c9278     glew32s:glew.obj
 0003:0001d290       ??_C@_0BD@EGFFOBOG@glMultiTexCoord2dv?$AA@ 00000001401c9290     glew32s:glew.obj
 0003:0001d2a8       ??_C@_0BC@LHAPCJCE@glMultiTexCoord2f?$AA@ 00000001401c92a8     glew32s:glew.obj
 0003:0001d2c0       ??_C@_0BD@EFNBDFII@glMultiTexCoord2fv?$AA@ 00000001401c92c0     glew32s:glew.obj
 0003:0001d2d8       ??_C@_0BC@DAJHDFOL@glMultiTexCoord2i?$AA@ 00000001401c92d8     glew32s:glew.obj
 0003:0001d2f0       ??_C@_0BD@EOINHCLF@glMultiTexCoord2iv?$AA@ 00000001401c92f0     glew32s:glew.obj
 0003:0001d308       ??_C@_0BC@IALKMPDA@glMultiTexCoord2s?$AA@ 00000001401c9308     glew32s:glew.obj
 0003:0001d320       ??_C@_0BD@FPDMFEBD@glMultiTexCoord2sv?$AA@ 00000001401c9320     glew32s:glew.obj
 0003:0001d338       ??_C@_0BC@IEPLCBJB@glMultiTexCoord3d?$AA@ 00000001401c9338     glew32s:glew.obj
 0003:0001d350       ??_C@_0BD@POOJIGID@glMultiTexCoord3dv?$AA@ 00000001401c9350     glew32s:glew.obj
 0003:0001d368       ??_C@_0BC@LGMNEDBD@glMultiTexCoord3f?$AA@ 00000001401c9368     glew32s:glew.obj
 0003:0001d380       ??_C@_0BD@PNGNFCON@glMultiTexCoord3fv?$AA@ 00000001401c9380     glew32s:glew.obj
 0003:0001d398       ??_C@_0BC@DBFFFPNM@glMultiTexCoord3i?$AA@ 00000001401c9398     glew32s:glew.obj
 0003:0001d3b0       ??_C@_0BD@PGDBBFNA@glMultiTexCoord3iv?$AA@ 00000001401c93b0     glew32s:glew.obj
 0003:0001d3c8       ??_C@_0BC@IBHIKFAH@glMultiTexCoord3s?$AA@ 00000001401c93c8     glew32s:glew.obj
 0003:0001d3e0       ??_C@_0BD@OHIADDHG@glMultiTexCoord3sv?$AA@ 00000001401c93e0     glew32s:glew.obj
 0003:0001d3f8       ??_C@_0BC@IBLEDHBE@glMultiTexCoord4d?$AA@ 00000001401c93f8     glew32s:glew.obj
 0003:0001d410       ??_C@_0BD@GDDOLODK@glMultiTexCoord4dv?$AA@ 00000001401c9410     glew32s:glew.obj
 0003:0001d428       ??_C@_0BC@LDICFFJG@glMultiTexCoord4f?$AA@ 00000001401c9428     glew32s:glew.obj
 0003:0001d440       ??_C@_0BD@GALKGKFE@glMultiTexCoord4fv?$AA@ 00000001401c9440     glew32s:glew.obj
 0003:0001d458       ??_C@_0BC@DEBKEJFJ@glMultiTexCoord4i?$AA@ 00000001401c9458     glew32s:glew.obj
 0003:0001d470       ??_C@_0BD@GLOGCNGJ@glMultiTexCoord4iv?$AA@ 00000001401c9470     glew32s:glew.obj
 0003:0001d488       ??_C@_0BC@IEDHLDIC@glMultiTexCoord4s?$AA@ 00000001401c9488     glew32s:glew.obj
 0003:0001d4a0       ??_C@_0BD@HKFHALMP@glMultiTexCoord4sv?$AA@ 00000001401c94a0     glew32s:glew.obj
 0003:0001d4b8       ??_C@_0BB@BJGIPMOA@glSampleCoverage?$AA@ 00000001401c94b8     glew32s:glew.obj
 0003:0001d4d0       ??_C@_0N@PKBMFJDK@glBlendColor?$AA@ 00000001401c94d0     glew32s:glew.obj
 0003:0001d4e0       ??_C@_0BA@PFHILPAN@glBlendEquation?$AA@ 00000001401c94e0     glew32s:glew.obj
 0003:0001d4f8       ??_C@_0BE@LLLCIIOO@glBlendFuncSeparate?$AA@ 00000001401c94f8     glew32s:glew.obj
 0003:0001d510       ??_C@_0BC@GECGFLP@glFogCoordPointer?$AA@ 00000001401c9510     glew32s:glew.obj
 0003:0001d528       ??_C@_0M@FACELPGH@glFogCoordd?$AA@ 00000001401c9528     glew32s:glew.obj
 0003:0001d538       ??_C@_0N@KKODAODE@glFogCoorddv?$AA@ 00000001401c9538     glew32s:glew.obj
 0003:0001d548       ??_C@_0M@GCBCNNOF@glFogCoordf?$AA@ 00000001401c9548     glew32s:glew.obj
 0003:0001d558       ??_C@_0N@KJGHNKFK@glFogCoordfv?$AA@ 00000001401c9558     glew32s:glew.obj
 0003:0001d568       ??_C@_0BC@IBABPJFA@glMultiDrawArrays?$AA@ 00000001401c9568     glew32s:glew.obj
 0003:0001d580       ??_C@_0BE@MPDFJJLL@glMultiDrawElements?$AA@ 00000001401c9580     glew32s:glew.obj
 0003:0001d598       ??_C@_0BC@FGOOEDO@glPointParameterf?$AA@ 00000001401c9598     glew32s:glew.obj
 0003:0001d5b0       ??_C@_0BD@LIABKNDP@glPointParameterfv?$AA@ 00000001401c95b0     glew32s:glew.obj
 0003:0001d5c8       ??_C@_0BC@ICPGPIPB@glPointParameteri?$AA@ 00000001401c95c8     glew32s:glew.obj
 0003:0001d5e0       ??_C@_0BD@LDFNOKAC@glPointParameteriv?$AA@ 00000001401c95e0     glew32s:glew.obj
 0003:0001d5f8       ??_C@_0BD@MCCHHBGK@glSecondaryColor3b?$AA@ 00000001401c95f8     glew32s:glew.obj
 0003:0001d610       ??_C@_0BE@NEMAHBEH@glSecondaryColor3bv?$AA@ 00000001401c9610     glew32s:glew.obj
 0003:0001d628       ??_C@_0BD@JEHNNGOM@glSecondaryColor3d?$AA@ 00000001401c9628     glew32s:glew.obj
 0003:0001d640       ??_C@_0BE@NAENANPF@glSecondaryColor3dv?$AA@ 00000001401c9640     glew32s:glew.obj
 0003:0001d658       ??_C@_0BD@KGELLEGO@glSecondaryColor3f?$AA@ 00000001401c9658     glew32s:glew.obj
 0003:0001d670       ??_C@_0BE@NDMJNJJL@glSecondaryColor3fv?$AA@ 00000001401c9670     glew32s:glew.obj
 0003:0001d688       ??_C@_0BD@CBNDKIKB@glSecondaryColor3i?$AA@ 00000001401c9688     glew32s:glew.obj
 0003:0001d6a0       ??_C@_0BE@NIJFJOKG@glSecondaryColor3iv?$AA@ 00000001401c96a0     glew32s:glew.obj
 0003:0001d6b8       ??_C@_0BD@JBPOFCHK@glSecondaryColor3s?$AA@ 00000001401c96b8     glew32s:glew.obj
 0003:0001d6d0       ??_C@_0BE@MJCELIAA@glSecondaryColor3sv?$AA@ 00000001401c96d0     glew32s:glew.obj
 0003:0001d6e8       ??_C@_0BE@ODAHBDOH@glSecondaryColor3ub?$AA@ 00000001401c96e8     glew32s:glew.obj
 0003:0001d700       ??_C@_0BF@EHOIKOLI@glSecondaryColor3ubv?$AA@ 00000001401c9700     glew32s:glew.obj
 0003:0001d720       ??_C@_0BE@PDMKCM@glSecondaryColor3ui?$AA@ 00000001401c9720     glew32s:glew.obj
 0003:0001d738       ??_C@_0BF@ELLNEBFJ@glSecondaryColor3uiv?$AA@ 00000001401c9738     glew32s:glew.obj
 0003:0001d758       ??_C@_0BE@LANODAPH@glSecondaryColor3us?$AA@ 00000001401c9758     glew32s:glew.obj
 0003:0001d770       ??_C@_0BF@FKAMGHPP@glSecondaryColor3usv?$AA@ 00000001401c9770     glew32s:glew.obj
 0003:0001d790       ??_C@_0BI@EFMNDJOO@glSecondaryColorPointer?$AA@ 00000001401c9790     glew32s:glew.obj
 0003:0001d7b0       ??_C@_0O@JGNKBLNH@glWindowPos2d?$AA@ 00000001401c97b0     glew32s:glew.obj
 0003:0001d7c0       ??_C@_0P@GBEEEDBM@glWindowPos2dv?$AA@ 00000001401c97c0     glew32s:glew.obj
 0003:0001d7d8       ??_C@_0O@KEOMHJFF@glWindowPos2f?$AA@ 00000001401c97d8     glew32s:glew.obj
 0003:0001d7e8       ??_C@_0P@GCMAJHHC@glWindowPos2fv?$AA@ 00000001401c97e8     glew32s:glew.obj
 0003:0001d800       ??_C@_0O@CDHEGFJK@glWindowPos2i?$AA@ 00000001401c9800     glew32s:glew.obj
 0003:0001d810       ??_C@_0P@GJJMNAEP@glWindowPos2iv?$AA@ 00000001401c9810     glew32s:glew.obj
 0003:0001d828       ??_C@_0O@JDFJJPEB@glWindowPos2s?$AA@ 00000001401c9828     glew32s:glew.obj
 0003:0001d838       ??_C@_0P@HICNPGOJ@glWindowPos2sv?$AA@ 00000001401c9838     glew32s:glew.obj
 0003:0001d850       ??_C@_0O@JHBIHBOA@glWindowPos3d?$AA@ 00000001401c9850     glew32s:glew.obj
 0003:0001d860       ??_C@_0P@NJPICEHJ@glWindowPos3dv?$AA@ 00000001401c9860     glew32s:glew.obj
 0003:0001d878       ??_C@_0O@KFCOBDGC@glWindowPos3f?$AA@ 00000001401c9878     glew32s:glew.obj
 0003:0001d888       ??_C@_0P@NKHMPABH@glWindowPos3fv?$AA@ 00000001401c9888     glew32s:glew.obj
 0003:0001d8a0       ??_C@_0O@CCLGAPKN@glWindowPos3i?$AA@ 00000001401c98a0     glew32s:glew.obj
 0003:0001d8b0       ??_C@_0P@NBCALHCK@glWindowPos3iv?$AA@ 00000001401c98b0     glew32s:glew.obj
 0003:0001d8c8       ??_C@_0O@JCJLPFHG@glWindowPos3s?$AA@ 00000001401c98c8     glew32s:glew.obj
 0003:0001d8d8       ??_C@_0P@MAJBJBIM@glWindowPos3sv?$AA@ 00000001401c98d8     glew32s:glew.obj
 0003:0001d8f0       ??_C@_0N@GIAGIGPA@glBeginQuery?$AA@ 00000001401c98f0     glew32s:glew.obj
 0003:0001d900       ??_C@_0N@BONEPPLO@glBindBuffer?$AA@ 00000001401c9900     glew32s:glew.obj
 0003:0001d910       ??_C@_0N@JHHJMABP@glBufferData?$AA@ 00000001401c9910     glew32s:glew.obj
 0003:0001d920       ??_C@_0BA@GAJMDBBN@glBufferSubData?$AA@ 00000001401c9920     glew32s:glew.obj
 0003:0001d938       ??_C@_0BA@DMNLADIO@glDeleteBuffers?$AA@ 00000001401c9938     glew32s:glew.obj
 0003:0001d950       ??_C@_0BA@IOKEHMOH@glDeleteQueries?$AA@ 00000001401c9950     glew32s:glew.obj
 0003:0001d968       ??_C@_0L@FLEBHIDM@glEndQuery?$AA@ 00000001401c9968     glew32s:glew.obj
 0003:0001d978       ??_C@_0N@LAOHBIBA@glGenBuffers?$AA@ 00000001401c9978     glew32s:glew.obj
 0003:0001d988       ??_C@_0N@CJIGHHJ@glGenQueries?$AA@ 00000001401c9988     glew32s:glew.obj
 0003:0001d998       ??_C@_0BH@BMIEIFJP@glGetBufferParameteriv?$AA@ 00000001401c9998     glew32s:glew.obj
 0003:0001d9b8       ??_C@_0BE@KNJEIFMC@glGetBufferPointerv?$AA@ 00000001401c99b8     glew32s:glew.obj
 0003:0001d9d0       ??_C@_0BD@PNDAHMBO@glGetBufferSubData?$AA@ 00000001401c99d0     glew32s:glew.obj
 0003:0001d9e8       ??_C@_0BD@KMBBCJID@glGetQueryObjectiv?$AA@ 00000001401c99e8     glew32s:glew.obj
 0003:0001da00       ??_C@_0BE@MNBBKJ@glGetQueryObjectuiv?$AA@ 00000001401c9a00     glew32s:glew.obj
 0003:0001da18       ??_C@_0N@BPACPFCI@glGetQueryiv?$AA@ 00000001401c9a18     glew32s:glew.obj
 0003:0001da28       ??_C@_0L@KFPDMKNG@glIsBuffer?$AA@ 00000001401c9a28     glew32s:glew.obj
 0003:0001da38       ??_C@_09CNNLCEBN@glIsQuery?$AA@ 00000001401c9a38     glew32s:glew.obj
 0003:0001da48       ??_C@_0M@NNHDPACA@glMapBuffer?$AA@ 00000001401c9a48     glew32s:glew.obj
 0003:0001da58       ??_C@_0O@OFGHBLEO@glUnmapBuffer?$AA@ 00000001401c9a58     glew32s:glew.obj
 0003:0001da68       ??_C@_0P@LDMLEABL@glAttachShader?$AA@ 00000001401c9a68     glew32s:glew.obj
 0003:0001da80       ??_C@_0BF@MHKEFIHM@glBindAttribLocation?$AA@ 00000001401c9a80     glew32s:glew.obj
 0003:0001daa0       ??_C@_0BI@JNHDNJAG@glBlendEquationSeparate?$AA@ 00000001401c9aa0     glew32s:glew.obj
 0003:0001dac0       ??_C@_0BA@DGIEGONF@glCompileShader?$AA@ 00000001401c9ac0     glew32s:glew.obj
 0003:0001dad8       ??_C@_0BA@FLKLHNKP@glCreateProgram?$AA@ 00000001401c9ad8     glew32s:glew.obj
 0003:0001daf0       ??_C@_0P@HGHBNC@glCreateShader?$AA@ 00000001401c9af0     glew32s:glew.obj
 0003:0001db08       ??_C@_0BA@NKGCDOPO@glDeleteProgram?$AA@ 00000001401c9b08     glew32s:glew.obj
 0003:0001db20       ??_C@_0P@HHCDONAG@glDeleteShader?$AA@ 00000001401c9b20     glew32s:glew.obj
 0003:0001db38       ??_C@_0P@DJFJFCJL@glDetachShader?$AA@ 00000001401c9b38     glew32s:glew.obj
 0003:0001db50       ??_C@_0BL@NKHLOFFF@glDisableVertexAttribArray?$AA@ 00000001401c9b50     glew32s:glew.obj
 0003:0001db70       ??_C@_0O@COHJKDBH@glDrawBuffers?$AA@ 00000001401c9b70     glew32s:glew.obj
 0003:0001db80       ??_C@_0BK@EHBAHNHE@glEnableVertexAttribArray?$AA@ 00000001401c9b80     glew32s:glew.obj
 0003:0001dba0       ??_C@_0BC@MBALAOHF@glGetActiveAttrib?$AA@ 00000001401c9ba0     glew32s:glew.obj
 0003:0001dbb8       ??_C@_0BD@NIMHLLKN@glGetActiveUniform?$AA@ 00000001401c9bb8     glew32s:glew.obj
 0003:0001dbd0       ??_C@_0BF@GHMDGFEM@glGetAttachedShaders?$AA@ 00000001401c9bd0     glew32s:glew.obj
 0003:0001dbf0       ??_C@_0BE@BEPGJDMM@glGetAttribLocation?$AA@ 00000001401c9bf0     glew32s:glew.obj
 0003:0001dc08       ??_C@_0BE@DHGHAJFL@glGetProgramInfoLog?$AA@ 00000001401c9c08     glew32s:glew.obj
 0003:0001dc20       ??_C@_0P@FMMDFLCO@glGetProgramiv?$AA@ 00000001401c9c20     glew32s:glew.obj
 0003:0001dc38       ??_C@_0BD@GIABBCMO@glGetShaderInfoLog?$AA@ 00000001401c9c38     glew32s:glew.obj
 0003:0001dc50       ??_C@_0BC@ELEIFJEL@glGetShaderSource?$AA@ 00000001401c9c50     glew32s:glew.obj
 0003:0001dc68       ??_C@_0O@JBDFPDMG@glGetShaderiv?$AA@ 00000001401c9c68     glew32s:glew.obj
 0003:0001dc78       ??_C@_0BF@KIOPGICP@glGetUniformLocation?$AA@ 00000001401c9c78     glew32s:glew.obj
 0003:0001dc98       ??_C@_0P@DFCJIBG@glGetUniformfv?$AA@ 00000001401c9c98     glew32s:glew.obj
 0003:0001dcb0       ??_C@_0P@IAONPCL@glGetUniformiv?$AA@ 00000001401c9cb0     glew32s:glew.obj
 0003:0001dcc8       ??_C@_0BK@DOJMENLD@glGetVertexAttribPointerv?$AA@ 00000001401c9cc8     glew32s:glew.obj
 0003:0001dce8       ??_C@_0BE@HDPMJMIN@glGetVertexAttribdv?$AA@ 00000001401c9ce8     glew32s:glew.obj
 0003:0001dd00       ??_C@_0BE@HAHIEIOD@glGetVertexAttribfv?$AA@ 00000001401c9d00     glew32s:glew.obj
 0003:0001dd18       ??_C@_0BE@HLCEAPNO@glGetVertexAttribiv?$AA@ 00000001401c9d18     glew32s:glew.obj
 0003:0001dd30       ??_C@_0M@INLOJDGO@glIsProgram?$AA@ 00000001401c9d30     glew32s:glew.obj
 0003:0001dd40       ??_C@_0L@MDDLFIHC@glIsShader?$AA@ 00000001401c9d40     glew32s:glew.obj
 0003:0001dd50       ??_C@_0O@PIOEEBPO@glLinkProgram?$AA@ 00000001401c9d50     glew32s:glew.obj
 0003:0001dd60       ??_C@_0P@DFHCPFMO@glShaderSource?$AA@ 00000001401c9d60     glew32s:glew.obj
 0003:0001dd78       ??_C@_0BG@FCMNCEIA@glStencilFuncSeparate?$AA@ 00000001401c9d78     glew32s:glew.obj
 0003:0001dd98       ??_C@_0BG@MMKPIEJI@glStencilMaskSeparate?$AA@ 00000001401c9d98     glew32s:glew.obj
 0003:0001ddb8       ??_C@_0BE@GAPLDNGF@glStencilOpSeparate?$AA@ 00000001401c9db8     glew32s:glew.obj
 0003:0001ddd0       ??_C@_0M@MLICAPOF@glUniform1f?$AA@ 00000001401c9dd0     glew32s:glew.obj
 0003:0001dde0       ??_C@_0N@KJMOEKII@glUniform1fv?$AA@ 00000001401c9de0     glew32s:glew.obj
 0003:0001ddf0       ??_C@_0M@EMBKBDCK@glUniform1i?$AA@ 00000001401c9df0     glew32s:glew.obj
 0003:0001de00       ??_C@_0N@KCJCANLF@glUniform1iv?$AA@ 00000001401c9e00     glew32s:glew.obj
 0003:0001de10       ??_C@_0M@MJMELBLM@glUniform2f?$AA@ 00000001401c9e10     glew32s:glew.obj
 0003:0001de20       ??_C@_0N@LLHLOFGG@glUniform2fv?$AA@ 00000001401c9e20     glew32s:glew.obj
 0003:0001de30       ??_C@_0M@EOFMKNHD@glUniform2i?$AA@ 00000001401c9e30     glew32s:glew.obj
 0003:0001de40       ??_C@_0N@LACHKCFL@glUniform2iv?$AA@ 00000001401c9e40     glew32s:glew.obj
 0003:0001de50       ??_C@_0M@MIAGNLIL@glUniform3f?$AA@ 00000001401c9e50     glew32s:glew.obj
 0003:0001de60       ??_C@_0N@DMHICAD@glUniform3fv?$AA@ 00000001401c9e60     glew32s:glew.obj
 0003:0001de70       ??_C@_0M@EPJOMHEE@glUniform3i?$AA@ 00000001401c9e70     glew32s:glew.obj
 0003:0001de80       ??_C@_0N@IJLMFDO@glUniform3iv?$AA@ 00000001401c9e80     glew32s:glew.obj
 0003:0001de90       ??_C@_0M@MNEJMNAO@glUniform4f?$AA@ 00000001401c9e90     glew32s:glew.obj
 0003:0001dea0       ??_C@_0N@JOBALKLK@glUniform4fv?$AA@ 00000001401c9ea0     glew32s:glew.obj
 0003:0001deb0       ??_C@_0M@EKNBNBMB@glUniform4i?$AA@ 00000001401c9eb0     glew32s:glew.obj
 0003:0001dec0       ??_C@_0N@JFEMPNIH@glUniform4iv?$AA@ 00000001401c9ec0     glew32s:glew.obj
 0003:0001ded0       ??_C@_0BD@JIBJELHD@glUniformMatrix2fv?$AA@ 00000001401c9ed0     glew32s:glew.obj
 0003:0001dee8       ??_C@_0BD@CAKFCMBG@glUniformMatrix3fv?$AA@ 00000001401c9ee8     glew32s:glew.obj
 0003:0001df00       ??_C@_0BD@LNHCBEKP@glUniformMatrix4fv?$AA@ 00000001401c9f00     glew32s:glew.obj
 0003:0001df18       ??_C@_0N@ICBDHBI@glUseProgram?$AA@ 00000001401c9f18     glew32s:glew.obj
 0003:0001df28       ??_C@_0BC@MAPGDLJK@glValidateProgram?$AA@ 00000001401c9f28     glew32s:glew.obj
 0003:0001df40       ??_C@_0BB@PIOLPNPC@glVertexAttrib1d?$AA@ 00000001401c9f40     glew32s:glew.obj
 0003:0001df58       ??_C@_0BC@CKCOKGLN@glVertexAttrib1dv?$AA@ 00000001401c9f58     glew32s:glew.obj
 0003:0001df70       ??_C@_0BB@MKNNJPHA@glVertexAttrib1f?$AA@ 00000001401c9f70     glew32s:glew.obj
 0003:0001df88       ??_C@_0BC@CJKKHCND@glVertexAttrib1fv?$AA@ 00000001401c9f88     glew32s:glew.obj
 0003:0001dfa0       ??_C@_0BB@PNGIHJGE@glVertexAttrib1s?$AA@ 00000001401c9fa0     glew32s:glew.obj
 0003:0001dfb8       ??_C@_0BC@DDEHBDEI@glVertexAttrib1sv?$AA@ 00000001401c9fb8     glew32s:glew.obj
 0003:0001dfd0       ??_C@_0BB@PKKNEDKL@glVertexAttrib2d?$AA@ 00000001401c9fd0     glew32s:glew.obj
 0003:0001dfe8       ??_C@_0BC@DIJLAJFD@glVertexAttrib2dv?$AA@ 00000001401c9fe8     glew32s:glew.obj
 0003:0001e000       ??_C@_0BB@MIJLCBCJ@glVertexAttrib2f?$AA@ 00000001401ca000     glew32s:glew.obj
 0003:0001e018       ??_C@_0BC@DLBPNNDN@glVertexAttrib2fv?$AA@ 00000001401ca018     glew32s:glew.obj
 0003:0001e030       ??_C@_0BB@PPCOMHDN@glVertexAttrib2s?$AA@ 00000001401ca030     glew32s:glew.obj
 0003:0001e048       ??_C@_0BC@CBPCLMKG@glVertexAttrib2sv?$AA@ 00000001401ca048     glew32s:glew.obj
 0003:0001e060       ??_C@_0BB@PLGPCJJM@glVertexAttrib3d?$AA@ 00000001401ca060     glew32s:glew.obj
 0003:0001e078       ??_C@_0BC@IACHGODG@glVertexAttrib3dv?$AA@ 00000001401ca078     glew32s:glew.obj
 0003:0001e090       ??_C@_0BB@MJFJELBO@glVertexAttrib3f?$AA@ 00000001401ca090     glew32s:glew.obj
 0003:0001e0a8       ??_C@_0BC@IDKDLKFI@glVertexAttrib3fv?$AA@ 00000001401ca0a8     glew32s:glew.obj
 0003:0001e0c0       ??_C@_0BB@POOMKNAK@glVertexAttrib3s?$AA@ 00000001401ca0c0     glew32s:glew.obj
 0003:0001e0d8       ??_C@_0BC@JJEONLMD@glVertexAttrib3sv?$AA@ 00000001401ca0d8     glew32s:glew.obj
 0003:0001e0f0       ??_C@_0BD@NANPPEGB@glVertexAttrib4Nbv?$AA@ 00000001401ca0f0     glew32s:glew.obj
 0003:0001e108       ??_C@_0BD@NMIKBLIA@glVertexAttrib4Niv?$AA@ 00000001401ca108     glew32s:glew.obj
 0003:0001e120       ??_C@_0BD@MNDLDNCG@glVertexAttrib4Nsv?$AA@ 00000001401ca120     glew32s:glew.obj
 0003:0001e138       ??_C@_0BD@OHBIJGMB@glVertexAttrib4Nub?$AA@ 00000001401ca138     glew32s:glew.obj
 0003:0001e150       ??_C@_0BE@JFOBDEMA@glVertexAttrib4Nubv?$AA@ 00000001401ca150     glew32s:glew.obj
 0003:0001e168       ??_C@_0BE@JJLENLCB@glVertexAttrib4Nuiv?$AA@ 00000001401ca168     glew32s:glew.obj
 0003:0001e180       ??_C@_0BE@IIAFPNIH@glVertexAttrib4Nusv?$AA@ 00000001401ca180     glew32s:glew.obj
 0003:0001e198       ??_C@_0BC@BJHNCKDN@glVertexAttrib4bv?$AA@ 00000001401ca198     glew32s:glew.obj
 0003:0001e1b0       ??_C@_0BB@POCADPBJ@glVertexAttrib4d?$AA@ 00000001401ca1b0     glew32s:glew.obj
 0003:0001e1c8       ??_C@_0BC@BNPAFGIP@glVertexAttrib4dv?$AA@ 00000001401ca1c8     glew32s:glew.obj
 0003:0001e1e0       ??_C@_0BB@MMBGFNJL@glVertexAttrib4f?$AA@ 00000001401ca1e0     glew32s:glew.obj
 0003:0001e1f8       ??_C@_0BC@BOHEICOB@glVertexAttrib4fv?$AA@ 00000001401ca1f8     glew32s:glew.obj
 0003:0001e210       ??_C@_0BC@BFCIMFNM@glVertexAttrib4iv?$AA@ 00000001401ca210     glew32s:glew.obj
 0003:0001e228       ??_C@_0BB@PLKDLLIP@glVertexAttrib4s?$AA@ 00000001401ca228     glew32s:glew.obj
 0003:0001e240       ??_C@_0BC@EJJODHK@glVertexAttrib4sv?$AA@ 00000001401ca240     glew32s:glew.obj
 0003:0001e258       ??_C@_0BD@PHPFILMB@glVertexAttrib4ubv?$AA@ 00000001401ca258     glew32s:glew.obj
 0003:0001e270       ??_C@_0BD@PLKAGECA@glVertexAttrib4uiv?$AA@ 00000001401ca270     glew32s:glew.obj
 0003:0001e288       ??_C@_0BD@OKBBECIG@glVertexAttrib4usv?$AA@ 00000001401ca288     glew32s:glew.obj
 0003:0001e2a0       ??_C@_0BG@JPNNNPKG@glVertexAttribPointer?$AA@ 00000001401ca2a0     glew32s:glew.obj
 0003:0001e2c0       ??_C@_0BF@KDDJMCDK@glUniformMatrix2x3fv?$AA@ 00000001401ca2c0     glew32s:glew.obj
 0003:0001e2e0       ??_C@_0BF@DOOOPKID@glUniformMatrix2x4fv?$AA@ 00000001401ca2e0     glew32s:glew.obj
 0003:0001e300       ??_C@_0BF@NANJHGPK@glUniformMatrix3x2fv?$AA@ 00000001401ca300     glew32s:glew.obj
 0003:0001e320       ??_C@_0BF@PFLCCJCG@glUniformMatrix3x4fv?$AA@ 00000001401ca320     glew32s:glew.obj
 0003:0001e340       ??_C@_0BF@MNNMEGEC@glUniformMatrix4x2fv?$AA@ 00000001401ca340     glew32s:glew.obj
 0003:0001e360       ??_C@_0BF@HFGACBCH@glUniformMatrix4x3fv?$AA@ 00000001401ca360     glew32s:glew.obj
 0003:0001e380       ??_C@_0BJ@EHEPIEPF@glBeginConditionalRender?$AA@ 00000001401ca380     glew32s:glew.obj
 0003:0001e3a0       ??_C@_0BJ@FHJKOECC@glBeginTransformFeedback?$AA@ 00000001401ca3a0     glew32s:glew.obj
 0003:0001e3c0       ??_C@_0BH@DLJLAGBA@glBindFragDataLocation?$AA@ 00000001401ca3c0     glew32s:glew.obj
 0003:0001e3e0       ??_C@_0N@HLGAGIMI@glClampColor?$AA@ 00000001401ca3e0     glew32s:glew.obj
 0003:0001e3f0       ??_C@_0BA@OACPENCO@glClearBufferfi?$AA@ 00000001401ca3f0     glew32s:glew.obj
 0003:0001e408       ??_C@_0BA@CNHFEDLA@glClearBufferfv?$AA@ 00000001401ca408     glew32s:glew.obj
 0003:0001e420       ??_C@_0BA@CGCJAEIN@glClearBufferiv?$AA@ 00000001401ca420     glew32s:glew.obj
 0003:0001e438       ??_C@_0BB@OHPPAEID@glClearBufferuiv?$AA@ 00000001401ca438     glew32s:glew.obj
 0003:0001e450       ??_C@_0N@JHNNNJFG@glColorMaski?$AA@ 00000001401ca450     glew32s:glew.obj
 0003:0001e460       ??_C@_0L@BMJPGDDH@glDisablei?$AA@ 00000001401ca460     glew32s:glew.obj
 0003:0001e470       ??_C@_09IEGEGIEN@glEnablei?$AA@ 00000001401ca470     glew32s:glew.obj
 0003:0001e480       ??_C@_0BH@KCIOLNMA@glEndConditionalRender?$AA@ 00000001401ca480     glew32s:glew.obj
 0003:0001e4a0       ??_C@_0BH@LCFLNNBH@glEndTransformFeedback?$AA@ 00000001401ca4a0     glew32s:glew.obj
 0003:0001e4c0       ??_C@_0BA@OAKNOBP@glGetBooleani_v?$AA@ 00000001401ca4c0     glew32s:glew.obj
 0003:0001e4d8       ??_C@_0BG@NDOIGAMC@glGetFragDataLocation?$AA@ 00000001401ca4d8     glew32s:glew.obj
 0003:0001e4f8       ??_C@_0N@PILJCBOD@glGetStringi?$AA@ 00000001401ca4f8     glew32s:glew.obj
 0003:0001e508       ??_C@_0BF@ODBJFHDD@glGetTexParameterIiv?$AA@ 00000001401ca508     glew32s:glew.obj
 0003:0001e528       ??_C@_0BG@MLODKKFL@glGetTexParameterIuiv?$AA@ 00000001401ca528     glew32s:glew.obj
 0003:0001e548       ??_C@_0BO@ODFLPNG@glGetTransformFeedbackVarying?$AA@ 00000001401ca548     glew32s:glew.obj
 0003:0001e570       ??_C@_0BA@NIGECFIF@glGetUniformuiv?$AA@ 00000001401ca570     glew32s:glew.obj
 0003:0001e588       ??_C@_0BF@KPDNEONP@glGetVertexAttribIiv?$AA@ 00000001401ca588     glew32s:glew.obj
 0003:0001e5a8       ??_C@_0BG@GCBDCABB@glGetVertexAttribIuiv?$AA@ 00000001401ca5a8     glew32s:glew.obj
 0003:0001e5c8       ??_C@_0N@IMGKGOKN@glIsEnabledi?$AA@ 00000001401ca5c8     glew32s:glew.obj
 0003:0001e5d8       ??_C@_0BC@MAFJKEHB@glTexParameterIiv?$AA@ 00000001401ca5d8     glew32s:glew.obj
 0003:0001e5f0       ??_C@_0BD@FDBCMKBE@glTexParameterIuiv?$AA@ 00000001401ca5f0     glew32s:glew.obj
 0003:0001e608       ??_C@_0BM@IJFAKBEF@glTransformFeedbackVaryings?$AA@ 00000001401ca608     glew32s:glew.obj
 0003:0001e630       ??_C@_0N@HKPEFJDP@glUniform1ui?$AA@ 00000001401ca630     glew32s:glew.obj
 0003:0001e640       ??_C@_0O@MPHJAHBE@glUniform1uiv?$AA@ 00000001401ca640     glew32s:glew.obj
 0003:0001e650       ??_C@_0N@GIEBPGNB@glUniform2ui?$AA@ 00000001401ca650     glew32s:glew.obj
 0003:0001e660       ??_C@_0O@IINJHNME@glUniform2uiv?$AA@ 00000001401ca660     glew32s:glew.obj
 0003:0001e670       ??_C@_0N@NAPNJBLE@glUniform3ui?$AA@ 00000001401ca670     glew32s:glew.obj
 0003:0001e680       ??_C@_0O@LFLJFEHE@glUniform3uiv?$AA@ 00000001401ca680     glew32s:glew.obj
 0003:0001e690       ??_C@_0N@ENCKKJAN@glUniform4ui?$AA@ 00000001401ca690     glew32s:glew.obj
 0003:0001e6a0       ??_C@_0O@HJJIIGE@glUniform4uiv?$AA@ 00000001401ca6a0     glew32s:glew.obj
 0003:0001e6b0       ??_C@_0BC@CDIIMMAL@glVertexAttribI1i?$AA@ 00000001401ca6b0     glew32s:glew.obj
 0003:0001e6c8       ??_C@_0BD@OOJEIPDE@glVertexAttribI1iv?$AA@ 00000001401ca6c8     glew32s:glew.obj
 0003:0001e6e0       ??_C@_0BD@DGPCNLLO@glVertexAttribI1ui?$AA@ 00000001401ca6e0     glew32s:glew.obj
 0003:0001e6f8       ??_C@_0BE@FFIKLCCA@glVertexAttribI1uiv?$AA@ 00000001401ca6f8     glew32s:glew.obj
 0003:0001e710       ??_C@_0BC@CBMOHCFC@glVertexAttribI2i?$AA@ 00000001401ca710     glew32s:glew.obj
 0003:0001e728       ??_C@_0BD@PMCBCANK@glVertexAttribI2iv?$AA@ 00000001401ca728     glew32s:glew.obj
 0003:0001e740       ??_C@_0BD@CEEHHEFA@glVertexAttribI2ui?$AA@ 00000001401ca740     glew32s:glew.obj
 0003:0001e758       ??_C@_0BE@BCCKMIPA@glVertexAttribI2uiv?$AA@ 00000001401ca758     glew32s:glew.obj
 0003:0001e770       ??_C@_0BC@CAAMBIGF@glVertexAttribI3i?$AA@ 00000001401ca770     glew32s:glew.obj
 0003:0001e788       ??_C@_0BD@EEJNEHLP@glVertexAttribI3iv?$AA@ 00000001401ca788     glew32s:glew.obj
 0003:0001e7a0       ??_C@_0BD@JMPLBDDF@glVertexAttribI3ui?$AA@ 00000001401ca7a0     glew32s:glew.obj
 0003:0001e7b8       ??_C@_0BE@CPEKOBEA@glVertexAttribI3uiv?$AA@ 00000001401ca7b8     glew32s:glew.obj
 0003:0001e7d0       ??_C@_0BD@NFBPJAOH@glVertexAttribI4bv?$AA@ 00000001401ca7d0     glew32s:glew.obj
 0003:0001e7e8       ??_C@_0BC@CFEDAOOA@glVertexAttribI4i?$AA@ 00000001401ca7e8     glew32s:glew.obj
 0003:0001e800       ??_C@_0BD@NJEKHPAG@glVertexAttribI4iv?$AA@ 00000001401ca800     glew32s:glew.obj
 0003:0001e818       ??_C@_0BD@MIPLFJKA@glVertexAttribI4sv?$AA@ 00000001401ca818     glew32s:glew.obj
 0003:0001e830       ??_C@_0BE@JBDPNCLB@glVertexAttribI4ubv?$AA@ 00000001401ca830     glew32s:glew.obj
 0003:0001e848       ??_C@_0BD@BCMCLIM@glVertexAttribI4ui?$AA@ 00000001401ca848     glew32s:glew.obj
 0003:0001e860       ??_C@_0BE@JNGKDNFA@glVertexAttribI4uiv?$AA@ 00000001401ca860     glew32s:glew.obj
 0003:0001e878       ??_C@_0BE@IMNLBLPG@glVertexAttribI4usv?$AA@ 00000001401ca878     glew32s:glew.obj
 0003:0001e890       ??_C@_0BH@NLOEHKCD@glVertexAttribIPointer?$AA@ 00000001401ca890     glew32s:glew.obj
 0003:0001e8b0       ??_C@_0BG@HIOFINAN@glDrawArraysInstanced?$AA@ 00000001401ca8b0     glew32s:glew.obj
 0003:0001e8d0       ??_C@_0BI@CGJENFBH@glDrawElementsInstanced?$AA@ 00000001401ca8d0     glew32s:glew.obj
 0003:0001e8f0       ??_C@_0BI@LJDLNGAF@glPrimitiveRestartIndex?$AA@ 00000001401ca8f0     glew32s:glew.obj
 0003:0001e910       ??_C@_0M@IIMBBALL@glTexBuffer?$AA@ 00000001401ca910     glew32s:glew.obj
 0003:0001e920       ??_C@_0BF@ENLMLILA@glFramebufferTexture?$AA@ 00000001401ca920     glew32s:glew.obj
 0003:0001e940       ??_C@_0BJ@KKBIDGPP@glGetBufferParameteri64v?$AA@ 00000001401ca940     glew32s:glew.obj
 0003:0001e960       ??_C@_0BC@KOJILIEC@glGetInteger64i_v?$AA@ 00000001401ca960     glew32s:glew.obj
 0003:0001e978       ??_C@_0BG@NEBMAEHM@glVertexAttribDivisor?$AA@ 00000001401ca978     glew32s:glew.obj
 0003:0001e998       ??_C@_0BJ@FNMBAGAC@glBlendEquationSeparatei?$AA@ 00000001401ca998     glew32s:glew.obj
 0003:0001e9b8       ??_C@_0BB@MKHLNEOM@glBlendEquationi?$AA@ 00000001401ca9b8     glew32s:glew.obj
 0003:0001e9d0       ??_C@_0BF@PDDGKNBJ@glBlendFuncSeparatei?$AA@ 00000001401ca9d0     glew32s:glew.obj
 0003:0001e9f0       ??_C@_0N@IKKELNNP@glBlendFunci?$AA@ 00000001401ca9f0     glew32s:glew.obj
 0003:0001ea00       ??_C@_0BD@EDGCEBP@glMinSampleShading?$AA@ 00000001401caa00     glew32s:glew.obj
 0003:0001ea18       ??_C@_0BJ@ILPAOCDN@glGetGraphicsResetStatus?$AA@ 00000001401caa18     glew32s:glew.obj
 0003:0001ea38       ??_C@_0BJ@HLNIHAOG@glGetnCompressedTexImage?$AA@ 00000001401caa38     glew32s:glew.obj
 0003:0001ea58       ??_C@_0P@FBKOCLCM@glGetnTexImage?$AA@ 00000001401caa58     glew32s:glew.obj
 0003:0001ea70       ??_C@_0BA@KLGIFHJB@glGetnUniformdv?$AA@ 00000001401caa70     glew32s:glew.obj
 0003:0001ea88       ??_C@_0BP@GGIOCPJI@glMultiDrawArraysIndirectCount?$AA@ 00000001401caa88     glew32s:glew.obj
 0003:0001eab0       ??_C@_0CB@BPEMAMPH@glMultiDrawElementsIndirectCount@ 00000001401caab0     glew32s:glew.obj
 0003:0001ead8       ??_C@_0BD@LNCLLNDI@glSpecializeShader?$AA@ 00000001401caad8     glew32s:glew.obj
 0003:0001eaf0       ??_C@_0BC@CCALJJJM@glTbufferMask3DFX?$AA@ 00000001401caaf0     glew32s:glew.obj
 0003:0001eb08       ??_C@_0BK@MFFNFHKP@glDebugMessageCallbackAMD?$AA@ 00000001401cab08     glew32s:glew.obj
 0003:0001eb28       ??_C@_0BI@EBMKDNGP@glDebugMessageEnableAMD?$AA@ 00000001401cab28     glew32s:glew.obj
 0003:0001eb48       ??_C@_0BI@MEJDAIOA@glDebugMessageInsertAMD?$AA@ 00000001401cab48     glew32s:glew.obj
 0003:0001eb68       ??_C@_0BI@NPJPBOCK@glGetDebugMessageLogAMD?$AA@ 00000001401cab68     glew32s:glew.obj
 0003:0001eb88       ??_C@_0BK@PEIMAMJL@glBlendEquationIndexedAMD?$AA@ 00000001401cab88     glew32s:glew.obj
 0003:0001eba8       ??_C@_0CC@MGCGBBJG@glBlendEquationSeparateIndexedAM@ 00000001401caba8     glew32s:glew.obj
 0003:0001ebd0       ??_C@_0BG@HOEHDCNM@glBlendFuncIndexedAMD?$AA@ 00000001401cabd0     glew32s:glew.obj
 0003:0001ebf0       ??_C@_0BO@JNFLECCJ@glBlendFuncSeparateIndexedAMD?$AA@ 00000001401cabf0     glew32s:glew.obj
 0003:0001ec18       ??_C@_0CC@IPCJFILP@glFramebufferSamplePositionsfvAM@ 00000001401cac18     glew32s:glew.obj
 0003:0001ec40       ??_C@_0BP@FLKNLAMD@glGetFramebufferParameterfvAMD?$AA@ 00000001401cac40     glew32s:glew.obj
 0003:0001ec68       ??_C@_0CE@GCMBLHJG@glGetNamedFramebufferParameterfv@ 00000001401cac68     glew32s:glew.obj
 0003:0001ec98       ??_C@_0CH@GFACFLFK@glNamedFramebufferSamplePosition@ 00000001401cac98     glew32s:glew.obj
 0003:0001ecc8       ??_C@_0BM@CLGIOHKN@glVertexAttribParameteriAMD?$AA@ 00000001401cacc8     glew32s:glew.obj
 0003:0001ecf0       ??_C@_0BN@OBJPCNEE@glMultiDrawArraysIndirectAMD?$AA@ 00000001401cacf0     glew32s:glew.obj
 0003:0001ed18       ??_C@_0BP@HLKGEMNG@glMultiDrawElementsIndirectAMD?$AA@ 00000001401cad18     glew32s:glew.obj
 0003:0001ed40       ??_C@_0BB@CHLEOIED@glDeleteNamesAMD?$AA@ 00000001401cad40     glew32s:glew.obj
 0003:0001ed58       ??_C@_0O@DAIPGKBL@glGenNamesAMD?$AA@ 00000001401cad58     glew32s:glew.obj
 0003:0001ed68       ??_C@_0M@BCDOLDGP@glIsNameAMD?$AA@ 00000001401cad68     glew32s:glew.obj
 0003:0001ed78       ??_C@_0BM@PAHCFMHD@glQueryObjectParameteruiAMD?$AA@ 00000001401cad78     glew32s:glew.obj
 0003:0001eda0       ??_C@_0BG@NDMELBFI@glBeginPerfMonitorAMD?$AA@ 00000001401cada0     glew32s:glew.obj
 0003:0001edc0       ??_C@_0BI@KMGCEMP@glDeletePerfMonitorsAMD?$AA@ 00000001401cadc0     glew32s:glew.obj
 0003:0001ede0       ??_C@_0BE@GEJEHJII@glEndPerfMonitorAMD?$AA@ 00000001401cade0     glew32s:glew.obj
 0003:0001edf8       ??_C@_0BF@FCLLNAHN@glGenPerfMonitorsAMD?$AA@ 00000001401cadf8     glew32s:glew.obj
 0003:0001ee18       ??_C@_0BP@NAMEIDMB@glGetPerfMonitorCounterDataAMD?$AA@ 00000001401cae18     glew32s:glew.obj
 0003:0001ee40       ??_C@_0BP@EMKHPLAI@glGetPerfMonitorCounterInfoAMD?$AA@ 00000001401cae40     glew32s:glew.obj
 0003:0001ee68       ??_C@_0CB@NGPHNKPI@glGetPerfMonitorCounterStringAMD@ 00000001401cae68     glew32s:glew.obj
 0003:0001ee90       ??_C@_0BM@IHAEOFHH@glGetPerfMonitorCountersAMD?$AA@ 00000001401cae90     glew32s:glew.obj
 0003:0001eeb8       ??_C@_0BP@IDEMBLCM@glGetPerfMonitorGroupStringAMD?$AA@ 00000001401caeb8     glew32s:glew.obj
 0003:0001eee0       ??_C@_0BK@OBDIDPIN@glGetPerfMonitorGroupsAMD?$AA@ 00000001401caee0     glew32s:glew.obj
 0003:0001ef00       ??_C@_0BP@NJOMCJCK@glSelectPerfMonitorCountersAMD?$AA@ 00000001401caf00     glew32s:glew.obj
 0003:0001ef28       ??_C@_0BG@HBDKMMDF@glSetMultisamplefvAMD?$AA@ 00000001401caf28     glew32s:glew.obj
 0003:0001ef48       ??_C@_0BG@EDPMMPBF@glTexStorageSparseAMD?$AA@ 00000001401caf48     glew32s:glew.obj
 0003:0001ef68       ??_C@_0BK@EHGFCEEG@glTextureStorageSparseAMD?$AA@ 00000001401caf68     glew32s:glew.obj
 0003:0001ef88       ??_C@_0BE@EDMIOPLH@glStencilOpValueAMD?$AA@ 00000001401caf88     glew32s:glew.obj
 0003:0001efa0       ??_C@_0BI@FBBMDFBE@glTessellationFactorAMD?$AA@ 00000001401cafa0     glew32s:glew.obj
 0003:0001efc0       ??_C@_0BG@LFMBMMLB@glTessellationModeAMD?$AA@ 00000001401cafc0     glew32s:glew.obj
 0003:0001efe0       ??_C@_0BH@DLICKELN@glBlitFramebufferANGLE?$AA@ 00000001401cafe0     glew32s:glew.obj
 0003:0001f000       ??_C@_0CG@PGLOEEFP@glRenderbufferStorageMultisample@ 00000001401cb000     glew32s:glew.obj
 0003:0001f030       ??_C@_0BL@HOOGNLGD@glDrawArraysInstancedANGLE?$AA@ 00000001401cb030     glew32s:glew.obj
 0003:0001f050       ??_C@_0BN@CLAEABLA@glDrawElementsInstancedANGLE?$AA@ 00000001401cb050     glew32s:glew.obj
 0003:0001f078       ??_C@_0BL@JCKCFABH@glVertexAttribDivisorANGLE?$AA@ 00000001401cb078     glew32s:glew.obj
 0003:0001f098       ??_C@_0BC@PICFLECG@glBeginQueryANGLE?$AA@ 00000001401cb098     glew32s:glew.obj
 0003:0001f0b0       ??_C@_0BF@BBOGNEBD@glDeleteQueriesANGLE?$AA@ 00000001401cb0b0     glew32s:glew.obj
 0003:0001f0d0       ??_C@_0BA@DDMHCOBN@glEndQueryANGLE?$AA@ 00000001401cb0d0     glew32s:glew.obj
 0003:0001f0e8       ??_C@_0BC@ECIPFGEP@glGenQueriesANGLE?$AA@ 00000001401cb0e8     glew32s:glew.obj
 0003:0001f100       ??_C@_0BK@ECEHJHAO@glGetQueryObjecti64vANGLE?$AA@ 00000001401cb100     glew32s:glew.obj
 0003:0001f120       ??_C@_0BI@OFKAIANF@glGetQueryObjectivANGLE?$AA@ 00000001401cb120     glew32s:glew.obj
 0003:0001f140       ??_C@_0BL@IKBLEAPJ@glGetQueryObjectui64vANGLE?$AA@ 00000001401cb140     glew32s:glew.obj
 0003:0001f160       ??_C@_0BJ@NNGPFIIP@glGetQueryObjectuivANGLE?$AA@ 00000001401cb160     glew32s:glew.obj
 0003:0001f180       ??_C@_0BC@FPFNMICB@glGetQueryivANGLE?$AA@ 00000001401cb180     glew32s:glew.obj
 0003:0001f198       ??_C@_0P@MHFMHLOF@glIsQueryANGLE?$AA@ 00000001401cb198     glew32s:glew.obj
 0003:0001f1b0       ??_C@_0BE@HCFBNOID@glQueryCounterANGLE?$AA@ 00000001401cb1b0     glew32s:glew.obj
 0003:0001f1c8       ??_C@_0CB@GJOCHEIJ@glGetTranslatedShaderSourceANGLE@ 00000001401cb1c8     glew32s:glew.obj
 0003:0001f1f0       ??_C@_0BJ@DCEKBECM@glCopyTextureLevelsAPPLE?$AA@ 00000001401cb1f0     glew32s:glew.obj
 0003:0001f210       ??_C@_0BI@JDBMIEOE@glDrawElementArrayAPPLE?$AA@ 00000001401cb210     glew32s:glew.obj
 0003:0001f230       ??_C@_0BN@GNNIAEPI@glDrawRangeElementArrayAPPLE?$AA@ 00000001401cb230     glew32s:glew.obj
 0003:0001f258       ??_C@_0BG@PGOLEBCJ@glElementPointerAPPLE?$AA@ 00000001401cb258     glew32s:glew.obj
 0003:0001f278       ??_C@_0BN@BKNBHILM@glMultiDrawElementArrayAPPLE?$AA@ 00000001401cb278     glew32s:glew.obj
 0003:0001f2a0       ??_C@_0CC@NKDNAPPM@glMultiDrawRangeElementArrayAPPL@ 00000001401cb2a0     glew32s:glew.obj
 0003:0001f2c8       ??_C@_0BE@FOIGEHJC@glDeleteFencesAPPLE?$AA@ 00000001401cb2c8     glew32s:glew.obj
 0003:0001f2e0       ??_C@_0BD@JMHFLEKL@glFinishFenceAPPLE?$AA@ 00000001401cb2e0     glew32s:glew.obj
 0003:0001f2f8       ??_C@_0BE@ODFFMDJC@glFinishObjectAPPLE?$AA@ 00000001401cb2f8     glew32s:glew.obj
 0003:0001f310       ??_C@_0BB@IEJHCLGA@glGenFencesAPPLE?$AA@ 00000001401cb310     glew32s:glew.obj
 0003:0001f328       ??_C@_0P@OHBLDEFC@glIsFenceAPPLE?$AA@ 00000001401cb328     glew32s:glew.obj
 0003:0001f340       ??_C@_0BA@GGCBEECP@glSetFenceAPPLE?$AA@ 00000001401cb340     glew32s:glew.obj
 0003:0001f358       ??_C@_0BB@OABOFGM@glTestFenceAPPLE?$AA@ 00000001401cb358     glew32s:glew.obj
 0003:0001f370       ??_C@_0BC@OGMHOANA@glTestObjectAPPLE?$AA@ 00000001401cb370     glew32s:glew.obj
 0003:0001f388       ??_C@_0BI@LLMHDAGP@glBufferParameteriAPPLE?$AA@ 00000001401cb388     glew32s:glew.obj
 0003:0001f3a8       ??_C@_0BO@EDNNLCHB@glFlushMappedBufferRangeAPPLE?$AA@ 00000001401cb3a8     glew32s:glew.obj
 0003:0001f3d0       ??_C@_0CG@OEKAACJK@glRenderbufferStorageMultisample@ 00000001401cb3d0     glew32s:glew.obj
 0003:0001f400       ??_C@_0CF@BOABHMHC@glResolveMultisampleFramebufferA@ 00000001401cb400     glew32s:glew.obj
 0003:0001f430       ??_C@_0BM@BGLEEFHM@glGetObjectParameterivAPPLE?$AA@ 00000001401cb430     glew32s:glew.obj
 0003:0001f458       ??_C@_0BH@KOBOEEKK@glObjectPurgeableAPPLE?$AA@ 00000001401cb458     glew32s:glew.obj
 0003:0001f478       ??_C@_0BJ@LKEHAHBF@glObjectUnpurgeableAPPLE?$AA@ 00000001401cb478     glew32s:glew.obj
 0003:0001f498       ??_C@_0BG@OAKDADPK@glClientWaitSyncAPPLE?$AA@ 00000001401cb498     glew32s:glew.obj
 0003:0001f4b8       ??_C@_0BC@PCLJABAE@glDeleteSyncAPPLE?$AA@ 00000001401cb4b8     glew32s:glew.obj
 0003:0001f4d0       ??_C@_0BB@CDKJBNJP@glFenceSyncAPPLE?$AA@ 00000001401cb4d0     glew32s:glew.obj
 0003:0001f4e8       ??_C@_0BF@HIJOPDOI@glGetInteger64vAPPLE?$AA@ 00000001401cb4e8     glew32s:glew.obj
 0003:0001f508       ??_C@_0BB@DPAPBNJE@glGetSyncivAPPLE?$AA@ 00000001401cb508     glew32s:glew.obj
 0003:0001f520       ??_C@_0O@CLJPADJH@glIsSyncAPPLE?$AA@ 00000001401cb520     glew32s:glew.obj
 0003:0001f530       ??_C@_0BA@IBMECEB@glWaitSyncAPPLE?$AA@ 00000001401cb530     glew32s:glew.obj
 0003:0001f548       ??_C@_0BP@JLGLBEPN@glGetTexParameterPointervAPPLE?$AA@ 00000001401cb548     glew32s:glew.obj
 0003:0001f570       ??_C@_0BE@MDEACJAE@glTextureRangeAPPLE?$AA@ 00000001401cb570     glew32s:glew.obj
 0003:0001f588       ??_C@_0BH@NAEHNJFE@glBindVertexArrayAPPLE?$AA@ 00000001401cb588     glew32s:glew.obj
 0003:0001f5a8       ??_C@_0BK@GJPBJNDL@glDeleteVertexArraysAPPLE?$AA@ 00000001401cb5a8     glew32s:glew.obj
 0003:0001f5c8       ??_C@_0BH@FNCDPHJ@glGenVertexArraysAPPLE?$AA@ 00000001401cb5c8     glew32s:glew.obj
 0003:0001f5e8       ??_C@_0BF@KHBAGIFI@glIsVertexArrayAPPLE?$AA@ 00000001401cb5e8     glew32s:glew.obj
 0003:0001f608       ??_C@_0BN@MGPDCEEF@glFlushVertexArrayRangeAPPLE?$AA@ 00000001401cb608     glew32s:glew.obj
 0003:0001f630       ??_C@_0BN@DKJFEMJM@glVertexArrayParameteriAPPLE?$AA@ 00000001401cb630     glew32s:glew.obj
 0003:0001f658       ??_C@_0BI@FNLCAKHD@glVertexArrayRangeAPPLE?$AA@ 00000001401cb658     glew32s:glew.obj
 0003:0001f678       ??_C@_0BL@CICHFCMI@glDisableVertexAttribAPPLE?$AA@ 00000001401cb678     glew32s:glew.obj
 0003:0001f698       ??_C@_0BK@LFEMMKOJ@glEnableVertexAttribAPPLE?$AA@ 00000001401cb698     glew32s:glew.obj
 0003:0001f6b8       ??_C@_0BN@EGADKADG@glIsVertexAttribEnabledAPPLE?$AA@ 00000001401cb6b8     glew32s:glew.obj
 0003:0001f6e0       ??_C@_0BJ@ILEICLML@glMapVertexAttrib1dAPPLE?$AA@ 00000001401cb6e0     glew32s:glew.obj
 0003:0001f700       ??_C@_0BJ@BMNHDKOC@glMapVertexAttrib1fAPPLE?$AA@ 00000001401cb700     glew32s:glew.obj
 0003:0001f720       ??_C@_0BJ@FMHCMCI@glMapVertexAttrib2dAPPLE?$AA@ 00000001401cb720     glew32s:glew.obj
 0003:0001f740       ??_C@_0BJ@JCFIDNAB@glMapVertexAttrib2fAPPLE?$AA@ 00000001401cb740     glew32s:glew.obj
 0003:0001f760       ??_C@_0O@FMBMCDIL@glClearDepthf?$AA@ 00000001401cb760     glew32s:glew.obj
 0003:0001f770       ??_C@_0O@JDFJDNND@glDepthRangef?$AA@ 00000001401cb770     glew32s:glew.obj
 0003:0001f780       ??_C@_0BL@MLAOOHPD@glGetShaderPrecisionFormat?$AA@ 00000001401cb780     glew32s:glew.obj
 0003:0001f7a0       ??_C@_0BI@HGKABJPJ@glReleaseShaderCompiler?$AA@ 00000001401cb7a0     glew32s:glew.obj
 0003:0001f7c0       ??_C@_0P@IMINELFB@glShaderBinary?$AA@ 00000001401cb7c0     glew32s:glew.obj
 0003:0001f7d8       ??_C@_0BI@IDCHHHAI@glMemoryBarrierByRegion?$AA@ 00000001401cb7d8     glew32s:glew.obj
 0003:0001f7f8       ??_C@_0BK@GDKNFLLH@glPrimitiveBoundingBoxARB?$AA@ 00000001401cb7f8     glew32s:glew.obj
 0003:0001f818       ??_C@_0CC@FBJBJHCN@glDrawArraysInstancedBaseInstanc@ 00000001401cb818     glew32s:glew.obj
 0003:0001f840       ??_C@_0CE@NGNINKJD@glDrawElementsInstancedBaseInsta@ 00000001401cb840     glew32s:glew.obj
 0003:0001f870       ??_C@_0CO@GCMNEAOA@glDrawElementsInstancedBaseVerte@ 00000001401cb870     glew32s:glew.obj
 0003:0001f8a8       ??_C@_0BE@JHMEHOCI@glGetImageHandleARB?$AA@ 00000001401cb8a8     glew32s:glew.obj
 0003:0001f8c0       ??_C@_0BG@LFGIGKAH@glGetTextureHandleARB?$AA@ 00000001401cb8c0     glew32s:glew.obj
 0003:0001f8e0       ??_C@_0BN@DEFEDMH@glGetTextureSamplerHandleARB?$AA@ 00000001401cb8e0     glew32s:glew.obj
 0003:0001f908       ??_C@_0BL@HBJNADOI@glGetVertexAttribLui64vARB?$AA@ 00000001401cb908     glew32s:glew.obj
 0003:0001f928       ??_C@_0BL@IFBPNOMI@glIsImageHandleResidentARB?$AA@ 00000001401cb928     glew32s:glew.obj
 0003:0001f948       ??_C@_0BN@JLGBAMKI@glIsTextureHandleResidentARB?$AA@ 00000001401cb948     glew32s:glew.obj
 0003:0001f970       ??_C@_0CA@BFHEDIKK@glMakeImageHandleNonResidentARB?$AA@ 00000001401cb970     glew32s:glew.obj
 0003:0001f998       ??_C@_0BN@ECHDHELL@glMakeImageHandleResidentARB?$AA@ 00000001401cb998     glew32s:glew.obj
 0003:0001f9c0       ??_C@_0CC@EGJJLHFP@glMakeTextureHandleNonResidentAR@ 00000001401cb9c0     glew32s:glew.obj
 0003:0001f9e8       ??_C@_0BP@KJHAKLAH@glMakeTextureHandleResidentARB?$AA@ 00000001401cb9e8     glew32s:glew.obj
 0003:0001fa10       ??_C@_0BO@PELKNEEA@glProgramUniformHandleui64ARB?$AA@ 00000001401cba10     glew32s:glew.obj
 0003:0001fa38       ??_C@_0BP@PJOMOJFE@glProgramUniformHandleui64vARB?$AA@ 00000001401cba38     glew32s:glew.obj
 0003:0001fa60       ??_C@_0BH@PPMOJDBB@glUniformHandleui64ARB?$AA@ 00000001401cba60     glew32s:glew.obj
 0003:0001fa80       ??_C@_0BI@OFILPMHB@glUniformHandleui64vARB?$AA@ 00000001401cba80     glew32s:glew.obj
 0003:0001faa0       ??_C@_0BI@IPIKGHJF@glVertexAttribL1ui64ARB?$AA@ 00000001401cbaa0     glew32s:glew.obj
 0003:0001fac0       ??_C@_0BJ@PCOPPLM@glVertexAttribL1ui64vARB?$AA@ 00000001401cbac0     glew32s:glew.obj
 0003:0001fae0       ??_C@_0BO@POJBGCGG@glBindFragDataLocationIndexed?$AA@ 00000001401cbae0     glew32s:glew.obj
 0003:0001fb08       ??_C@_0BD@COCJFEOH@glGetFragDataIndex?$AA@ 00000001401cbb08     glew32s:glew.obj
 0003:0001fb20       ??_C@_0BA@COBILMHM@glBufferStorage?$AA@ 00000001401cbb20     glew32s:glew.obj
 0003:0001fb38       ??_C@_0BL@FGCKKDPG@glCreateSyncFromCLeventARB?$AA@ 00000001401cbb38     glew32s:glew.obj
 0003:0001fb58       ??_C@_0BC@FCMBBKMP@glClearBufferData?$AA@ 00000001401cbb58     glew32s:glew.obj
 0003:0001fb70       ??_C@_0BF@FDHIBCMD@glClearBufferSubData?$AA@ 00000001401cbb70     glew32s:glew.obj
 0003:0001fb90       ??_C@_0BK@JIPEFNFB@glClearNamedBufferDataEXT?$AA@ 00000001401cbb90     glew32s:glew.obj
 0003:0001fbb0       ??_C@_0BN@CNJAFGHD@glClearNamedBufferSubDataEXT?$AA@ 00000001401cbbb0     glew32s:glew.obj
 0003:0001fbd8       ??_C@_0BA@FNPOIBAF@glClearTexImage?$AA@ 00000001401cbbd8     glew32s:glew.obj
 0003:0001fbf0       ??_C@_0BD@CFALBON@glClearTexSubImage?$AA@ 00000001401cbbf0     glew32s:glew.obj
 0003:0001fc08       ??_C@_0O@DMMKFMGC@glClipControl?$AA@ 00000001401cbc08     glew32s:glew.obj
 0003:0001fc18       ??_C@_0BA@PBPFKPHF@glClampColorARB?$AA@ 00000001401cbc18     glew32s:glew.obj
 0003:0001fc30       ??_C@_0BC@DKKFFIGC@glDispatchCompute?$AA@ 00000001401cbc30     glew32s:glew.obj
 0003:0001fc48       ??_C@_0BK@EJMOGMMI@glDispatchComputeIndirect?$AA@ 00000001401cbc48     glew32s:glew.obj
 0003:0001fc68       ??_C@_0BO@GJCJOBMI@glDispatchComputeGroupSizeARB?$AA@ 00000001401cbc68     glew32s:glew.obj
 0003:0001fc90       ??_C@_0BE@EPKABDOG@glCopyBufferSubData?$AA@ 00000001401cbc90     glew32s:glew.obj
 0003:0001fca8       ??_C@_0BD@BNCHOBBL@glCopyImageSubData?$AA@ 00000001401cbca8     glew32s:glew.obj
 0003:0001fcc0       ??_C@_0BK@IEHNBEGE@glDebugMessageCallbackARB?$AA@ 00000001401cbcc0     glew32s:glew.obj
 0003:0001fce0       ??_C@_0BJ@IAEPICEJ@glDebugMessageControlARB?$AA@ 00000001401cbce0     glew32s:glew.obj
 0003:0001fd00       ??_C@_0BI@IFLDELCL@glDebugMessageInsertARB?$AA@ 00000001401cbd00     glew32s:glew.obj
 0003:0001fd20       ??_C@_0BI@JOLPFNOB@glGetDebugMessageLogARB?$AA@ 00000001401cbd20     glew32s:glew.obj
 0003:0001fd40       ??_C@_0BC@NKGMGGNI@glBindTextureUnit?$AA@ 00000001401cbd40     glew32s:glew.obj
 0003:0001fd58       ??_C@_0BH@FNFDNHAI@glBlitNamedFramebuffer?$AA@ 00000001401cbd58     glew32s:glew.obj
 0003:0001fd78       ??_C@_0BO@LMABFPGK@glCheckNamedFramebufferStatus?$AA@ 00000001401cbd78     glew32s:glew.obj
 0003:0001fda0       ??_C@_0BH@KJMLMCB@glClearNamedBufferData?$AA@ 00000001401cbda0     glew32s:glew.obj
 0003:0001fdc0       ??_C@_0BK@BNIDNJBH@glClearNamedBufferSubData?$AA@ 00000001401cbdc0     glew32s:glew.obj
 0003:0001fde0       ??_C@_0BK@BJONNAKJ@glClearNamedFramebufferfi?$AA@ 00000001401cbde0     glew32s:glew.obj
 0003:0001fe00       ??_C@_0BK@NELHNODH@glClearNamedFramebufferfv?$AA@ 00000001401cbe00     glew32s:glew.obj
 0003:0001fe20       ??_C@_0BK@NPOLJJAK@glClearNamedFramebufferiv?$AA@ 00000001401cbe20     glew32s:glew.obj
 0003:0001fe40       ??_C@_0BL@JENKNAJN@glClearNamedFramebufferuiv?$AA@ 00000001401cbe40     glew32s:glew.obj
 0003:0001fe60       ??_C@_0BO@NIHAIHFC@glCompressedTextureSubImage1D?$AA@ 00000001401cbe60     glew32s:glew.obj
 0003:0001fe88       ??_C@_0BO@NKDGDJAL@glCompressedTextureSubImage2D?$AA@ 00000001401cbe88     glew32s:glew.obj
 0003:0001feb0       ??_C@_0BO@NLPEFDDM@glCompressedTextureSubImage3D?$AA@ 00000001401cbeb0     glew32s:glew.obj
 0003:0001fed8       ??_C@_0BJ@MJPDCHND@glCopyNamedBufferSubData?$AA@ 00000001401cbed8     glew32s:glew.obj
 0003:0001fef8       ??_C@_0BI@DBEKPOLO@glCopyTextureSubImage1D?$AA@ 00000001401cbef8     glew32s:glew.obj
 0003:0001ff18       ??_C@_0BI@DDAMEAOH@glCopyTextureSubImage2D?$AA@ 00000001401cbf18     glew32s:glew.obj
 0003:0001ff38       ??_C@_0BI@DCMOCKNA@glCopyTextureSubImage3D?$AA@ 00000001401cbf38     glew32s:glew.obj
 0003:0001ff58       ??_C@_0BA@LNBCEANP@glCreateBuffers?$AA@ 00000001401cbf58     glew32s:glew.obj
 0003:0001ff70       ??_C@_0BF@DDKJIBLC@glCreateFramebuffers?$AA@ 00000001401cbf70     glew32s:glew.obj
 0003:0001ff90       ??_C@_0BJ@GJEEIMGK@glCreateProgramPipelines?$AA@ 00000001401cbf90     glew32s:glew.obj
 0003:0001ffb0       ??_C@_0BA@PGNDPLG@glCreateQueries?$AA@ 00000001401cbfb0     glew32s:glew.obj
 0003:0001ffc8       ??_C@_0BG@JJNJGAME@glCreateRenderbuffers?$AA@ 00000001401cbfc8     glew32s:glew.obj
 0003:0001ffe8       ??_C@_0BB@EHBNEMMP@glCreateSamplers?$AA@ 00000001401cbfe8     glew32s:glew.obj
 0003:00020000       ??_C@_0BB@LABGPBKD@glCreateTextures?$AA@ 00000001401cc000     glew32s:glew.obj
 0003:00020018       ??_C@_0BL@HPCMJLAK@glCreateTransformFeedbacks?$AA@ 00000001401cc018     glew32s:glew.obj
 0003:00020038       ??_C@_0BF@CMMGIOCI@glCreateVertexArrays?$AA@ 00000001401cc038     glew32s:glew.obj
 0003:00020058       ??_C@_0BL@FEKBMKFD@glDisableVertexArrayAttrib?$AA@ 00000001401cc058     glew32s:glew.obj
 0003:00020078       ??_C@_0BK@MJMKFCHC@glEnableVertexArrayAttrib?$AA@ 00000001401cc078     glew32s:glew.obj
 0003:00020098       ??_C@_0BO@DBGNKBKH@glFlushMappedNamedBufferRange?$AA@ 00000001401cc098     glew32s:glew.obj
 0003:000200c0       ??_C@_0BI@JJPLGFEG@glGenerateTextureMipmap?$AA@ 00000001401cc0c0     glew32s:glew.obj
 0003:000200e0       ??_C@_0BM@JOKODHH@glGetCompressedTextureImage?$AA@ 00000001401cc0e0     glew32s:glew.obj
 0003:00020108       ??_C@_0BO@ECJNIDNL@glGetNamedBufferParameteri64v?$AA@ 00000001401cc108     glew32s:glew.obj
 0003:00020130       ??_C@_0BM@KFAGBFPK@glGetNamedBufferParameteriv?$AA@ 00000001401cc130     glew32s:glew.obj
 0003:00020158       ??_C@_0BJ@NBEMEIKG@glGetNamedBufferPointerv?$AA@ 00000001401cc158     glew32s:glew.obj
 0003:00020178       ??_C@_0BI@PJBCKPNA@glGetNamedBufferSubData?$AA@ 00000001401cc178     glew32s:glew.obj
 0003:00020198       ??_C@_0CL@BGDPEPCC@glGetNamedFramebufferAttachmentP@ 00000001401cc198     glew32s:glew.obj
 0003:000201d0       ??_C@_0CB@COGAJBEM@glGetNamedFramebufferParameteriv@ 00000001401cc1d0     glew32s:glew.obj
 0003:000201f8       ??_C@_0CC@FCEAEAHI@glGetNamedRenderbufferParameteri@ 00000001401cc1f8     glew32s:glew.obj
 0003:00020220       ??_C@_0BL@KFECDHBF@glGetQueryBufferObjecti64v?$AA@ 00000001401cc220     glew32s:glew.obj
 0003:00020240       ??_C@_0BJ@OBIFNHGB@glGetQueryBufferObjectiv?$AA@ 00000001401cc240     glew32s:glew.obj
 0003:00020260       ??_C@_0BM@DFNHDHD@glGetQueryBufferObjectui64v?$AA@ 00000001401cc260     glew32s:glew.obj
 0003:00020288       ??_C@_0BK@EOIEAGAD@glGetQueryBufferObjectuiv?$AA@ 00000001401cc288     glew32s:glew.obj
 0003:000202a8       ??_C@_0BC@PJDCJNIH@glGetTextureImage?$AA@ 00000001401cc2a8     glew32s:glew.obj
 0003:000202c0       ??_C@_0BN@HMEFKCC@glGetTextureLevelParameterfv?$AA@ 00000001401cc2c0     glew32s:glew.obj
 0003:000202e8       ??_C@_0BN@MJIBNBP@glGetTextureLevelParameteriv?$AA@ 00000001401cc2e8     glew32s:glew.obj
 0003:00020310       ??_C@_0BJ@PIPELMMF@glGetTextureParameterIiv?$AA@ 00000001401cc310     glew32s:glew.obj
 0003:00020330       ??_C@_0BK@JPCGBAJJ@glGetTextureParameterIuiv?$AA@ 00000001401cc330     glew32s:glew.obj
 0003:00020350       ??_C@_0BI@NBDPHHJH@glGetTextureParameterfv?$AA@ 00000001401cc350     glew32s:glew.obj
 0003:00020370       ??_C@_0BI@NKGDDAKK@glGetTextureParameteriv?$AA@ 00000001401cc370     glew32s:glew.obj
 0003:00020390       ??_C@_0BM@KDHFPNLE@glGetTransformFeedbacki64_v?$AA@ 00000001401cc390     glew32s:glew.obj
 0003:000203b8       ??_C@_0BK@IPHNHFEI@glGetTransformFeedbacki_v?$AA@ 00000001401cc3b8     glew32s:glew.obj
 0003:000203d8       ??_C@_0BJ@OFMLPMDO@glGetTransformFeedbackiv?$AA@ 00000001401cc3d8     glew32s:glew.obj
 0003:000203f8       ??_C@_0BM@HHNNHCN@glGetVertexArrayIndexed64iv?$AA@ 00000001401cc3f8     glew32s:glew.obj
 0003:00020420       ??_C@_0BK@FIIPMDBK@glGetVertexArrayIndexediv?$AA@ 00000001401cc420     glew32s:glew.obj
 0003:00020440       ??_C@_0BD@CPJNCJFG@glGetVertexArrayiv?$AA@ 00000001401cc440     glew32s:glew.obj
 0003:00020458       ??_C@_0CB@OGGNKJIL@glInvalidateNamedFramebufferData@ 00000001401cc458     glew32s:glew.obj
 0003:00020480       ??_C@_0CE@DEGDCFND@glInvalidateNamedFramebufferSubD@ 00000001401cc480     glew32s:glew.obj
 0003:000204b0       ??_C@_0BB@JLMCGIDB@glMapNamedBuffer?$AA@ 00000001401cc4b0     glew32s:glew.obj
 0003:000204c8       ??_C@_0BG@JLCGKFD@glMapNamedBufferRange?$AA@ 00000001401cc4c8     glew32s:glew.obj
 0003:000204e8       ??_C@_0BC@LHEABGCG@glNamedBufferData?$AA@ 00000001401cc4e8     glew32s:glew.obj
 0003:00020500       ??_C@_0BF@INMFIINC@glNamedBufferStorage?$AA@ 00000001401cc500     glew32s:glew.obj
 0003:00020520       ??_C@_0BF@MDEBAFLD@glNamedBufferSubData?$AA@ 00000001401cc520     glew32s:glew.obj
 0003:00020540       ??_C@_0BN@MOAIHNEF@glNamedFramebufferDrawBuffer?$AA@ 00000001401cc540     glew32s:glew.obj
 0003:00020568       ??_C@_0BO@CGKJHFH@glNamedFramebufferDrawBuffers?$AA@ 00000001401cc568     glew32s:glew.obj
 0003:00020590       ??_C@_0BN@LBMOOIHC@glNamedFramebufferParameteri?$AA@ 00000001401cc590     glew32s:glew.obj
 0003:000205b8       ??_C@_0BN@LPANNPJE@glNamedFramebufferReadBuffer?$AA@ 00000001401cc5b8     glew32s:glew.obj
 0003:000205e0       ??_C@_0BP@MGCPNBGC@glNamedFramebufferRenderbuffer?$AA@ 00000001401cc5e0     glew32s:glew.obj
 0003:00020608       ??_C@_0BK@PNJJLPPI@glNamedFramebufferTexture?$AA@ 00000001401cc608     glew32s:glew.obj
 0003:00020628       ??_C@_0BP@PHGPDAJM@glNamedFramebufferTextureLayer?$AA@ 00000001401cc628     glew32s:glew.obj
 0003:00020650       ??_C@_0BL@DGDPFKGM@glNamedRenderbufferStorage?$AA@ 00000001401cc650     glew32s:glew.obj
 0003:00020670       ??_C@_0CG@IDKJGKBA@glNamedRenderbufferStorageMultis@ 00000001401cc670     glew32s:glew.obj
 0003:000206a0       ??_C@_0BA@BEJOBNBA@glTextureBuffer?$AA@ 00000001401cc6a0     glew32s:glew.obj
 0003:000206b8       ??_C@_0BF@HAEPGPBJ@glTextureBufferRange?$AA@ 00000001401cc6b8     glew32s:glew.obj
 0003:000206d8       ??_C@_0BG@CMHFNPIN@glTextureParameterIiv?$AA@ 00000001401cc6d8     glew32s:glew.obj
 0003:000206f8       ??_C@_0BH@OHPFFIFI@glTextureParameterIuiv?$AA@ 00000001401cc6f8     glew32s:glew.obj
 0003:00020718       ??_C@_0BE@NLINBPMM@glTextureParameterf?$AA@ 00000001401cc718     glew32s:glew.obj
 0003:00020730       ??_C@_0BF@OLGMNNPE@glTextureParameterfv?$AA@ 00000001401cc730     glew32s:glew.obj
 0003:00020750       ??_C@_0BE@FMBFADAD@glTextureParameteri?$AA@ 00000001401cc750     glew32s:glew.obj
 0003:00020768       ??_C@_0BF@OADAJKMJ@glTextureParameteriv?$AA@ 00000001401cc768     glew32s:glew.obj
 0003:00020788       ??_C@_0BD@CJOBHECL@glTextureStorage1D?$AA@ 00000001401cc788     glew32s:glew.obj
 0003:000207a0       ??_C@_0BD@CLKHMKHC@glTextureStorage2D?$AA@ 00000001401cc7a0     glew32s:glew.obj
 0003:000207b8       ??_C@_0BO@CIHBMJOI@glTextureStorage2DMultisample?$AA@ 00000001401cc7b8     glew32s:glew.obj
 0003:000207e0       ??_C@_0BD@CKGFKAEF@glTextureStorage3D?$AA@ 00000001401cc7e0     glew32s:glew.obj
 0003:000207f8       ??_C@_0BO@LFHOCIJO@glTextureStorage3DMultisample?$AA@ 00000001401cc7f8     glew32s:glew.obj
 0003:00020820       ??_C@_0BE@IDMGLJDA@glTextureSubImage1D?$AA@ 00000001401cc820     glew32s:glew.obj
 0003:00020838       ??_C@_0BE@IBIAAHGJ@glTextureSubImage2D?$AA@ 00000001401cc838     glew32s:glew.obj
 0003:00020850       ??_C@_0BE@IAECGNFO@glTextureSubImage3D?$AA@ 00000001401cc850     glew32s:glew.obj
 0003:00020868       ??_C@_0BO@EGLKNJFA@glTransformFeedbackBufferBase?$AA@ 00000001401cc868     glew32s:glew.obj
 0003:00020890       ??_C@_0BP@NBIGCNHI@glTransformFeedbackBufferRange?$AA@ 00000001401cc890     glew32s:glew.obj
 0003:000208b8       ??_C@_0BD@LAAONAHD@glUnmapNamedBuffer?$AA@ 00000001401cc8b8     glew32s:glew.obj
 0003:000208d0       ??_C@_0BL@DJHJAEGB@glVertexArrayAttribBinding?$AA@ 00000001401cc8d0     glew32s:glew.obj
 0003:000208f0       ??_C@_0BK@ONFBAOHM@glVertexArrayAttribFormat?$AA@ 00000001401cc8f0     glew32s:glew.obj
 0003:00020910       ??_C@_0BL@JMMLHBDN@glVertexArrayAttribIFormat?$AA@ 00000001401cc910     glew32s:glew.obj
 0003:00020930       ??_C@_0BL@NECLHPFJ@glVertexArrayAttribLFormat?$AA@ 00000001401cc930     glew32s:glew.obj
 0003:00020950       ??_C@_0BM@BNDNIOBB@glVertexArrayBindingDivisor?$AA@ 00000001401cc950     glew32s:glew.obj
 0003:00020978       ??_C@_0BL@GGCAPDMO@glVertexArrayElementBuffer?$AA@ 00000001401cc978     glew32s:glew.obj
 0003:00020998       ??_C@_0BK@BIEMNHGJ@glVertexArrayVertexBuffer?$AA@ 00000001401cc998     glew32s:glew.obj
 0003:000209b8       ??_C@_0BL@DAGELPBO@glVertexArrayVertexBuffers?$AA@ 00000001401cc9b8     glew32s:glew.obj
 0003:000209d8       ??_C@_0BB@DLEFHLGI@glDrawBuffersARB?$AA@ 00000001401cc9d8     glew32s:glew.obj
 0003:000209f0       ??_C@_0BM@DHGCGJJC@glBlendEquationSeparateiARB?$AA@ 00000001401cc9f0     glew32s:glew.obj
 0003:00020a18       ??_C@_0BE@MKEGJKA@glBlendEquationiARB?$AA@ 00000001401cca18     glew32s:glew.obj
 0003:00020a30       ??_C@_0BI@EJDLCHDA@glBlendFuncSeparateiARB?$AA@ 00000001401cca30     glew32s:glew.obj
 0003:00020a50       ??_C@_0BA@IINKCNIC@glBlendFunciARB?$AA@ 00000001401cca50     glew32s:glew.obj
 0003:00020a68       ??_C@_0BJ@LFMMIAHA@glDrawElementsBaseVertex?$AA@ 00000001401cca68     glew32s:glew.obj
 0003:00020a88       ??_C@_0CC@KLOIIKNA@glDrawElementsInstancedBaseVerte@ 00000001401cca88     glew32s:glew.obj
 0003:00020ab0       ??_C@_0BO@KBDDBILP@glDrawRangeElementsBaseVertex?$AA@ 00000001401ccab0     glew32s:glew.obj
 0003:00020ad8       ??_C@_0BO@NAPFJEEK@glMultiDrawElementsBaseVertex?$AA@ 00000001401ccad8     glew32s:glew.obj
 0003:00020b00       ??_C@_0BF@BGDCPAEP@glDrawArraysIndirect?$AA@ 00000001401ccb00     glew32s:glew.obj
 0003:00020b20       ??_C@_0BH@LJJDOEDH@glDrawElementsIndirect?$AA@ 00000001401ccb20     glew32s:glew.obj
 0003:00020b40       ??_C@_0BI@MLACHGDK@glFramebufferParameteri?$AA@ 00000001401ccb40     glew32s:glew.obj
 0003:00020b60       ??_C@_0BM@BFEEFCMK@glGetFramebufferParameteriv?$AA@ 00000001401ccb60     glew32s:glew.obj
 0003:00020b88       ??_C@_0CE@EMNKOBNO@glGetNamedFramebufferParameteriv@ 00000001401ccb88     glew32s:glew.obj
 0003:00020bb8       ??_C@_0CA@KNLMGFIL@glNamedFramebufferParameteriEXT?$AA@ 00000001401ccbb8     glew32s:glew.obj
 0003:00020be0       ??_C@_0BC@CJMIBNO@glBindFramebuffer?$AA@ 00000001401ccbe0     glew32s:glew.obj
 0003:00020bf8       ??_C@_0BD@EPOPJGFA@glBindRenderbuffer?$AA@ 00000001401ccbf8     glew32s:glew.obj
 0003:00020c10       ??_C@_0BC@OANBDDEP@glBlitFramebuffer?$AA@ 00000001401ccc10     glew32s:glew.obj
 0003:00020c28       ??_C@_0BJ@GIOLHEAD@glCheckFramebufferStatus?$AA@ 00000001401ccc28     glew32s:glew.obj
 0003:00020c48       ??_C@_0BF@DJNJENP@glDeleteFramebuffers?$AA@ 00000001401ccc48     glew32s:glew.obj
 0003:00020c68       ??_C@_0BG@KKOKEJDE@glDeleteRenderbuffers?$AA@ 00000001401ccc68     glew32s:glew.obj
 0003:00020c88       ??_C@_0BK@OJDINAOA@glFramebufferRenderbuffer?$AA@ 00000001401ccc88     glew32s:glew.obj
 0003:00020ca8       ??_C@_0BH@JAMDNNBM@glFramebufferTexture1D?$AA@ 00000001401ccca8     glew32s:glew.obj
 0003:00020cc8       ??_C@_0BH@JCIFGDEF@glFramebufferTexture2D?$AA@ 00000001401cccc8     glew32s:glew.obj
 0003:00020ce8       ??_C@_0BH@JDEHAJHC@glFramebufferTexture3D?$AA@ 00000001401ccce8     glew32s:glew.obj
 0003:00020d08       ??_C@_0BK@NIHIDBBO@glFramebufferTextureLayer?$AA@ 00000001401ccd08     glew32s:glew.obj
 0003:00020d28       ??_C@_0BC@FAPEBGID@glGenFramebuffers?$AA@ 00000001401ccd28     glew32s:glew.obj
 0003:00020d40       ??_C@_0BD@MIGEDNGJ@glGenRenderbuffers?$AA@ 00000001401ccd40     glew32s:glew.obj
 0003:00020d58       ??_C@_0BB@BHNIMGDM@glGenerateMipmap?$AA@ 00000001401ccd58     glew32s:glew.obj
 0003:00020d70       ??_C@_0CG@KLDGJEON@glGetFramebufferAttachmentParame@ 00000001401ccd70     glew32s:glew.obj
 0003:00020da0       ??_C@_0BN@FGKAECKO@glGetRenderbufferParameteriv?$AA@ 00000001401ccda0     glew32s:glew.obj
 0003:00020dc8       ??_C@_0BA@FGBIJCNH@glIsFramebuffer?$AA@ 00000001401ccdc8     glew32s:glew.obj
 0003:00020de0       ??_C@_0BB@DGGHKKOH@glIsRenderbuffer?$AA@ 00000001401ccde0     glew32s:glew.obj
 0003:00020df8       ??_C@_0BG@EOIILGMJ@glRenderbufferStorage?$AA@ 00000001401ccdf8     glew32s:glew.obj
 0003:00020e18       ??_C@_0CB@HNONLGJE@glRenderbufferStorageMultisample@ 00000001401cce18     glew32s:glew.obj
 0003:00020e40       ??_C@_0BI@KFEKMNEL@glFramebufferTextureARB?$AA@ 00000001401cce40     glew32s:glew.obj
 0003:00020e60       ??_C@_0BM@PJPLFKLO@glFramebufferTextureFaceARB?$AA@ 00000001401cce60     glew32s:glew.obj
 0003:00020e88       ??_C@_0BN@OEJIBP@glFramebufferTextureLayerARB?$AA@ 00000001401cce88     glew32s:glew.obj
 0003:00020eb0       ??_C@_0BH@GELPODLK@glProgramParameteriARB?$AA@ 00000001401cceb0     glew32s:glew.obj
 0003:00020ed0       ??_C@_0BD@JBCEHKON@glGetProgramBinary?$AA@ 00000001401cced0     glew32s:glew.obj
 0003:00020ee8       ??_C@_0BA@MIIDHOO@glProgramBinary?$AA@ 00000001401ccee8     glew32s:glew.obj
 0003:00020f00       ??_C@_0BE@EELDBEME@glProgramParameteri?$AA@ 00000001401ccf00     glew32s:glew.obj
 0003:00020f18       ??_C@_0BP@BIDENANP@glGetCompressedTextureSubImage?$AA@ 00000001401ccf18     glew32s:glew.obj
 0003:00020f40       ??_C@_0BF@JEEEKNGB@glGetTextureSubImage?$AA@ 00000001401ccf40     glew32s:glew.obj
 0003:00020f60       ??_C@_0BG@FJHAHFCB@glSpecializeShaderARB?$AA@ 00000001401ccf60     glew32s:glew.obj
 0003:00020f80       ??_C@_0P@NGEMHI@glGetUniformdv?$AA@ 00000001401ccf80     glew32s:glew.obj
 0003:00020f98       ??_C@_0M@PJLEGNGH@glUniform1d?$AA@ 00000001401ccf98     glew32s:glew.obj
 0003:00020fa8       ??_C@_0N@KKEKJOOG@glUniform1dv?$AA@ 00000001401ccfa8     glew32s:glew.obj
 0003:00020fb8       ??_C@_0M@PLPCNDDO@glUniform2d?$AA@ 00000001401ccfb8     glew32s:glew.obj
 0003:00020fc8       ??_C@_0N@LIPPDBAI@glUniform2dv?$AA@ 00000001401ccfc8     glew32s:glew.obj
 0003:00020fd8       ??_C@_0M@PKDALJAJ@glUniform3d?$AA@ 00000001401ccfd8     glew32s:glew.obj
 0003:00020fe8       ??_C@_0N@EDFGGN@glUniform3dv?$AA@ 00000001401ccfe8     glew32s:glew.obj
 0003:00020ff8       ??_C@_0M@PPHPKPIM@glUniform4d?$AA@ 00000001401ccff8     glew32s:glew.obj
 0003:00021008       ??_C@_0N@JNJEGONE@glUniform4dv?$AA@ 00000001401cd008     glew32s:glew.obj
 0003:00021018       ??_C@_0BD@JLJNJPBN@glUniformMatrix2dv?$AA@ 00000001401cd018     glew32s:glew.obj
 0003:00021030       ??_C@_0BF@KALNBGFE@glUniformMatrix2x3dv?$AA@ 00000001401cd030     glew32s:glew.obj
 0003:00021050       ??_C@_0BF@DNGKCOON@glUniformMatrix2x4dv?$AA@ 00000001401cd050     glew32s:glew.obj
 0003:00021070       ??_C@_0BD@CDCBPIHI@glUniformMatrix3dv?$AA@ 00000001401cd070     glew32s:glew.obj
 0003:00021088       ??_C@_0BF@NDFNKCJE@glUniformMatrix3x2dv?$AA@ 00000001401cd088     glew32s:glew.obj
 0003:000210a8       ??_C@_0BF@PGDGPNEI@glUniformMatrix3x4dv?$AA@ 00000001401cd0a8     glew32s:glew.obj
 0003:000210c8       ??_C@_0BD@LOPGMAMB@glUniformMatrix4dv?$AA@ 00000001401cd0c8     glew32s:glew.obj
 0003:000210e0       ??_C@_0BF@MOFIJCCM@glUniformMatrix4x2dv?$AA@ 00000001401cd0e0     glew32s:glew.obj
 0003:00021100       ??_C@_0BF@HGOEPFEJ@glUniformMatrix4x3dv?$AA@ 00000001401cd100     glew32s:glew.obj
 0003:00021120       ??_C@_0BE@CJMMNNHE@glGetUniformi64vARB?$AA@ 00000001401cd120     glew32s:glew.obj
 0003:00021138       ??_C@_0BF@MLHIIBKJ@glGetUniformui64vARB?$AA@ 00000001401cd138     glew32s:glew.obj
 0003:00021158       ??_C@_0BF@JCDBOHM@glGetnUniformi64vARB?$AA@ 00000001401cd158     glew32s:glew.obj
 0003:00021178       ??_C@_0BG@MFIDOGFI@glGetnUniformui64vARB?$AA@ 00000001401cd178     glew32s:glew.obj
 0003:00021198       ??_C@_0BI@BAHCFOJD@glProgramUniform1i64ARB?$AA@ 00000001401cd198     glew32s:glew.obj
 0003:000211b8       ??_C@_0BJ@OGNCKCLA@glProgramUniform1i64vARB?$AA@ 00000001401cd1b8     glew32s:glew.obj
 0003:000211d8       ??_C@_0BJ@HHKALFKI@glProgramUniform1ui64ARB?$AA@ 00000001401cd1d8     glew32s:glew.obj
 0003:000211f8       ??_C@_0BK@FHLOJJHP@glProgramUniform1ui64vARB?$AA@ 00000001401cd1f8     glew32s:glew.obj
 0003:00021218       ??_C@_0BI@JOPNFJHA@glProgramUniform2i64ARB?$AA@ 00000001401cd218     glew32s:glew.obj
 0003:00021238       ??_C@_0BJ@NPFPJOHF@glProgramUniform2i64vARB?$AA@ 00000001401cd238     glew32s:glew.obj
 0003:00021258       ??_C@_0BJ@EOCNIJGN@glProgramUniform2ui64ARB?$AA@ 00000001401cd258     glew32s:glew.obj
 0003:00021278       ??_C@_0BK@LMIJCCHM@glProgramUniform2ui64vARB?$AA@ 00000001401cd278     glew32s:glew.obj
 0003:00021298       ??_C@_0BI@FCFHFJOO@glProgramUniform3i64ARB?$AA@ 00000001401cd298     glew32s:glew.obj
 0003:000212b8       ??_C@_0BJ@MICEIKDG@glProgramUniform3i64vARB?$AA@ 00000001401cd2b8     glew32s:glew.obj
 0003:000212d8       ??_C@_0BJ@FJFGJNCO@glProgramUniform3ui64ARB?$AA@ 00000001401cd2d8     glew32s:glew.obj
 0003:000212f8       ??_C@_0BK@FDELEJEC@glProgramUniform3ui64vARB?$AA@ 00000001401cd2f8     glew32s:glew.obj
 0003:00021318       ??_C@_0BI@FIJCFAPH@glProgramUniform4i64ARB?$AA@ 00000001401cd318     glew32s:glew.obj
 0003:00021338       ??_C@_0BJ@KMEFOHPP@glProgramUniform4i64vARB?$AA@ 00000001401cd338     glew32s:glew.obj
 0003:00021358       ??_C@_0BJ@DNDHPAOH@glProgramUniform4ui64ARB?$AA@ 00000001401cd358     glew32s:glew.obj
 0003:00021378       ??_C@_0BK@LBJHFCDL@glProgramUniform4ui64vARB?$AA@ 00000001401cd378     glew32s:glew.obj
 0003:00021398       ??_C@_0BB@IMPNPLIM@glUniform1i64ARB?$AA@ 00000001401cd398     glew32s:glew.obj
 0003:000213b0       ??_C@_0BC@GLEGCAOA@glUniform1i64vARB?$AA@ 00000001401cd3b0     glew32s:glew.obj
 0003:000213c8       ??_C@_0BC@PKDEDHPI@glUniform1ui64ARB?$AA@ 00000001401cd3c8     glew32s:glew.obj
 0003:000213e0       ??_C@_0BD@DMFIFMAJ@glUniform1ui64vARB?$AA@ 00000001401cd3e0     glew32s:glew.obj
 0003:000213f8       ??_C@_0BB@CHCPMGP@glUniform2i64ARB?$AA@ 00000001401cd3f8     glew32s:glew.obj
 0003:00021410       ??_C@_0BC@FCMLBMCF@glUniform2i64vARB?$AA@ 00000001401cd410     glew32s:glew.obj
 0003:00021428       ??_C@_0BC@MDLJALDN@glUniform2ui64ARB?$AA@ 00000001401cd428     glew32s:glew.obj
 0003:00021440       ??_C@_0BD@NHGPOHAK@glUniform2ui64vARB?$AA@ 00000001401cd440     glew32s:glew.obj
 0003:00021458       ??_C@_0BB@MONIPMPB@glUniform3i64ARB?$AA@ 00000001401cd458     glew32s:glew.obj
 0003:00021470       ??_C@_0BC@EFLAAIGG@glUniform3i64vARB?$AA@ 00000001401cd470     glew32s:glew.obj
 0003:00021488       ??_C@_0BC@NEMCBPHO@glUniform3ui64ARB?$AA@ 00000001401cd488     glew32s:glew.obj
 0003:000214a0       ??_C@_0BD@DIKNIMDE@glUniform3ui64vARB?$AA@ 00000001401cd4a0     glew32s:glew.obj
 0003:000214b8       ??_C@_0BB@MEBNPFOI@glUniform4i64ARB?$AA@ 00000001401cd4b8     glew32s:glew.obj
 0003:000214d0       ??_C@_0BC@CBNBGFKP@glUniform4i64vARB?$AA@ 00000001401cd4d0     glew32s:glew.obj
 0003:000214e8       ??_C@_0BC@LAKDHCLH@glUniform4ui64ARB?$AA@ 00000001401cd4e8     glew32s:glew.obj
 0003:00021500       ??_C@_0BD@NKHBJHEN@glUniform4ui64vARB?$AA@ 00000001401cd500     glew32s:glew.obj
 0003:00021518       ??_C@_0BA@JAMHNPHF@glColorSubTable?$AA@ 00000001401cd518     glew32s:glew.obj
 0003:00021530       ??_C@_0N@PCFLODHG@glColorTable?$AA@ 00000001401cd530     glew32s:glew.obj
 0003:00021540       ??_C@_0BI@DEIGFBNP@glColorTableParameterfv?$AA@ 00000001401cd540     glew32s:glew.obj
 0003:00021560       ??_C@_0BI@DPNKBGOC@glColorTableParameteriv?$AA@ 00000001401cd560     glew32s:glew.obj
 0003:00021580       ??_C@_0BG@CJBBBGMA@glConvolutionFilter1D?$AA@ 00000001401cd580     glew32s:glew.obj
 0003:000215a0       ??_C@_0BG@CLFHKIJJ@glConvolutionFilter2D?$AA@ 00000001401cd5a0     glew32s:glew.obj
 0003:000215c0       ??_C@_0BI@PLJALAOH@glConvolutionParameterf?$AA@ 00000001401cd5c0     glew32s:glew.obj
 0003:000215e0       ??_C@_0BJ@EHPADJBL@glConvolutionParameterfv?$AA@ 00000001401cd5e0     glew32s:glew.obj
 0003:00021600       ??_C@_0BI@HMAIKMCI@glConvolutionParameteri?$AA@ 00000001401cd600     glew32s:glew.obj
 0003:00021620       ??_C@_0BJ@EMKMHOCG@glConvolutionParameteriv?$AA@ 00000001401cd620     glew32s:glew.obj
 0003:00021640       ??_C@_0BE@LPPLPNIO@glCopyColorSubTable?$AA@ 00000001401cd640     glew32s:glew.obj
 0003:00021658       ??_C@_0BB@KFNEDBPG@glCopyColorTable?$AA@ 00000001401cd658     glew32s:glew.obj
 0003:00021670       ??_C@_0BK@GEKJMFLK@glCopyConvolutionFilter1D?$AA@ 00000001401cd670     glew32s:glew.obj
 0003:00021690       ??_C@_0BK@GGOPHLOD@glCopyConvolutionFilter2D?$AA@ 00000001401cd690     glew32s:glew.obj
 0003:000216b0       ??_C@_0BA@JMNLAECM@glGetColorTable?$AA@ 00000001401cd6b0     glew32s:glew.obj
 0003:000216c8       ??_C@_0BL@NIJNHALB@glGetColorTableParameterfv?$AA@ 00000001401cd6c8     glew32s:glew.obj
 0003:000216e8       ??_C@_0BL@NDMBDHIM@glGetColorTableParameteriv?$AA@ 00000001401cd6e8     glew32s:glew.obj
 0003:00021708       ??_C@_0BH@LPCMFECN@glGetConvolutionFilter?$AA@ 00000001401cd708     glew32s:glew.obj
 0003:00021728       ??_C@_0BM@ONBGGOGF@glGetConvolutionParameterfv?$AA@ 00000001401cd728     glew32s:glew.obj
 0003:00021750       ??_C@_0BM@OGEKCJFI@glGetConvolutionParameteriv?$AA@ 00000001401cd750     glew32s:glew.obj
 0003:00021778       ??_C@_0P@KEFKNNKH@glGetHistogram?$AA@ 00000001401cd778     glew32s:glew.obj
 0003:00021790       ??_C@_0BK@IFPDKCN@glGetHistogramParameterfv?$AA@ 00000001401cd790     glew32s:glew.obj
 0003:000217b0       ??_C@_0BK@DADHNBA@glGetHistogramParameteriv?$AA@ 00000001401cd7b0     glew32s:glew.obj
 0003:000217d0       ??_C@_0M@ILDMABIA@glGetMinmax?$AA@ 00000001401cd7d0     glew32s:glew.obj
 0003:000217e0       ??_C@_0BH@ONPKEHGK@glGetMinmaxParameterfv?$AA@ 00000001401cd7e0     glew32s:glew.obj
 0003:00021800       ??_C@_0BH@OGKGAAFH@glGetMinmaxParameteriv?$AA@ 00000001401cd800     glew32s:glew.obj
 0003:00021820       ??_C@_0BF@LPFBPGKD@glGetSeparableFilter?$AA@ 00000001401cd820     glew32s:glew.obj
 0003:00021840       ??_C@_0M@EPLLGADA@glHistogram?$AA@ 00000001401cd840     glew32s:glew.obj
 0003:00021850       ??_C@_08ONCKEMPI@glMinmax?$AA@ 00000001401cd850     glew32s:glew.obj
 0003:00021860       ??_C@_0BB@OBMEDNFE@glResetHistogram?$AA@ 00000001401cd860     glew32s:glew.obj
 0003:00021878       ??_C@_0O@MKNEKFLH@glResetMinmax?$AA@ 00000001401cd878     glew32s:glew.obj
 0003:00021888       ??_C@_0BE@IEPFBBMM@glSeparableFilter2D?$AA@ 00000001401cd888     glew32s:glew.obj
 0003:000218a0       ??_C@_0CC@GFMDJHGF@glMultiDrawArraysIndirectCountAR@ 00000001401cd8a0     glew32s:glew.obj
 0003:000218c8       ??_C@_0CE@ONILMPPM@glMultiDrawElementsIndirectCount@ 00000001401cd8c8     glew32s:glew.obj
 0003:000218f8       ??_C@_0BJ@NIEKILNL@glDrawArraysInstancedARB?$AA@ 00000001401cd8f8     glew32s:glew.obj
 0003:00021918       ??_C@_0BL@JMJLDLNF@glDrawElementsInstancedARB?$AA@ 00000001401cd918     glew32s:glew.obj
 0003:00021938       ??_C@_0BJ@KDFJOAKK@glVertexAttribDivisorARB?$AA@ 00000001401cd938     glew32s:glew.obj
 0003:00021958       ??_C@_0BG@BAOCDJPF@glGetInternalformativ?$AA@ 00000001401cd958     glew32s:glew.obj
 0003:00021978       ??_C@_0BI@PHNNEGBD@glGetInternalformati64v?$AA@ 00000001401cd978     glew32s:glew.obj
 0003:00021998       ??_C@_0BH@OGIFIBHA@glInvalidateBufferData?$AA@ 00000001401cd998     glew32s:glew.obj
 0003:000219b8       ??_C@_0BK@HOHOHNAC@glInvalidateBufferSubData?$AA@ 00000001401cd9b8     glew32s:glew.obj
 0003:000219d8       ??_C@_0BI@OAJPOHIP@glInvalidateFramebuffer?$AA@ 00000001401cd9d8     glew32s:glew.obj
 0003:000219f8       ??_C@_0BL@IHGLAPPE@glInvalidateSubFramebuffer?$AA@ 00000001401cd9f8     glew32s:glew.obj
 0003:00021a18       ??_C@_0BF@KHIECPKG@glInvalidateTexImage?$AA@ 00000001401cda18     glew32s:glew.obj
 0003:00021a38       ??_C@_0BI@FJDKFLGL@glInvalidateTexSubImage?$AA@ 00000001401cda38     glew32s:glew.obj
 0003:00021a58       ??_C@_0BJ@NCDMGHKF@glFlushMappedBufferRange?$AA@ 00000001401cda58     glew32s:glew.obj
 0003:00021a78       ??_C@_0BB@EOHJGBIO@glMapBufferRange?$AA@ 00000001401cda78     glew32s:glew.obj
 0003:00021a90       ??_C@_0BK@HJCEONII@glCurrentPaletteMatrixARB?$AA@ 00000001401cda90     glew32s:glew.obj
 0003:00021ab0       ??_C@_0BI@LOCLKDCL@glMatrixIndexPointerARB?$AA@ 00000001401cdab0     glew32s:glew.obj
 0003:00021ad0       ??_C@_0BE@HCLPKGGK@glMatrixIndexubvARB?$AA@ 00000001401cdad0     glew32s:glew.obj
 0003:00021ae8       ??_C@_0BE@BIHIFGKJ@glMatrixIndexuivARB?$AA@ 00000001401cdae8     glew32s:glew.obj
 0003:00021b00       ??_C@_0BE@LKDFHHFE@glMatrixIndexusvARB?$AA@ 00000001401cdb00     glew32s:glew.obj
 0003:00021b18       ??_C@_0BC@ENBBLPHM@glBindBuffersBase?$AA@ 00000001401cdb18     glew32s:glew.obj
 0003:00021b30       ??_C@_0BD@ODFFOKPN@glBindBuffersRange?$AA@ 00000001401cdb30     glew32s:glew.obj
 0003:00021b48       ??_C@_0BE@NAMJLOCK@glBindImageTextures?$AA@ 00000001401cdb48     glew32s:glew.obj
 0003:00021b60       ??_C@_0P@FADPDFKM@glBindSamplers?$AA@ 00000001401cdb60     glew32s:glew.obj
 0003:00021b78       ??_C@_0P@KHDEIIMA@glBindTextures?$AA@ 00000001401cdb78     glew32s:glew.obj
 0003:00021b90       ??_C@_0BE@LNCGJHDC@glBindVertexBuffers?$AA@ 00000001401cdb90     glew32s:glew.obj
 0003:00021ba8       ??_C@_0BK@IKGAIKOP@glMultiDrawArraysIndirect?$AA@ 00000001401cdba8     glew32s:glew.obj
 0003:00021bc8       ??_C@_0BM@KHEEFMKO@glMultiDrawElementsIndirect?$AA@ 00000001401cdbc8     glew32s:glew.obj
 0003:00021bf0       ??_C@_0BE@NMFNHPGD@glSampleCoverageARB?$AA@ 00000001401cdbf0     glew32s:glew.obj
 0003:00021c08       ??_C@_0BD@IKCKKKNH@glActiveTextureARB?$AA@ 00000001401cdc08     glew32s:glew.obj
 0003:00021c20       ??_C@_0BJ@PBJNGLJH@glClientActiveTextureARB?$AA@ 00000001401cdc20     glew32s:glew.obj
 0003:00021c40       ??_C@_0BF@JJDGKFDO@glMultiTexCoord1dARB?$AA@ 00000001401cdc40     glew32s:glew.obj
 0003:00021c60       ??_C@_0BG@EODMDJBO@glMultiTexCoord1dvARB?$AA@ 00000001401cdc60     glew32s:glew.obj
 0003:00021c80       ??_C@_0BF@ODPGPGFO@glMultiTexCoord1fARB?$AA@ 00000001401cdc80     glew32s:glew.obj
 0003:00021ca0       ??_C@_0BG@DPEJIBF@glMultiTexCoord1fvARB?$AA@ 00000001401cdca0     glew32s:glew.obj
 0003:00021cc0       ??_C@_0BF@GBKGGBIP@glMultiTexCoord1iARB?$AA@ 00000001401cdcc0     glew32s:glew.obj
 0003:00021ce0       ??_C@_0BG@PCKCCKMA@glMultiTexCoord1ivARB?$AA@ 00000001401cdce0     glew32s:glew.obj
 0003:00021d00       ??_C@_0BF@ELPGOOKM@glMultiTexCoord1sARB?$AA@ 00000001401cdd00     glew32s:glew.obj
 0003:00021d20       ??_C@_0BG@FAOPALDN@glMultiTexCoord1svARB?$AA@ 00000001401cdd20     glew32s:glew.obj
 0003:00021d40       ??_C@_0BF@BPKCNHJA@glMultiTexCoord2dARB?$AA@ 00000001401cdd40     glew32s:glew.obj
 0003:00021d60       ??_C@_0BG@HPNECDID@glMultiTexCoord2dvARB?$AA@ 00000001401cdd60     glew32s:glew.obj
 0003:00021d80       ??_C@_0BF@GFGCIEPA@glMultiTexCoord2fARB?$AA@ 00000001401cdd80     glew32s:glew.obj
 0003:00021da0       ??_C@_0BG@DCBMICII@glMultiTexCoord2fvARB?$AA@ 00000001401cdda0     glew32s:glew.obj
 0003:00021dc0       ??_C@_0BF@OHDCBDCB@glMultiTexCoord2iARB?$AA@ 00000001401cddc0     glew32s:glew.obj
 0003:00021de0       ??_C@_0BG@MDEKDAFN@glMultiTexCoord2ivARB?$AA@ 00000001401cdde0     glew32s:glew.obj
 0003:00021e00       ??_C@_0BF@MNGCJMAC@glMultiTexCoord2sARB?$AA@ 00000001401cde00     glew32s:glew.obj
 0003:00021e20       ??_C@_0BG@GBAHBBKA@glMultiTexCoord2svARB?$AA@ 00000001401cde20     glew32s:glew.obj
 0003:00021e40       ??_C@_0BF@NEPOAEDF@glMultiTexCoord3dARB?$AA@ 00000001401cde40     glew32s:glew.obj
 0003:00021e60       ??_C@_0BG@NJKDCIDH@glMultiTexCoord3dvARB?$AA@ 00000001401cde60     glew32s:glew.obj
 0003:00021e80       ??_C@_0BF@KODOFHFF@glMultiTexCoord3fARB?$AA@ 00000001401cde80     glew32s:glew.obj
 0003:00021ea0       ??_C@_0BG@JEGLIJDM@glMultiTexCoord3fvARB?$AA@ 00000001401cdea0     glew32s:glew.obj
 0003:00021ec0       ??_C@_0BF@CMGOMAIE@glMultiTexCoord3iARB?$AA@ 00000001401cdec0     glew32s:glew.obj
 0003:00021ee0       ??_C@_0BG@GFDNDLOJ@glMultiTexCoord3ivARB?$AA@ 00000001401cdee0     glew32s:glew.obj
 0003:00021f00       ??_C@_0BF@GDOEPKH@glMultiTexCoord3sARB?$AA@ 00000001401cdf00     glew32s:glew.obj
 0003:00021f20       ??_C@_0BG@MHHABKBE@glMultiTexCoord3svARB?$AA@ 00000001401cdf20     glew32s:glew.obj
 0003:00021f40       ??_C@_0BF@MJPLDEIN@glMultiTexCoord4dARB?$AA@ 00000001401cdf40     glew32s:glew.obj
 0003:00021f60       ??_C@_0BG@BMAEBGLJ@glMultiTexCoord4dvARB?$AA@ 00000001401cdf60     glew32s:glew.obj
 0003:00021f80       ??_C@_0BF@LDDLGHON@glMultiTexCoord4fARB?$AA@ 00000001401cdf80     glew32s:glew.obj
 0003:00021fa0       ??_C@_0BG@FBMMLHLC@glMultiTexCoord4fvARB?$AA@ 00000001401cdfa0     glew32s:glew.obj
 0003:00021fc0       ??_C@_0BF@DBGLPADM@glMultiTexCoord4iARB?$AA@ 00000001401cdfc0     glew32s:glew.obj
 0003:00021fe0       ??_C@_0BG@KAJKAFGH@glMultiTexCoord4ivARB?$AA@ 00000001401cdfe0     glew32s:glew.obj
 0003:00022000       ??_C@_0BF@BLDLHPBP@glMultiTexCoord4sARB?$AA@ 00000001401ce000     glew32s:glew.obj
 0003:00022020       ??_C@_0BG@CNHCEJK@glMultiTexCoord4svARB?$AA@ 00000001401ce020     glew32s:glew.obj
 0003:00022040       ??_C@_0BA@LPKBABEB@glBeginQueryARB?$AA@ 00000001401ce040     glew32s:glew.obj
 0003:00022058       ??_C@_0BD@HAEDHPKB@glDeleteQueriesARB?$AA@ 00000001401ce058     glew32s:glew.obj
 0003:00022070       ??_C@_0O@EFJDHGFG@glEndQueryARB?$AA@ 00000001401ce070     glew32s:glew.obj
 0003:00022080       ??_C@_0BA@BJHFNMK@glGenQueriesARB?$AA@ 00000001401ce080     glew32s:glew.obj
 0003:00022098       ??_C@_0BG@EDFKPCGN@glGetQueryObjectivARB?$AA@ 00000001401ce098     glew32s:glew.obj
 0003:000220b8       ??_C@_0BH@OOHKBDPD@glGetQueryObjectuivARB?$AA@ 00000001401ce0b8     glew32s:glew.obj
 0003:000220d8       ??_C@_0BA@DPEEILJC@glGetQueryivARB?$AA@ 00000001401ce0d8     glew32s:glew.obj
 0003:000220f0       ??_C@_0N@HKMIDCPF@glIsQueryARB?$AA@ 00000001401ce0f0     glew32s:glew.obj
 0003:00022100       ??_C@_0BO@DGMHADHD@glMaxShaderCompilerThreadsARB?$AA@ 00000001401ce100     glew32s:glew.obj
 0003:00022128       ??_C@_0BF@DADCFKCJ@glPointParameterfARB?$AA@ 00000001401ce128     glew32s:glew.obj
 0003:00022148       ??_C@_0BG@MNEGLICG@glPointParameterfvARB?$AA@ 00000001401ce148     glew32s:glew.obj
 0003:00022168       ??_C@_0BF@ECLDHBOO@glPolygonOffsetClamp?$AA@ 00000001401ce168     glew32s:glew.obj
 0003:00022188       ??_C@_0BI@ICGPDPK@glGetProgramInterfaceiv?$AA@ 00000001401ce188     glew32s:glew.obj
 0003:000221a8       ??_C@_0BK@DBDCONKB@glGetProgramResourceIndex?$AA@ 00000001401ce1a8     glew32s:glew.obj
 0003:000221c8       ??_C@_0BN@BIJNENLC@glGetProgramResourceLocation?$AA@ 00000001401ce1c8     glew32s:glew.obj
 0003:000221f0       ??_C@_0CC@GHECGAIH@glGetProgramResourceLocationInde@ 00000001401ce1f0     glew32s:glew.obj
 0003:00022218       ??_C@_0BJ@OHCPEAGJ@glGetProgramResourceName?$AA@ 00000001401ce218     glew32s:glew.obj
 0003:00022238       ??_C@_0BH@LEDFEPHI@glGetProgramResourceiv?$AA@ 00000001401ce238     glew32s:glew.obj
 0003:00022258       ??_C@_0BC@ECOAPEBI@glProvokingVertex?$AA@ 00000001401ce258     glew32s:glew.obj
 0003:00022270       ??_C@_0BM@HDJJPNDL@glGetGraphicsResetStatusARB?$AA@ 00000001401ce270     glew32s:glew.obj
 0003:00022298       ??_C@_0BE@EKKDCCDE@glGetnColorTableARB?$AA@ 00000001401ce298     glew32s:glew.obj
 0003:000222b0       ??_C@_0BM@IEIHGHHI@glGetnCompressedTexImageARB?$AA@ 00000001401ce2b0     glew32s:glew.obj
 0003:000222d8       ??_C@_0BL@KGPCMOFG@glGetnConvolutionFilterARB?$AA@ 00000001401ce2d8     glew32s:glew.obj
 0003:000222f8       ??_C@_0BD@MOBMBOGN@glGetnHistogramARB?$AA@ 00000001401ce2f8     glew32s:glew.obj
 0003:00022310       ??_C@_0P@BCDNBFMA@glGetnMapdvARB?$AA@ 00000001401ce310     glew32s:glew.obj
 0003:00022328       ??_C@_0P@FPPFLEML@glGetnMapfvARB?$AA@ 00000001401ce328     glew32s:glew.obj
 0003:00022340       ??_C@_0P@KOKDAGBO@glGetnMapivARB?$AA@ 00000001401ce340     glew32s:glew.obj
 0003:00022358       ??_C@_0BA@PCCAKFCF@glGetnMinmaxARB?$AA@ 00000001401ce358     glew32s:glew.obj
 0003:00022370       ??_C@_0BE@FCLKGMPL@glGetnPixelMapfvARB?$AA@ 00000001401ce370     glew32s:glew.obj
 0003:00022388       ??_C@_0BF@BEPLFPF@glGetnPixelMapuivARB?$AA@ 00000001401ce388     glew32s:glew.obj
 0003:000223a8       ??_C@_0BF@KDACJEAI@glGetnPixelMapusvARB?$AA@ 00000001401ce3a8     glew32s:glew.obj
 0003:000223c8       ??_C@_0BI@ENGMEGBP@glGetnPolygonStippleARB?$AA@ 00000001401ce3c8     glew32s:glew.obj
 0003:000223e8       ??_C@_0BJ@LPLOODMD@glGetnSeparableFilterARB?$AA@ 00000001401ce3e8     glew32s:glew.obj
 0003:00022408       ??_C@_0BC@PIJGCEFC@glGetnTexImageARB?$AA@ 00000001401ce408     glew32s:glew.obj
 0003:00022420       ??_C@_0BD@MEJNBIJE@glGetnUniformdvARB?$AA@ 00000001401ce420     glew32s:glew.obj
 0003:00022438       ??_C@_0BD@IJFFLJJP@glGetnUniformfvARB?$AA@ 00000001401ce438     glew32s:glew.obj
 0003:00022450       ??_C@_0BD@HIADALEK@glGetnUniformivARB?$AA@ 00000001401ce450     glew32s:glew.obj
 0003:00022468       ??_C@_0BE@ELELPPGB@glGetnUniformuivARB?$AA@ 00000001401ce468     glew32s:glew.obj
 0003:00022480       ??_C@_0BB@IPICMDNC@glReadnPixelsARB?$AA@ 00000001401ce480     glew32s:glew.obj
 0003:00022498       ??_C@_0CC@HNJFPNPL@glFramebufferSampleLocationsfvAR@ 00000001401ce498     glew32s:glew.obj
 0003:000224c0       ??_C@_0CH@JHLOPOBO@glNamedFramebufferSampleLocation@ 00000001401ce4c0     glew32s:glew.obj
 0003:000224f0       ??_C@_0BG@KHPHHIHH@glMinSampleShadingARB?$AA@ 00000001401ce4f0     glew32s:glew.obj
 0003:00022510       ??_C@_0O@PDEILAPG@glBindSampler?$AA@ 00000001401ce510     glew32s:glew.obj
 0003:00022520       ??_C@_0BB@FLPAOEOO@glDeleteSamplers?$AA@ 00000001401ce520     glew32s:glew.obj
 0003:00022538       ??_C@_0O@EMMLGGLG@glGenSamplers?$AA@ 00000001401ce538     glew32s:glew.obj
 0003:00022548       ??_C@_0BJ@KOMJDLDN@glGetSamplerParameterIiv?$AA@ 00000001401ce548     glew32s:glew.obj
 0003:00022568       ??_C@_0BK@CMBGFHDA@glGetSamplerParameterIuiv?$AA@ 00000001401ce568     glew32s:glew.obj
 0003:00022588       ??_C@_0BI@FPHMKMKC@glGetSamplerParameterfv?$AA@ 00000001401ce588     glew32s:glew.obj
 0003:000225a8       ??_C@_0BI@FECAOLJP@glGetSamplerParameteriv?$AA@ 00000001401ce5a8     glew32s:glew.obj
 0003:000225c8       ??_C@_0M@LAJKHOKJ@glIsSampler?$AA@ 00000001401ce5c8     glew32s:glew.obj
 0003:000225d8       ??_C@_0BG@HKEIFIHF@glSamplerParameterIiv?$AA@ 00000001401ce5d8     glew32s:glew.obj
 0003:000225f8       ??_C@_0BH@FEMFBPPB@glSamplerParameterIuiv?$AA@ 00000001401ce5f8     glew32s:glew.obj
 0003:00022618       ??_C@_0BE@CGLJNDFB@glSamplerParameterf?$AA@ 00000001401ce618     glew32s:glew.obj
 0003:00022630       ??_C@_0BF@GFCPAGMB@glSamplerParameterfv?$AA@ 00000001401ce630     glew32s:glew.obj
 0003:00022650       ??_C@_0BE@KBCBMPJO@glSamplerParameteri?$AA@ 00000001401ce650     glew32s:glew.obj
 0003:00022668       ??_C@_0BF@GOHDEBPM@glSamplerParameteriv?$AA@ 00000001401ce668     glew32s:glew.obj
 0003:00022688       ??_C@_0BG@IAIOGMEB@glActiveShaderProgram?$AA@ 00000001401ce688     glew32s:glew.obj
 0003:000226a8       ??_C@_0BG@GLPOKNCG@glBindProgramPipeline?$AA@ 00000001401ce6a8     glew32s:glew.obj
 0003:000226c8       ??_C@_0BH@BOJGDFJN@glCreateShaderProgramv?$AA@ 00000001401ce6c8     glew32s:glew.obj
 0003:000226e8       ??_C@_0BJ@CHBGABHE@glDeleteProgramPipelines?$AA@ 00000001401ce6e8     glew32s:glew.obj
 0003:00022708       ??_C@_0BG@CCBKOCA@glGenProgramPipelines?$AA@ 00000001401ce708     glew32s:glew.obj
 0003:00022728       ??_C@_0BM@BFFCFFFG@glGetProgramPipelineInfoLog?$AA@ 00000001401ce728     glew32s:glew.obj
 0003:00022750       ??_C@_0BH@DNOPNJMO@glGetProgramPipelineiv?$AA@ 00000001401ce750     glew32s:glew.obj
 0003:00022770       ??_C@_0BE@DLHPDHCH@glIsProgramPipeline?$AA@ 00000001401ce770     glew32s:glew.obj
 0003:00022788       ??_C@_0BD@JLIFLIMB@glProgramUniform1d?$AA@ 00000001401ce788     glew32s:glew.obj
 0003:000227a0       ??_C@_0BE@JFJNKJOO@glProgramUniform1dv?$AA@ 00000001401ce7a0     glew32s:glew.obj
 0003:000227b8       ??_C@_0BD@KJLDNKED@glProgramUniform1f?$AA@ 00000001401ce7b8     glew32s:glew.obj
 0003:000227d0       ??_C@_0BE@JGBJHNIA@glProgramUniform1fv?$AA@ 00000001401ce7d0     glew32s:glew.obj
 0003:000227e8       ??_C@_0BD@COCLMGIM@glProgramUniform1i?$AA@ 00000001401ce7e8     glew32s:glew.obj
 0003:00022800       ??_C@_0BE@JNEFDKLN@glProgramUniform1iv?$AA@ 00000001401ce800     glew32s:glew.obj
 0003:00022818       ??_C@_0BE@EFCDGODH@glProgramUniform1ui?$AA@ 00000001401ce818     glew32s:glew.obj
 0003:00022830       ??_C@_0BF@MBJNFIBB@glProgramUniform1uiv?$AA@ 00000001401ce830     glew32s:glew.obj
 0003:00022850       ??_C@_0BD@JJMDAGJI@glProgramUniform2d?$AA@ 00000001401ce850     glew32s:glew.obj
 0003:00022868       ??_C@_0BE@IHCIAGAA@glProgramUniform2dv?$AA@ 00000001401ce868     glew32s:glew.obj
 0003:00022880       ??_C@_0BD@KLPFGEBK@glProgramUniform2f?$AA@ 00000001401ce880     glew32s:glew.obj
 0003:00022898       ??_C@_0BE@IEKMNCGO@glProgramUniform2fv?$AA@ 00000001401ce898     glew32s:glew.obj
 0003:000228b0       ??_C@_0BD@CMGNHINF@glProgramUniform2i?$AA@ 00000001401ce8b0     glew32s:glew.obj
 0003:000228c8       ??_C@_0BE@IPPAJFFD@glProgramUniform2iv?$AA@ 00000001401ce8c8     glew32s:glew.obj
 0003:000228e0       ??_C@_0BE@FHJGMBNJ@glProgramUniform2ui?$AA@ 00000001401ce8e0     glew32s:glew.obj
 0003:000228f8       ??_C@_0BF@IGDNCCMB@glProgramUniform2uiv?$AA@ 00000001401ce8f8     glew32s:glew.obj
 0003:00022918       ??_C@_0BD@JIABGMKP@glProgramUniform3d?$AA@ 00000001401ce918     glew32s:glew.obj
 0003:00022930       ??_C@_0BE@DPJEGBGF@glProgramUniform3dv?$AA@ 00000001401ce930     glew32s:glew.obj
 0003:00022948       ??_C@_0BD@KKDHAOCN@glProgramUniform3f?$AA@ 00000001401ce948     glew32s:glew.obj
 0003:00022960       ??_C@_0BE@DMBALFAL@glProgramUniform3fv?$AA@ 00000001401ce960     glew32s:glew.obj
 0003:00022978       ??_C@_0BD@CNKPBCOC@glProgramUniform3i?$AA@ 00000001401ce978     glew32s:glew.obj
 0003:00022990       ??_C@_0BE@DHEMPCDG@glProgramUniform3iv?$AA@ 00000001401ce990     glew32s:glew.obj
 0003:000229a8       ??_C@_0BE@OPCKKGLM@glProgramUniform3ui?$AA@ 00000001401ce9a8     glew32s:glew.obj
 0003:000229c0       ??_C@_0BF@LLFNALHB@glProgramUniform3uiv?$AA@ 00000001401ce9c0     glew32s:glew.obj
 0003:000229e0       ??_C@_0BD@JNEOHKCK@glProgramUniform4d?$AA@ 00000001401ce9e0     glew32s:glew.obj
 0003:000229f8       ??_C@_0BE@KCEDFJNM@glProgramUniform4dv?$AA@ 00000001401ce9f8     glew32s:glew.obj
 0003:00022a10       ??_C@_0BD@KPHIBIKI@glProgramUniform4f?$AA@ 00000001401cea10     glew32s:glew.obj
 0003:00022a28       ??_C@_0BE@KBMHINLC@glProgramUniform4fv?$AA@ 00000001401cea28     glew32s:glew.obj
 0003:00022a40       ??_C@_0BD@CIOAAEGH@glProgramUniform4i?$AA@ 00000001401cea40     glew32s:glew.obj
 0003:00022a58       ??_C@_0BE@KKJLMKIP@glProgramUniform4iv?$AA@ 00000001401cea58     glew32s:glew.obj
 0003:00022a70       ??_C@_0BE@HCPNJOAF@glProgramUniform4ui?$AA@ 00000001401cea70     glew32s:glew.obj
 0003:00022a88       ??_C@_0BF@JHNNHGB@glProgramUniform4uiv?$AA@ 00000001401cea88     glew32s:glew.obj
 0003:00022aa8       ??_C@_0BK@PAHLFKGL@glProgramUniformMatrix2dv?$AA@ 00000001401ceaa8     glew32s:glew.obj
 0003:00022ac8       ??_C@_0BK@PDPPIOAF@glProgramUniformMatrix2fv?$AA@ 00000001401ceac8     glew32s:glew.obj
 0003:00022ae8       ??_C@_0BM@DCNGJFPN@glProgramUniformMatrix2x3dv?$AA@ 00000001401ceae8     glew32s:glew.obj
 0003:00022b10       ??_C@_0BM@DBFCEBJD@glProgramUniformMatrix2x3fv?$AA@ 00000001401ceb10     glew32s:glew.obj
 0003:00022b38       ??_C@_0BM@KPABKNEE@glProgramUniformMatrix2x4dv?$AA@ 00000001401ceb38     glew32s:glew.obj
 0003:00022b60       ??_C@_0BM@KMIFHJCK@glProgramUniformMatrix2x4fv?$AA@ 00000001401ceb60     glew32s:glew.obj
 0003:00022b88       ??_C@_0BK@EIMHDNAO@glProgramUniformMatrix3dv?$AA@ 00000001401ceb88     glew32s:glew.obj
 0003:00022ba8       ??_C@_0BK@ELEDOJGA@glProgramUniformMatrix3fv?$AA@ 00000001401ceba8     glew32s:glew.obj
 0003:00022bc8       ??_C@_0BM@EBDGCBDN@glProgramUniformMatrix3x2dv?$AA@ 00000001401cebc8     glew32s:glew.obj
 0003:00022bf0       ??_C@_0BM@ECLCPFFD@glProgramUniformMatrix3x2fv?$AA@ 00000001401cebf0     glew32s:glew.obj
 0003:00022c18       ??_C@_0BM@GEFNHOOB@glProgramUniformMatrix3x4dv?$AA@ 00000001401cec18     glew32s:glew.obj
 0003:00022c40       ??_C@_0BM@GHNJKKIP@glProgramUniformMatrix3x4fv?$AA@ 00000001401cec40     glew32s:glew.obj
 0003:00022c68       ??_C@_0BK@NFBAAFLH@glProgramUniformMatrix4dv?$AA@ 00000001401cec68     glew32s:glew.obj
 0003:00022c88       ??_C@_0BK@NGJENBNJ@glProgramUniformMatrix4fv?$AA@ 00000001401cec88     glew32s:glew.obj
 0003:00022ca8       ??_C@_0BM@FMDDBBIF@glProgramUniformMatrix4x2dv?$AA@ 00000001401ceca8     glew32s:glew.obj
 0003:00022cd0       ??_C@_0BM@FPLHMFOL@glProgramUniformMatrix4x2fv?$AA@ 00000001401cecd0     glew32s:glew.obj
 0003:00022cf8       ??_C@_0BM@OEIPHGOA@glProgramUniformMatrix4x3dv?$AA@ 00000001401cecf8     glew32s:glew.obj
 0003:00022d20       ??_C@_0BM@OHALKCIO@glProgramUniformMatrix4x3fv?$AA@ 00000001401ced20     glew32s:glew.obj
 0003:00022d48       ??_C@_0BD@CADKHDMH@glUseProgramStages?$AA@ 00000001401ced48     glew32s:glew.obj
 0003:00022d60       ??_C@_0BK@HHHCKEGH@glValidateProgramPipeline?$AA@ 00000001401ced60     glew32s:glew.obj
 0003:00022d80       ??_C@_0CB@CEHFMJFN@glGetActiveAtomicCounterBufferiv@ 00000001401ced80     glew32s:glew.obj
 0003:00022da8       ??_C@_0BD@GAKEPNGD@glBindImageTexture?$AA@ 00000001401ceda8     glew32s:glew.obj
 0003:00022dc0       ??_C@_0BA@HIHPNLBJ@glMemoryBarrier?$AA@ 00000001401cedc0     glew32s:glew.obj
 0003:00022dd8       ??_C@_0BC@GINLBKLJ@glAttachObjectARB?$AA@ 00000001401cedd8     glew32s:glew.obj
 0003:00022df0       ??_C@_0BD@BEDGBOPM@glCompileShaderARB?$AA@ 00000001401cedf0     glew32s:glew.obj
 0003:00022e08       ??_C@_0BJ@KGMBEPBI@glCreateProgramObjectARB?$AA@ 00000001401cee08     glew32s:glew.obj
 0003:00022e28       ??_C@_0BI@FMNPOEGE@glCreateShaderObjectARB?$AA@ 00000001401cee28     glew32s:glew.obj
 0003:00022e48       ??_C@_0BC@MJFNICLA@glDeleteObjectARB?$AA@ 00000001401cee48     glew32s:glew.obj
 0003:00022e60       ??_C@_0BC@OPBLIDAI@glDetachObjectARB?$AA@ 00000001401cee60     glew32s:glew.obj
 0003:00022e78       ??_C@_0BG@FNEOAGIK@glGetActiveUniformARB?$AA@ 00000001401cee78     glew32s:glew.obj
 0003:00022e98       ??_C@_0BI@KFAABOIL@glGetAttachedObjectsARB?$AA@ 00000001401cee98     glew32s:glew.obj
 0003:00022eb8       ??_C@_0P@LFBJNCKO@glGetHandleARB?$AA@ 00000001401ceeb8     glew32s:glew.obj
 0003:00022ed0       ??_C@_0BA@FLIOBLOG@glGetInfoLogARB?$AA@ 00000001401ceed0     glew32s:glew.obj
 0003:00022ee8       ??_C@_0BK@HCFOBODO@glGetObjectParameterfvARB?$AA@ 00000001401ceee8     glew32s:glew.obj
 0003:00022f08       ??_C@_0BK@IDAIKMOL@glGetObjectParameterivARB?$AA@ 00000001401cef08     glew32s:glew.obj
 0003:00022f28       ??_C@_0BF@OBGOKFNE@glGetShaderSourceARB?$AA@ 00000001401cef28     glew32s:glew.obj
 0003:00022f48       ??_C@_0BI@CAFPPHDC@glGetUniformLocationARB?$AA@ 00000001401cef48     glew32s:glew.obj
 0003:00022f68       ??_C@_0BC@KKIJAHAK@glGetUniformfvARB?$AA@ 00000001401cef68     glew32s:glew.obj
 0003:00022f80       ??_C@_0BC@FLNPLFNP@glGetUniformivARB?$AA@ 00000001401cef80     glew32s:glew.obj
 0003:00022f98       ??_C@_0BB@HPIAOOAG@glLinkProgramARB?$AA@ 00000001401cef98     glew32s:glew.obj
 0003:00022fb0       ??_C@_0BC@MCCOFGJG@glShaderSourceARB?$AA@ 00000001401cefb0     glew32s:glew.obj
 0003:00022fc8       ??_C@_0P@KFNIAEEC@glUniform1fARB?$AA@ 00000001401cefc8     glew32s:glew.obj
 0003:00022fe0       ??_C@_0BA@BHLDOKKI@glUniform1fvARB?$AA@ 00000001401cefe0     glew32s:glew.obj
 0003:00022ff8       ??_C@_0P@CHIIJDJD@glUniform1iARB?$AA@ 00000001401ceff8     glew32s:glew.obj
 0003:00023010       ??_C@_0BA@OGOFFIHN@glUniform1ivARB?$AA@ 00000001401cf010     glew32s:glew.obj
 0003:00023028       ??_C@_0P@CDEMHGOM@glUniform2fARB?$AA@ 00000001401cf028     glew32s:glew.obj
 0003:00023040       ??_C@_0BA@CGFLPADF@glUniform2fvARB?$AA@ 00000001401cf040     glew32s:glew.obj
 0003:00023058       ??_C@_0P@KBBMOBDN@glUniform2iARB?$AA@ 00000001401cf058     glew32s:glew.obj
 0003:00023070       ??_C@_0BA@NHANECOA@glUniform2ivARB?$AA@ 00000001401cf070     glew32s:glew.obj
 0003:00023088       ??_C@_0P@OIBAKFEJ@glUniform3fARB?$AA@ 00000001401cf088     glew32s:glew.obj
 0003:000230a0       ??_C@_0BA@IACMPLIB@glUniform3fvARB?$AA@ 00000001401cf0a0     glew32s:glew.obj
 0003:000230b8       ??_C@_0P@GKEADCJI@glUniform3iARB?$AA@ 00000001401cf0b8     glew32s:glew.obj
 0003:000230d0       ??_C@_0BA@HBHKEJFE@glUniform3ivARB?$AA@ 00000001401cf0d0     glew32s:glew.obj
 0003:000230e8       ??_C@_0P@PFBFJFPB@glUniform4fARB?$AA@ 00000001401cf0e8     glew32s:glew.obj
 0003:00023100       ??_C@_0BA@EFILMFAP@glUniform4fvARB?$AA@ 00000001401cf100     glew32s:glew.obj
 0003:00023118       ??_C@_0P@HHEFACCA@glUniform4iARB?$AA@ 00000001401cf118     glew32s:glew.obj
 0003:00023130       ??_C@_0BA@LENNHHNK@glUniform4ivARB?$AA@ 00000001401cf130     glew32s:glew.obj
 0003:00023148       ??_C@_0BG@KPIOAAJO@glUniformMatrix2fvARB?$AA@ 00000001401cf148     glew32s:glew.obj
 0003:00023168       ??_C@_0BG@JPJALCK@glUniformMatrix3fvARB?$AA@ 00000001401cf168     glew32s:glew.obj
 0003:00023188       ??_C@_0BG@MMFODFKE@glUniformMatrix4fvARB?$AA@ 00000001401cf188     glew32s:glew.obj
 0003:000231a8       ??_C@_0BG@JEOFPDIM@glUseProgramObjectARB?$AA@ 00000001401cf1a8     glew32s:glew.obj
 0003:000231c8       ??_C@_0BF@BGDHGNPG@glValidateProgramARB?$AA@ 00000001401cf1c8     glew32s:glew.obj
 0003:000231e8       ??_C@_0BM@GDDCNIBO@glShaderStorageBlockBinding?$AA@ 00000001401cf1e8     glew32s:glew.obj
 0003:00023210       ??_C@_0BK@JPHEACLL@glGetActiveSubroutineName?$AA@ 00000001401cf210     glew32s:glew.obj
 0003:00023230       ??_C@_0CB@KCFFPCGJ@glGetActiveSubroutineUniformName@ 00000001401cf230     glew32s:glew.obj
 0003:00023258       ??_C@_0BP@FAPFAJFP@glGetActiveSubroutineUniformiv?$AA@ 00000001401cf258     glew32s:glew.obj
 0003:00023280       ??_C@_0BE@LOKJCDFH@glGetProgramStageiv?$AA@ 00000001401cf280     glew32s:glew.obj
 0003:00023298       ??_C@_0BF@ONDIGCJG@glGetSubroutineIndex?$AA@ 00000001401cf298     glew32s:glew.obj
 0003:000232b8       ??_C@_0BP@IBIPLDOA@glGetSubroutineUniformLocation?$AA@ 00000001401cf2b8     glew32s:glew.obj
 0003:000232e0       ??_C@_0BK@BLMOFAGJ@glGetUniformSubroutineuiv?$AA@ 00000001401cf2e0     glew32s:glew.obj
 0003:00023300       ??_C@_0BI@CDPOBBHI@glUniformSubroutinesuiv?$AA@ 00000001401cf300     glew32s:glew.obj
 0003:00023320       ??_C@_0BK@EDOCLMLD@glCompileShaderIncludeARB?$AA@ 00000001401cf320     glew32s:glew.obj
 0003:00023340       ??_C@_0BH@NCMBPFNK@glDeleteNamedStringARB?$AA@ 00000001401cf340     glew32s:glew.obj
 0003:00023360       ??_C@_0BE@NFONNCFF@glGetNamedStringARB?$AA@ 00000001401cf360     glew32s:glew.obj
 0003:00023378       ??_C@_0BG@MPGNLJCM@glGetNamedStringivARB?$AA@ 00000001401cf378     glew32s:glew.obj
 0003:00023398       ??_C@_0BD@ICFECEJF@glIsNamedStringARB?$AA@ 00000001401cf398     glew32s:glew.obj
 0003:000233b0       ??_C@_0BB@EMHJCPKC@glNamedStringARB?$AA@ 00000001401cf3b0     glew32s:glew.obj
 0003:000233c8       ??_C@_0BK@JOBLPAPP@glBufferPageCommitmentARB?$AA@ 00000001401cf3c8     glew32s:glew.obj
 0003:000233e8       ??_C@_0BH@MNMDGLPG@glTexPageCommitmentARB?$AA@ 00000001401cf3e8     glew32s:glew.obj
 0003:00023408       ??_C@_0BB@KDMPGJAC@glClientWaitSync?$AA@ 00000001401cf408     glew32s:glew.obj
 0003:00023420       ??_C@_0N@PIFDNDFG@glDeleteSync?$AA@ 00000001401cf420     glew32s:glew.obj
 0003:00023430       ??_C@_0M@EFGFPFLP@glFenceSync?$AA@ 00000001401cf430     glew32s:glew.obj
 0003:00023440       ??_C@_0BA@INMBOHGL@glGetInteger64v?$AA@ 00000001401cf440     glew32s:glew.obj
 0003:00023458       ??_C@_0M@MPEEOPIN@glGetSynciv?$AA@ 00000001401cf458     glew32s:glew.obj
 0003:00023468       ??_C@_08JPIIHJEO@glIsSync?$AA@ 00000001401cf468     glew32s:glew.obj
 0003:00023478       ??_C@_0L@MHLOGHGO@glWaitSync?$AA@ 00000001401cf478     glew32s:glew.obj
 0003:00023488       ??_C@_0BD@LJKINJKN@glPatchParameterfv?$AA@ 00000001401cf488     glew32s:glew.obj
 0003:000234a0       ??_C@_0BC@PAPDGMLA@glPatchParameteri?$AA@ 00000001401cf4a0     glew32s:glew.obj
 0003:000234b8       ??_C@_0BB@MNKDFGFC@glTextureBarrier?$AA@ 00000001401cf4b8     glew32s:glew.obj
 0003:000234d0       ??_C@_0P@OBHFBJAP@glTexBufferARB?$AA@ 00000001401cf4d0     glew32s:glew.obj
 0003:000234e8       ??_C@_0BB@DPMGLFNI@glTexBufferRange?$AA@ 00000001401cf4e8     glew32s:glew.obj
 0003:00023500       ??_C@_0BI@HEDPMLB@glTextureBufferRangeEXT?$AA@ 00000001401cf500     glew32s:glew.obj
 0003:00023520       ??_C@_0BK@GFNCBPLO@glCompressedTexImage1DARB?$AA@ 00000001401cf520     glew32s:glew.obj
 0003:00023540       ??_C@_0BK@ODEGGNBA@glCompressedTexImage2DARB?$AA@ 00000001401cf540     glew32s:glew.obj
 0003:00023560       ??_C@_0BK@CIBKLOLF@glCompressedTexImage3DARB?$AA@ 00000001401cf560     glew32s:glew.obj
 0003:00023580       ??_C@_0BN@DBMDJCJF@glCompressedTexSubImage1DARB?$AA@ 00000001401cf580     glew32s:glew.obj
 0003:000235a8       ??_C@_0BN@LHFHOADL@glCompressedTexSubImage2DARB?$AA@ 00000001401cf5a8     glew32s:glew.obj
 0003:000235d0       ??_C@_0BN@HMALDDJO@glCompressedTexSubImage3DARB?$AA@ 00000001401cf5d0     glew32s:glew.obj
 0003:000235f8       ??_C@_0BL@CKKCLKDF@glGetCompressedTexImageARB?$AA@ 00000001401cf5f8     glew32s:glew.obj
 0003:00023618       ??_C@_0BD@DHLIMGN@glGetMultisamplefv?$AA@ 00000001401cf618     glew32s:glew.obj
 0003:00023630       ??_C@_0O@JNHBCHMB@glSampleMaski?$AA@ 00000001401cf630     glew32s:glew.obj
 0003:00023640       ??_C@_0BI@FHDFLFA@glTexImage2DMultisample?$AA@ 00000001401cf640     glew32s:glew.obj
 0003:00023660       ??_C@_0BI@JIHMLKCG@glTexImage3DMultisample?$AA@ 00000001401cf660     glew32s:glew.obj
 0003:00023680       ??_C@_0P@LCLGPEBO@glTexStorage1D?$AA@ 00000001401cf680     glew32s:glew.obj
 0003:00023698       ??_C@_0P@LAPAEKEH@glTexStorage2D?$AA@ 00000001401cf698     glew32s:glew.obj
 0003:000236b0       ??_C@_0P@LBDCCAHA@glTexStorage3D?$AA@ 00000001401cf6b0     glew32s:glew.obj
 0003:000236c8       ??_C@_0BK@PDJAKDKP@glTexStorage2DMultisample?$AA@ 00000001401cf6c8     glew32s:glew.obj
 0003:000236e8       ??_C@_0BK@GOJPECNJ@glTexStorage3DMultisample?$AA@ 00000001401cf6e8     glew32s:glew.obj
 0003:00023708       ??_C@_0CB@IKHJODMK@glTextureStorage2DMultisampleEXT@ 00000001401cf708     glew32s:glew.obj
 0003:00023730       ??_C@_0CB@NNPCIIJ@glTextureStorage3DMultisampleEXT@ 00000001401cf730     glew32s:glew.obj
 0003:00023758       ??_C@_0O@BNFDGIMP@glTextureView?$AA@ 00000001401cf758     glew32s:glew.obj
 0003:00023768       ??_C@_0BF@JDAPDEPE@glGetQueryObjecti64v?$AA@ 00000001401cf768     glew32s:glew.obj
 0003:00023788       ??_C@_0BG@NEGGOMJO@glGetQueryObjectui64v?$AA@ 00000001401cf788     glew32s:glew.obj
 0003:000237a8       ??_C@_0P@KALICDIM@glQueryCounter?$AA@ 00000001401cf7a8     glew32s:glew.obj
 0003:000237c0       ??_C@_0BI@BPJKLMIG@glBindTransformFeedback?$AA@ 00000001401cf7c0     glew32s:glew.obj
 0003:000237e0       ??_C@_0BL@DIGEBFBK@glDeleteTransformFeedbacks?$AA@ 00000001401cf7e0     glew32s:glew.obj
 0003:00023800       ??_C@_0BI@LEOILCPN@glDrawTransformFeedback?$AA@ 00000001401cf800     glew32s:glew.obj
 0003:00023820       ??_C@_0BI@KANKBGAE@glGenTransformFeedbacks?$AA@ 00000001401cf820     glew32s:glew.obj
 0003:00023840       ??_C@_0BG@BGFLKHBM@glIsTransformFeedback?$AA@ 00000001401cf840     glew32s:glew.obj
 0003:00023860       ??_C@_0BJ@FFNLKBCB@glPauseTransformFeedback?$AA@ 00000001401cf860     glew32s:glew.obj
 0003:00023880       ??_C@_0BK@JMHONFHF@glResumeTransformFeedback?$AA@ 00000001401cf880     glew32s:glew.obj
 0003:000238a0       ??_C@_0BE@BDKPJDEE@glBeginQueryIndexed?$AA@ 00000001401cf8a0     glew32s:glew.obj
 0003:000238b8       ??_C@_0BO@IGLFNCDG@glDrawTransformFeedbackStream?$AA@ 00000001401cf8b8     glew32s:glew.obj
 0003:000238e0       ??_C@_0BC@DPMHMNME@glEndQueryIndexed?$AA@ 00000001401cf8e0     glew32s:glew.obj
 0003:000238f8       ??_C@_0BE@CCFJPMFI@glGetQueryIndexediv?$AA@ 00000001401cf8f8     glew32s:glew.obj
 0003:00023910       ??_C@_0CB@NDMLCEF@glDrawTransformFeedbackInstanced@ 00000001401cf910     glew32s:glew.obj
 0003:00023938       ??_C@_0CH@OMPFKBLK@glDrawTransformFeedbackStreamIns@ 00000001401cf938     glew32s:glew.obj
 0003:00023968       ??_C@_0BK@JMMPDFPI@glLoadTransposeMatrixdARB?$AA@ 00000001401cf968     glew32s:glew.obj
 0003:00023988       ??_C@_0BK@OGAPGGJI@glLoadTransposeMatrixfARB?$AA@ 00000001401cf988     glew32s:glew.obj
 0003:000239a8       ??_C@_0BK@EIJJIFHA@glMultTransposeMatrixdARB?$AA@ 00000001401cf9a8     glew32s:glew.obj
 0003:000239c8       ??_C@_0BK@DCFJNGBA@glMultTransposeMatrixfARB?$AA@ 00000001401cf9c8     glew32s:glew.obj
 0003:000239e8       ??_C@_0BB@LDPKOCJI@glBindBufferBase?$AA@ 00000001401cf9e8     glew32s:glew.obj
 0003:00023a00       ??_C@_0BC@EEMMCHMB@glBindBufferRange?$AA@ 00000001401cfa00     glew32s:glew.obj
 0003:00023a18       ??_C@_0BM@KEMCJPAJ@glGetActiveUniformBlockName?$AA@ 00000001401cfa18     glew32s:glew.obj
 0003:00023a40       ??_C@_0BK@DMHOPJGL@glGetActiveUniformBlockiv?$AA@ 00000001401cfa40     glew32s:glew.obj
 0003:00023a60       ??_C@_0BH@EGGFHKJJ@glGetActiveUniformName?$AA@ 00000001401cfa60     glew32s:glew.obj
 0003:00023a80       ??_C@_0BG@JEHIMPCG@glGetActiveUniformsiv?$AA@ 00000001401cfa80     glew32s:glew.obj
 0003:00023aa0       ??_C@_0BA@FKCNNMFO@glGetIntegeri_v?$AA@ 00000001401cfaa0     glew32s:glew.obj
 0003:00023ab8       ??_C@_0BH@CBDIMHHE@glGetUniformBlockIndex?$AA@ 00000001401cfab8     glew32s:glew.obj
 0003:00023ad8       ??_C@_0BE@MDPMIDEE@glGetUniformIndices?$AA@ 00000001401cfad8     glew32s:glew.obj
 0003:00023af0       ??_C@_0BG@BOLEKKCP@glUniformBlockBinding?$AA@ 00000001401cfaf0     glew32s:glew.obj
 0003:00023b10       ??_C@_0BC@LHBAHFAN@glBindVertexArray?$AA@ 00000001401cfb10     glew32s:glew.obj
 0003:00023b28       ??_C@_0BF@BMPCJLEF@glDeleteVertexArrays?$AA@ 00000001401cfb28     glew32s:glew.obj
 0003:00023b48       ??_C@_0BC@EPJLBJBJ@glGenVertexArrays?$AA@ 00000001401cfb48     glew32s:glew.obj
 0003:00023b60       ??_C@_0BA@ODJEGGAE@glIsVertexArray?$AA@ 00000001401cfb60     glew32s:glew.obj
 0003:00023b78       ??_C@_0BF@JADLCNLO@glGetVertexAttribLdv?$AA@ 00000001401cfb78     glew32s:glew.obj
 0003:00023b98       ??_C@_0BC@KBPIECHE@glVertexAttribL1d?$AA@ 00000001401cfb98     glew32s:glew.obj
 0003:00023bb0       ??_C@_0BD@COKMJDBH@glVertexAttribL1dv?$AA@ 00000001401cfbb0     glew32s:glew.obj
 0003:00023bc8       ??_C@_0BC@KDLOPMCN@glVertexAttribL2d?$AA@ 00000001401cfbc8     glew32s:glew.obj
 0003:00023be0       ??_C@_0BD@DMBJDMPJ@glVertexAttribL2dv?$AA@ 00000001401cfbe0     glew32s:glew.obj
 0003:00023bf8       ??_C@_0BC@KCHMJGBK@glVertexAttribL3d?$AA@ 00000001401cfbf8     glew32s:glew.obj
 0003:00023c10       ??_C@_0BD@IEKFFLJM@glVertexAttribL3dv?$AA@ 00000001401cfc10     glew32s:glew.obj
 0003:00023c28       ??_C@_0BC@KHDDIAJP@glVertexAttribL4d?$AA@ 00000001401cfc28     glew32s:glew.obj
 0003:00023c40       ??_C@_0BD@BJHCGDCF@glVertexAttribL4dv?$AA@ 00000001401cfc40     glew32s:glew.obj
 0003:00023c58       ??_C@_0BH@JBHDDPGM@glVertexAttribLPointer?$AA@ 00000001401cfc58     glew32s:glew.obj
 0003:00023c78       ??_C@_0BD@FCGJAOHG@glBindVertexBuffer?$AA@ 00000001401cfc78     glew32s:glew.obj
 0003:00023c90       ??_C@_0CB@BDCLHICB@glVertexArrayBindVertexBufferEXT@ 00000001401cfc90     glew32s:glew.obj
 0003:00023cb8       ??_C@_0CE@PLJLPNAP@glVertexArrayVertexAttribBinding@ 00000001401cfcb8     glew32s:glew.obj
 0003:00023ce8       ??_C@_0CD@JDLJFCCB@glVertexArrayVertexAttribFormatE@ 00000001401cfce8     glew32s:glew.obj
 0003:00023d18       ??_C@_0CE@OJBKHFGN@glVertexArrayVertexAttribIFormat@ 00000001401cfd18     glew32s:glew.obj
 0003:00023d48       ??_C@_0CE@JIENNJCP@glVertexArrayVertexAttribLFormat@ 00000001401cfd48     glew32s:glew.obj
 0003:00023d78       ??_C@_0CF@LAAOPNKA@glVertexArrayVertexBindingDiviso@ 00000001401cfd78     glew32s:glew.obj
 0003:00023da8       ??_C@_0BG@MLFHCGE@glVertexAttribBinding?$AA@ 00000001401cfda8     glew32s:glew.obj
 0003:00023dc8       ??_C@_0BF@JEIPPBFE@glVertexAttribFormat?$AA@ 00000001401cfdc8     glew32s:glew.obj
 0003:00023de8       ??_C@_0BG@KJAHAHDI@glVertexAttribIFormat?$AA@ 00000001401cfde8     glew32s:glew.obj
 0003:00023e08       ??_C@_0BG@OBOHAJFM@glVertexAttribLFormat?$AA@ 00000001401cfe08     glew32s:glew.obj
 0003:00023e28       ??_C@_0BH@GNGCLGOI@glVertexBindingDivisor?$AA@ 00000001401cfe28     glew32s:glew.obj
 0003:00023e48       ??_C@_0BB@BINNIMAP@glVertexBlendARB?$AA@ 00000001401cfe48     glew32s:glew.obj
 0003:00023e60       ??_C@_0BD@FICKLEOD@glWeightPointerARB?$AA@ 00000001401cfe60     glew32s:glew.obj
 0003:00023e78       ??_C@_0O@IJNFJGFD@glWeightbvARB?$AA@ 00000001401cfe78     glew32s:glew.obj
 0003:00023e88       ??_C@_0O@FPIMHFEO@glWeightdvARB?$AA@ 00000001401cfe88     glew32s:glew.obj
 0003:00023e98       ??_C@_0O@BCEENEEF@glWeightfvARB?$AA@ 00000001401cfe98     glew32s:glew.obj
 0003:00023ea8       ??_C@_0O@ODBCGGJA@glWeightivARB?$AA@ 00000001401cfea8     glew32s:glew.obj
 0003:00023eb8       ??_C@_0O@EBFPEHGN@glWeightsvARB?$AA@ 00000001401cfeb8     glew32s:glew.obj
 0003:00023ec8       ??_C@_0P@EHBBCFAF@glWeightubvARB?$AA@ 00000001401cfec8     glew32s:glew.obj
 0003:00023ee0       ??_C@_0P@CNNGNFMG@glWeightuivARB?$AA@ 00000001401cfee0     glew32s:glew.obj
 0003:00023ef8       ??_C@_0P@IPJLPEDL@glWeightusvARB?$AA@ 00000001401cfef8     glew32s:glew.obj
 0003:00023f10       ??_C@_0BA@FDIFNALK@glBindBufferARB?$AA@ 00000001401cff10     glew32s:glew.obj
 0003:00023f28       ??_C@_0BA@HLIGBCAN@glBufferDataARB?$AA@ 00000001401cff28     glew32s:glew.obj
 0003:00023f40       ??_C@_0BD@KFMFAAJP@glBufferSubDataARB?$AA@ 00000001401cff40     glew32s:glew.obj
 0003:00023f58       ??_C@_0BD@FPFIIGCI@glDeleteBuffersARB?$AA@ 00000001401cff58     glew32s:glew.obj
 0003:00023f70       ??_C@_0BA@COIMKEED@glGenBuffersARB?$AA@ 00000001401cff70     glew32s:glew.obj
 0003:00023f88       ??_C@_0BK@NELBDMOH@glGetBufferParameterivARB?$AA@ 00000001401cff88     glew32s:glew.obj
 0003:00023fa8       ??_C@_0BH@KNGCJBNB@glGetBufferPointervARB?$AA@ 00000001401cffa8     glew32s:glew.obj
 0003:00023fc8       ??_C@_0BG@DNDEGANA@glGetBufferSubDataARB?$AA@ 00000001401cffc8     glew32s:glew.obj
 0003:00023fe8       ??_C@_0O@BCHKDNEE@glIsBufferARB?$AA@ 00000001401cffe8     glew32s:glew.obj
 0003:00023ff8       ??_C@_0P@GLCCGPAH@glMapBufferARB?$AA@ 00000001401cfff8     glew32s:glew.obj
 0003:00024010       ??_C@_0BB@IODLHHEP@glUnmapBufferARB?$AA@ 00000001401d0010     glew32s:glew.obj
 0003:00024028       ??_C@_0BB@OAGHGJAC@glBindProgramARB?$AA@ 00000001401d0028     glew32s:glew.obj
 0003:00024040       ??_C@_0BE@EJCMOJPP@glDeleteProgramsARB?$AA@ 00000001401d0040     glew32s:glew.obj
 0003:00024058       ??_C@_0BO@HGKLJN@glDisableVertexAttribArrayARB?$AA@ 00000001401d0058     glew32s:glew.obj
 0003:00024080       ??_C@_0BN@FKABDPBF@glEnableVertexAttribArrayARB?$AA@ 00000001401d0080     glew32s:glew.obj
 0003:000240a8       ??_C@_0BB@JDDNIFAN@glGenProgramsARB?$AA@ 00000001401d00a8     glew32s:glew.obj
 0003:000240c0       ??_C@_0BO@NHNBOOKI@glGetProgramEnvParameterdvARB?$AA@ 00000001401d00c0     glew32s:glew.obj
 0003:000240e8       ??_C@_0BO@JKBJEPKD@glGetProgramEnvParameterfvARB?$AA@ 00000001401d00e8     glew32s:glew.obj
 0003:00024110       ??_C@_0CA@IBOBFJKB@glGetProgramLocalParameterdvARB?$AA@ 00000001401d0110     glew32s:glew.obj
 0003:00024138       ??_C@_0CA@MMCJPIKK@glGetProgramLocalParameterfvARB?$AA@ 00000001401d0138     glew32s:glew.obj
 0003:00024160       ??_C@_0BG@OAOKBADO@glGetProgramStringARB?$AA@ 00000001401d0160     glew32s:glew.obj
 0003:00024180       ??_C@_0BC@OHCOJECC@glGetProgramivARB?$AA@ 00000001401d0180     glew32s:glew.obj
 0003:00024198       ??_C@_0BN@PFKJEGFB@glGetVertexAttribPointervARB?$AA@ 00000001401d0198     glew32s:glew.obj
 0003:000241c0       ??_C@_0BH@OMNBLIA@glGetVertexAttribdvARB?$AA@ 00000001401d01c0     glew32s:glew.obj
 0003:000241e0       ??_C@_0BH@EDAFLKIL@glGetVertexAttribfvARB?$AA@ 00000001401d01e0     glew32s:glew.obj
 0003:00024200       ??_C@_0BH@LCFDAIFO@glGetVertexAttribivARB?$AA@ 00000001401d0200     glew32s:glew.obj
 0003:00024220       ??_C@_0P@LKCDEJPE@glIsProgramARB?$AA@ 00000001401d0220     glew32s:glew.obj
 0003:00024238       ??_C@_0BL@IFMMBIHE@glProgramEnvParameter4dARB?$AA@ 00000001401d0238     glew32s:glew.obj
 0003:00024258       ??_C@_0BM@NICJGLCN@glProgramEnvParameter4dvARB?$AA@ 00000001401d0258     glew32s:glew.obj
 0003:00024280       ??_C@_0BL@PPAMELBE@glProgramEnvParameter4fARB?$AA@ 00000001401d0280     glew32s:glew.obj
 0003:000242a0       ??_C@_0BM@JFOBMKCG@glProgramEnvParameter4fvARB?$AA@ 00000001401d02a0     glew32s:glew.obj
 0003:000242c8       ??_C@_0BN@ELHLGELC@glProgramLocalParameter4dARB?$AA@ 00000001401d02c8     glew32s:glew.obj
 0003:000242f0       ??_C@_0BO@KKOALLNE@glProgramLocalParameter4dvARB?$AA@ 00000001401d02f0     glew32s:glew.obj
 0003:00024318       ??_C@_0BN@DBLLDHNC@glProgramLocalParameter4fARB?$AA@ 00000001401d0318     glew32s:glew.obj
 0003:00024340       ??_C@_0BO@OHCIBKNP@glProgramLocalParameter4fvARB?$AA@ 00000001401d0340     glew32s:glew.obj
 0003:00024368       ??_C@_0BD@HIBLHAHB@glProgramStringARB?$AA@ 00000001401d0368     glew32s:glew.obj
 0003:00024380       ??_C@_0BE@KOFFOLEH@glVertexAttrib1dARB?$AA@ 00000001401d0380     glew32s:glew.obj
 0003:00024398       ??_C@_0BF@GHNCJDMI@glVertexAttrib1dvARB?$AA@ 00000001401d0398     glew32s:glew.obj
 0003:000243b8       ??_C@_0BE@NEJFLICH@glVertexAttrib1fARB?$AA@ 00000001401d03b8     glew32s:glew.obj
 0003:000243d0       ??_C@_0BF@CKBKDCMD@glVertexAttrib1fvARB?$AA@ 00000001401d03d0     glew32s:glew.obj
 0003:000243f0       ??_C@_0BE@HMJFKANF@glVertexAttrib1sARB?$AA@ 00000001401d03f0     glew32s:glew.obj
 0003:00024408       ??_C@_0BF@HJABKBOL@glVertexAttrib1svARB?$AA@ 00000001401d0408     glew32s:glew.obj
 0003:00024428       ??_C@_0BE@CIMBJJOJ@glVertexAttrib2dARB?$AA@ 00000001401d0428     glew32s:glew.obj
 0003:00024440       ??_C@_0BF@FGDKIJFF@glVertexAttrib2dvARB?$AA@ 00000001401d0440     glew32s:glew.obj
 0003:00024460       ??_C@_0BE@FCABMKIJ@glVertexAttrib2fARB?$AA@ 00000001401d0460     glew32s:glew.obj
 0003:00024478       ??_C@_0BF@BLPCCIFO@glVertexAttrib2fvARB?$AA@ 00000001401d0478     glew32s:glew.obj
 0003:00024498       ??_C@_0BE@PKABNCHL@glVertexAttrib2sARB?$AA@ 00000001401d0498     glew32s:glew.obj
 0003:000244b0       ??_C@_0BF@EIOJLLHG@glVertexAttrib2svARB?$AA@ 00000001401d04b0     glew32s:glew.obj
 0003:000244d0       ??_C@_0BE@ODJNEKEM@glVertexAttrib3dARB?$AA@ 00000001401d04d0     glew32s:glew.obj
 0003:000244e8       ??_C@_0BF@PAENICOB@glVertexAttrib3dvARB?$AA@ 00000001401d04e8     glew32s:glew.obj
 0003:00024508       ??_C@_0BE@JJFNBJCM@glVertexAttrib3fARB?$AA@ 00000001401d0508     glew32s:glew.obj
 0003:00024520       ??_C@_0BF@LNIFCDOK@glVertexAttrib3fvARB?$AA@ 00000001401d0520     glew32s:glew.obj
 0003:00024540       ??_C@_0BE@DBFNABNO@glVertexAttrib3sARB?$AA@ 00000001401d0540     glew32s:glew.obj
 0003:00024558       ??_C@_0BF@OOJOLAMC@glVertexAttrib3svARB?$AA@ 00000001401d0558     glew32s:glew.obj
 0003:00024578       ??_C@_0BG@KBHGKCDK@glVertexAttrib4NbvARB?$AA@ 00000001401d0578     glew32s:glew.obj
 0003:00024598       ??_C@_0BG@MLLBFCPJ@glVertexAttrib4NivARB?$AA@ 00000001401d0598     glew32s:glew.obj
 0003:000245b8       ??_C@_0BG@GJPMHDAE@glVertexAttrib4NsvARB?$AA@ 00000001401d05b8     glew32s:glew.obj
 0003:000245d8       ??_C@_0BG@CKMFKBFL@glVertexAttrib4NubARB?$AA@ 00000001401d05d8     glew32s:glew.obj
 0003:000245f8       ??_C@_0BH@HDFHFPMN@glVertexAttrib4NubvARB?$AA@ 00000001401d05f8     glew32s:glew.obj
 0003:00024618       ??_C@_0BH@BJJAKPAO@glVertexAttrib4NuivARB?$AA@ 00000001401d0618     glew32s:glew.obj
 0003:00024638       ??_C@_0BH@LLNNIOPD@glVertexAttrib4NusvARB?$AA@ 00000001401d0638     glew32s:glew.obj
 0003:00024658       ??_C@_0BF@ODLDFPHC@glVertexAttrib4bvARB?$AA@ 00000001401d0658     glew32s:glew.obj
 0003:00024678       ??_C@_0BE@POJIHKPE@glVertexAttrib4dARB?$AA@ 00000001401d0678     glew32s:glew.obj
 0003:00024690       ??_C@_0BF@DFOKLMGP@glVertexAttrib4dvARB?$AA@ 00000001401d0690     glew32s:glew.obj
 0003:000246b0       ??_C@_0BE@IEFICJJE@glVertexAttrib4fARB?$AA@ 00000001401d06b0     glew32s:glew.obj
 0003:000246c8       ??_C@_0BF@HICCBNGE@glVertexAttrib4fvARB?$AA@ 00000001401d06c8     glew32s:glew.obj
 0003:000246e8       ??_C@_0BF@IJHEKPLB@glVertexAttrib4ivARB?$AA@ 00000001401d06e8     glew32s:glew.obj
 0003:00024708       ??_C@_0BE@CMFIDBGG@glVertexAttrib4sARB?$AA@ 00000001401d0708     glew32s:glew.obj
 0003:00024720       ??_C@_0BF@CLDJIOEM@glVertexAttrib4svARB?$AA@ 00000001401d0720     glew32s:glew.obj
 0003:00024740       ??_C@_0BG@LBCFDJC@glVertexAttrib4ubvARB?$AA@ 00000001401d0740     glew32s:glew.obj
 0003:00024760       ??_C@_0BG@GBNFKDFB@glVertexAttrib4uivARB?$AA@ 00000001401d0760     glew32s:glew.obj
 0003:00024780       ??_C@_0BG@MDJIICKM@glVertexAttrib4usvARB?$AA@ 00000001401d0780     glew32s:glew.obj
 0003:000247a0       ??_C@_0BJ@KNOILOPF@glVertexAttribPointerARB?$AA@ 00000001401d07a0     glew32s:glew.obj
 0003:000247c0       ??_C@_0BI@HAONMJFP@glBindAttribLocationARB?$AA@ 00000001401d07c0     glew32s:glew.obj
 0003:000247e0       ??_C@_0BF@NFLELGHN@glGetActiveAttribARB?$AA@ 00000001401d07e0     glew32s:glew.obj
 0003:00024800       ??_C@_0BH@BINIAJMB@glGetAttribLocationARB?$AA@ 00000001401d0800     glew32s:glew.obj
 0003:00024820       ??_C@_0M@PEKBINNN@glColorP3ui?$AA@ 00000001401d0820     glew32s:glew.obj
 0003:00024830       ??_C@_0N@IBPDNBJE@glColorP3uiv?$AA@ 00000001401d0830     glew32s:glew.obj
 0003:00024840       ??_C@_0M@GJHGLFGE@glColorP4ui?$AA@ 00000001401d0840     glew32s:glew.obj
 0003:00024850       ??_C@_0N@DDNDANIE@glColorP4uiv?$AA@ 00000001401d0850     glew32s:glew.obj
 0003:00024860       ??_C@_0BE@OAHHKHKG@glMultiTexCoordP1ui?$AA@ 00000001401d0860     glew32s:glew.obj
 0003:00024878       ??_C@_0BF@EGDAKPAK@glMultiTexCoordP1uiv?$AA@ 00000001401d0878     glew32s:glew.obj
 0003:00024898       ??_C@_0BE@PCMCAIEI@glMultiTexCoordP2ui?$AA@ 00000001401d0898     glew32s:glew.obj
 0003:000248b0       ??_C@_0BF@BJANFNK@glMultiTexCoordP2uiv?$AA@ 00000001401d08b0     glew32s:glew.obj
 0003:000248d0       ??_C@_0BE@EKHOGPCN@glMultiTexCoordP3ui?$AA@ 00000001401d08d0     glew32s:glew.obj
 0003:000248e8       ??_C@_0BF@DMPAPMGK@glMultiTexCoordP3uiv?$AA@ 00000001401d08e8     glew32s:glew.obj
 0003:00024908       ??_C@_0BE@NHKJFHJE@glMultiTexCoordP4ui?$AA@ 00000001401d0908     glew32s:glew.obj
 0003:00024920       ??_C@_0BF@IONACAHK@glMultiTexCoordP4uiv?$AA@ 00000001401d0920     glew32s:glew.obj
 0003:00024940       ??_C@_0N@PBEFBNHO@glNormalP3ui?$AA@ 00000001401d0940     glew32s:glew.obj
 0003:00024950       ??_C@_0O@MOCJMHFG@glNormalP3uiv?$AA@ 00000001401d0950     glew32s:glew.obj
 0003:00024960       ??_C@_0BF@PDDGBPKP@glSecondaryColorP3ui?$AA@ 00000001401d0960     glew32s:glew.obj
 0003:00024980       ??_C@_0BG@DPPPFGBG@glSecondaryColorP3uiv?$AA@ 00000001401d0980     glew32s:glew.obj
 0003:000249a0       ??_C@_0P@OLJHLLHJ@glTexCoordP1ui?$AA@ 00000001401d09a0     glew32s:glew.obj
 0003:000249b8       ??_C@_0BA@FAFHIAFD@glTexCoordP1uiv?$AA@ 00000001401d09b8     glew32s:glew.obj
 0003:000249d0       ??_C@_0P@PJCCBEJH@glTexCoordP2ui?$AA@ 00000001401d09d0     glew32s:glew.obj
 0003:000249e8       ??_C@_0BA@BHPHPKID@glTexCoordP2uiv?$AA@ 00000001401d09e8     glew32s:glew.obj
 0003:00024a00       ??_C@_0P@EBJOHDPC@glTexCoordP3ui?$AA@ 00000001401d0a00     glew32s:glew.obj
 0003:00024a18       ??_C@_0BA@CKJHNDDD@glTexCoordP3uiv?$AA@ 00000001401d0a18     glew32s:glew.obj
 0003:00024a30       ??_C@_0P@NMEJELEL@glTexCoordP4ui?$AA@ 00000001401d0a30     glew32s:glew.obj
 0003:00024a48       ??_C@_0BA@JILHAPCD@glTexCoordP4uiv?$AA@ 00000001401d0a48     glew32s:glew.obj
 0003:00024a60       ??_C@_0BD@FLACCOEN@glVertexAttribP1ui?$AA@ 00000001401d0a60     glew32s:glew.obj
 0003:00024a78       ??_C@_0BE@HBFDOBHD@glVertexAttribP1uiv?$AA@ 00000001401d0a78     glew32s:glew.obj
 0003:00024a90       ??_C@_0BD@EJLHIBKD@glVertexAttribP2ui?$AA@ 00000001401d0a90     glew32s:glew.obj
 0003:00024aa8       ??_C@_0BE@DGPDJLKD@glVertexAttribP2uiv?$AA@ 00000001401d0aa8     glew32s:glew.obj
 0003:00024ac0       ??_C@_0BD@PBALOGMG@glVertexAttribP3ui?$AA@ 00000001401d0ac0     glew32s:glew.obj
 0003:00024ad8       ??_C@_0BE@LJDLCBD@glVertexAttribP3uiv?$AA@ 00000001401d0ad8     glew32s:glew.obj
 0003:00024af0       ??_C@_0BD@GMNMNOHP@glVertexAttribP4ui?$AA@ 00000001401d0af0     glew32s:glew.obj
 0003:00024b08       ??_C@_0BE@LJLDGOAD@glVertexAttribP4uiv?$AA@ 00000001401d0b08     glew32s:glew.obj
 0003:00024b20       ??_C@_0N@EFBCIBMC@glVertexP2ui?$AA@ 00000001401d0b20     glew32s:glew.obj
 0003:00024b30       ??_C@_0O@MEKGPGN@glVertexP2uiv?$AA@ 00000001401d0b30     glew32s:glew.obj
 0003:00024b40       ??_C@_0N@PNKOOGKH@glVertexP3ui?$AA@ 00000001401d0b40     glew32s:glew.obj
 0003:00024b50       ??_C@_0O@DBCKEGNN@glVertexP3uiv?$AA@ 00000001401d0b50     glew32s:glew.obj
 0003:00024b60       ??_C@_0N@GAHJNOBO@glVertexP4ui?$AA@ 00000001401d0b60     glew32s:glew.obj
 0003:00024b70       ??_C@_0O@IDAKJKMN@glVertexP4uiv?$AA@ 00000001401d0b70     glew32s:glew.obj
 0003:00024b80       ??_C@_0BD@JLCIOMKN@glDepthRangeArrayv?$AA@ 00000001401d0b80     glew32s:glew.obj
 0003:00024b98       ??_C@_0BE@FMCFIJBP@glDepthRangeIndexed?$AA@ 00000001401d0b98     glew32s:glew.obj
 0003:00024bb0       ??_C@_0P@PDJCBGIA@glGetDoublei_v?$AA@ 00000001401d0bb0     glew32s:glew.obj
 0003:00024bc8       ??_C@_0O@JKEOHGC@glGetFloati_v?$AA@ 00000001401d0bc8     glew32s:glew.obj
 0003:00024bd8       ??_C@_0BA@BMNFINIA@glScissorArrayv?$AA@ 00000001401d0bd8     glew32s:glew.obj
 0003:00024bf0       ??_C@_0BB@BJHNCIAL@glScissorIndexed?$AA@ 00000001401d0bf0     glew32s:glew.obj
 0003:00024c08       ??_C@_0BC@OOKOHKNA@glScissorIndexedv?$AA@ 00000001401d0c08     glew32s:glew.obj
 0003:00024c20       ??_C@_0BB@JIDIDPIB@glViewportArrayv?$AA@ 00000001401d0c20     glew32s:glew.obj
 0003:00024c38       ??_C@_0BD@JIBIAPIN@glViewportIndexedf?$AA@ 00000001401d0c38     glew32s:glew.obj
 0003:00024c50       ??_C@_0BE@OKPEDJOC@glViewportIndexedfv?$AA@ 00000001401d0c50     glew32s:glew.obj
 0003:00024c68       ??_C@_0BB@MJCJDLHC@glWindowPos2dARB?$AA@ 00000001401d0c68     glew32s:glew.obj
 0003:00024c80       ??_C@_0BC@DBAGCLDL@glWindowPos2dvARB?$AA@ 00000001401d0c80     glew32s:glew.obj
 0003:00024c98       ??_C@_0BB@LDOJGIBC@glWindowPos2fARB?$AA@ 00000001401d0c98     glew32s:glew.obj
 0003:00024cb0       ??_C@_0BC@HMMOIKDA@glWindowPos2fvARB?$AA@ 00000001401d0cb0     glew32s:glew.obj
 0003:00024cc8       ??_C@_0BB@DBLJPPMD@glWindowPos2iARB?$AA@ 00000001401d0cc8     glew32s:glew.obj
 0003:00024ce0       ??_C@_0BC@INJIDIOF@glWindowPos2ivARB?$AA@ 00000001401d0ce0     glew32s:glew.obj
 0003:00024cf8       ??_C@_0BB@BLOJHAOA@glWindowPos2sARB?$AA@ 00000001401d0cf8     glew32s:glew.obj
 0003:00024d10       ??_C@_0BC@CPNFBJBI@glWindowPos2svARB?$AA@ 00000001401d0d10     glew32s:glew.obj
 0003:00024d28       ??_C@_0BB@CHFOINH@glWindowPos3dARB?$AA@ 00000001401d0d28     glew32s:glew.obj
 0003:00024d40       ??_C@_0BC@JHHBCAIP@glWindowPos3dvARB?$AA@ 00000001401d0d40     glew32s:glew.obj
 0003:00024d58       ??_C@_0BB@HILFLLLH@glWindowPos3fARB?$AA@ 00000001401d0d58     glew32s:glew.obj
 0003:00024d70       ??_C@_0BC@NKLJIBIE@glWindowPos3fvARB?$AA@ 00000001401d0d70     glew32s:glew.obj
 0003:00024d88       ??_C@_0BB@PKOFCMGG@glWindowPos3iARB?$AA@ 00000001401d0d88     glew32s:glew.obj
 0003:00024da0       ??_C@_0BC@CLOPDDFB@glWindowPos3ivARB?$AA@ 00000001401d0da0     glew32s:glew.obj
 0003:00024db8       ??_C@_0BB@NALFKDEF@glWindowPos3sARB?$AA@ 00000001401d0db8     glew32s:glew.obj
 0003:00024dd0       ??_C@_0BC@IJKCBCKM@glWindowPos3svARB?$AA@ 00000001401d0dd0     glew32s:glew.obj
 0003:00024de8       ??_C@_0BB@NMDMNOBB@glDrawBuffersATI?$AA@ 00000001401d0de8     glew32s:glew.obj
 0003:00024e00       ??_C@_0BG@ECDHMIGH@glDrawElementArrayATI?$AA@ 00000001401d0e00     glew32s:glew.obj
 0003:00024e20       ??_C@_0BL@DCHAKPN@glDrawRangeElementArrayATI?$AA@ 00000001401d0e20     glew32s:glew.obj
 0003:00024e40       ??_C@_0BE@OMPDOPIJ@glElementPointerATI?$AA@ 00000001401d0e40     glew32s:glew.obj
 0003:00024e58       ??_C@_0BL@KCFFCOPN@glGetTexBumpParameterfvATI?$AA@ 00000001401d0e58     glew32s:glew.obj
 0003:00024e78       ??_C@_0BL@FDADJMCI@glGetTexBumpParameterivATI?$AA@ 00000001401d0e78     glew32s:glew.obj
 0003:00024e98       ??_C@_0BI@EOEOAPJD@glTexBumpParameterfvATI?$AA@ 00000001401d0e98     glew32s:glew.obj
 0003:00024eb8       ??_C@_0BI@LPBILNEG@glTexBumpParameterivATI?$AA@ 00000001401d0eb8     glew32s:glew.obj
 0003:00024ed8       ??_C@_0BG@EIOHOAJ@glAlphaFragmentOp1ATI?$AA@ 00000001401d0ed8     glew32s:glew.obj
 0003:00024ef8       ??_C@_0BG@EDCOAENJ@glAlphaFragmentOp2ATI?$AA@ 00000001401d0ef8     glew32s:glew.obj
 0003:00024f18       ??_C@_0BG@HOEOCNGJ@glAlphaFragmentOp3ATI?$AA@ 00000001401d0f18     glew32s:glew.obj
 0003:00024f38       ??_C@_0BJ@PKEAPHAA@glBeginFragmentShaderATI?$AA@ 00000001401d0f38     glew32s:glew.obj
 0003:00024f58       ??_C@_0BI@LCEAKPKE@glBindFragmentShaderATI?$AA@ 00000001401d0f58     glew32s:glew.obj
 0003:00024f78       ??_C@_0BG@LADBFNBJ@glColorFragmentOp1ATI?$AA@ 00000001401d0f78     glew32s:glew.obj
 0003:00024f98       ??_C@_0BG@PHJBCHMJ@glColorFragmentOp2ATI?$AA@ 00000001401d0f98     glew32s:glew.obj
 0003:00024fb8       ??_C@_0BG@MKPBAOHJ@glColorFragmentOp3ATI?$AA@ 00000001401d0fb8     glew32s:glew.obj
 0003:00024fd8       ??_C@_0BK@NIABONAG@glDeleteFragmentShaderATI?$AA@ 00000001401d0fd8     glew32s:glew.obj
 0003:00024ff8       ??_C@_0BH@BPIBMODF@glEndFragmentShaderATI?$AA@ 00000001401d0ff8     glew32s:glew.obj
 0003:00025018       ??_C@_0BI@PIGGCPOC@glGenFragmentShadersATI?$AA@ 00000001401d1018     glew32s:glew.obj
 0003:00025038       ??_C@_0BC@PBOEACOB@glPassTexCoordATI?$AA@ 00000001401d1038     glew32s:glew.obj
 0003:00025050       ??_C@_0P@GJNJDEAE@glSampleMapATI?$AA@ 00000001401d1050     glew32s:glew.obj
 0003:00025068       ??_C@_0BP@PBPBGPPP@glSetFragmentShaderConstantATI?$AA@ 00000001401d1068     glew32s:glew.obj
 0003:00025090       ??_C@_0BF@CEDAPCDI@glMapObjectBufferATI?$AA@ 00000001401d1090     glew32s:glew.obj
 0003:000250b0       ??_C@_0BH@BFJDKMCE@glUnmapObjectBufferATI?$AA@ 00000001401d10b0     glew32s:glew.obj
 0003:000250d0       ??_C@_0BC@MAHEKHP@glPNTrianglesfATI?$AA@ 00000001401d10d0     glew32s:glew.obj
 0003:000250e8       ??_C@_0BC@IOFHNNKO@glPNTrianglesiATI?$AA@ 00000001401d10e8     glew32s:glew.obj
 0003:00025100       ??_C@_0BJ@JMKOAJAB@glStencilFuncSeparateATI?$AA@ 00000001401d1100     glew32s:glew.obj
 0003:00025120       ??_C@_0BH@GHDNCHPJ@glStencilOpSeparateATI?$AA@ 00000001401d1120     glew32s:glew.obj
 0003:00025140       ??_C@_0BB@BCAHFFG@glArrayObjectATI?$AA@ 00000001401d1140     glew32s:glew.obj
 0003:00025158       ??_C@_0BG@GHBOALJA@glFreeObjectBufferATI?$AA@ 00000001401d1158     glew32s:glew.obj
 0003:00025178       ??_C@_0BG@HKGNANCL@glGetArrayObjectfvATI?$AA@ 00000001401d1178     glew32s:glew.obj
 0003:00025198       ??_C@_0BG@ILDLLPPO@glGetArrayObjectivATI?$AA@ 00000001401d1198     glew32s:glew.obj
 0003:000251b8       ??_C@_0BH@MINPGGO@glGetObjectBufferfvATI?$AA@ 00000001401d11b8     glew32s:glew.obj
 0003:000251d8       ??_C@_0BH@PNNLEELL@glGetObjectBufferivATI?$AA@ 00000001401d11d8     glew32s:glew.obj
 0003:000251f8       ??_C@_0BN@KLGFFMLK@glGetVariantArrayObjectfvATI?$AA@ 00000001401d11f8     glew32s:glew.obj
 0003:00025220       ??_C@_0BN@FKDDOOGP@glGetVariantArrayObjectivATI?$AA@ 00000001401d1220     glew32s:glew.obj
 0003:00025248       ??_C@_0BE@LKLGGCMD@glIsObjectBufferATI?$AA@ 00000001401d1248     glew32s:glew.obj
 0003:00025260       ??_C@_0BF@KMFMNPNM@glNewObjectBufferATI?$AA@ 00000001401d1260     glew32s:glew.obj
 0003:00025280       ??_C@_0BI@FACOMLAL@glUpdateObjectBufferATI?$AA@ 00000001401d1280     glew32s:glew.obj
 0003:000252a0       ??_C@_0BI@CELFCDDH@glVariantArrayObjectATI?$AA@ 00000001401d12a0     glew32s:glew.obj
 0003:000252c0       ??_C@_0CC@NOIGDAN@glGetVertexAttribArrayObjectfvAT@ 00000001401d12c0     glew32s:glew.obj
 0003:000252e8       ??_C@_0CC@PMLONBNI@glGetVertexAttribArrayObjectivAT@ 00000001401d12e8     glew32s:glew.obj
 0003:00025310       ??_C@_0BN@BCMELJPB@glVertexAttribArrayObjectATI?$AA@ 00000001401d1310     glew32s:glew.obj
 0003:00025338       ??_C@_0BO@PFMGAKAA@glClientActiveVertexStreamATI?$AA@ 00000001401d1338     glew32s:glew.obj
 0003:00025360       ??_C@_0BE@NPEJLLGP@glNormalStream3bATI?$AA@ 00000001401d1360     glew32s:glew.obj
 0003:00025378       ??_C@_0BF@JMFBDCCG@glNormalStream3bvATI?$AA@ 00000001401d1378     glew32s:glew.obj
 0003:00025398       ??_C@_0BE@FAAJEOMP@glNormalStream3dATI?$AA@ 00000001401d1398     glew32s:glew.obj
 0003:000253b0       ??_C@_0BF@EKAINBDL@glNormalStream3dvATI?$AA@ 00000001401d13b0     glew32s:glew.obj
 0003:000253d0       ??_C@_0BE@CKMJBNKP@glNormalStream3fATI?$AA@ 00000001401d13d0     glew32s:glew.obj
 0003:000253e8       ??_C@_0BF@HMAHADA@glNormalStream3fvATI?$AA@ 00000001401d13e8     glew32s:glew.obj
 0003:00025408       ??_C@_0BE@KIJJIKHO@glNormalStream3iATI?$AA@ 00000001401d1408     glew32s:glew.obj
 0003:00025420       ??_C@_0BF@PGJGMCOF@glNormalStream3ivATI?$AA@ 00000001401d1420     glew32s:glew.obj
 0003:00025440       ??_C@_0BE@ICMJAFFN@glNormalStream3sATI?$AA@ 00000001401d1440     glew32s:glew.obj
 0003:00025458       ??_C@_0BF@FENLODBI@glNormalStream3svATI?$AA@ 00000001401d1458     glew32s:glew.obj
 0003:00025478       ??_C@_0BF@JMAAJKEE@glVertexBlendEnvfATI?$AA@ 00000001401d1478     glew32s:glew.obj
 0003:00025498       ??_C@_0BF@BOFAANJF@glVertexBlendEnviATI?$AA@ 00000001401d1498     glew32s:glew.obj
 0003:000254b8       ??_C@_0BE@EJBNAJPO@glVertexStream1dATI?$AA@ 00000001401d14b8     glew32s:glew.obj
 0003:000254d0       ??_C@_0BF@BLMPMFEG@glVertexStream1dvATI?$AA@ 00000001401d14d0     glew32s:glew.obj
 0003:000254f0       ??_C@_0BE@DDNNFKJO@glVertexStream1fATI?$AA@ 00000001401d14f0     glew32s:glew.obj
 0003:00025508       ??_C@_0BF@FGAHGEEN@glVertexStream1fvATI?$AA@ 00000001401d1508     glew32s:glew.obj
 0003:00025528       ??_C@_0BE@LBINMNEP@glVertexStream1iATI?$AA@ 00000001401d1528     glew32s:glew.obj
 0003:00025540       ??_C@_0BF@KHFBNGJI@glVertexStream1ivATI?$AA@ 00000001401d1540     glew32s:glew.obj
 0003:00025560       ??_C@_0BE@JLNNECGM@glVertexStream1sATI?$AA@ 00000001401d1560     glew32s:glew.obj
 0003:00025578       ??_C@_0BF@FBMPHGF@glVertexStream1svATI?$AA@ 00000001401d1578     glew32s:glew.obj
 0003:00025598       ??_C@_0BE@MPIJHLFA@glVertexStream2dATI?$AA@ 00000001401d1598     glew32s:glew.obj
 0003:000255b0       ??_C@_0BF@CKCHNPNL@glVertexStream2dvATI?$AA@ 00000001401d15b0     glew32s:glew.obj
 0003:000255d0       ??_C@_0BE@LFEJCIDA@glVertexStream2fATI?$AA@ 00000001401d15d0     glew32s:glew.obj
 0003:000255e8       ??_C@_0BF@GHOPHONA@glVertexStream2fvATI?$AA@ 00000001401d15e8     glew32s:glew.obj
 0003:00025608       ??_C@_0BE@DHBJLPOB@glVertexStream2iATI?$AA@ 00000001401d1608     glew32s:glew.obj
 0003:00025620       ??_C@_0BF@JGLJMMAF@glVertexStream2ivATI?$AA@ 00000001401d1620     glew32s:glew.obj
 0003:00025640       ??_C@_0BE@BNEJDAMC@glVertexStream2sATI?$AA@ 00000001401d1640     glew32s:glew.obj
 0003:00025658       ??_C@_0BF@DEPEONPI@glVertexStream2svATI?$AA@ 00000001401d1658     glew32s:glew.obj
 0003:00025678       ??_C@_0BE@ENFKIPF@glVertexStream3dATI?$AA@ 00000001401d1678     glew32s:glew.obj
 0003:00025690       ??_C@_0BF@IMFANEGP@glVertexStream3dvATI?$AA@ 00000001401d1690     glew32s:glew.obj
 0003:000256b0       ??_C@_0BE@HOBFPLJF@glVertexStream3fATI?$AA@ 00000001401d16b0     glew32s:glew.obj
 0003:000256c8       ??_C@_0BF@MBJIHFGE@glVertexStream3fvATI?$AA@ 00000001401d16c8     glew32s:glew.obj
 0003:000256e8       ??_C@_0BE@PMEFGMEE@glVertexStream3iATI?$AA@ 00000001401d16e8     glew32s:glew.obj
 0003:00025700       ??_C@_0BF@DAMOMHLB@glVertexStream3ivATI?$AA@ 00000001401d1700     glew32s:glew.obj
 0003:00025720       ??_C@_0BE@NGBFODGH@glVertexStream3sATI?$AA@ 00000001401d1720     glew32s:glew.obj
 0003:00025738       ??_C@_0BF@JCIDOGEM@glVertexStream3svATI?$AA@ 00000001401d1738     glew32s:glew.obj
 0003:00025758       ??_C@_0BE@BJNAJIEN@glVertexStream4dATI?$AA@ 00000001401d1758     glew32s:glew.obj
 0003:00025770       ??_C@_0BF@EJPHOKOB@glVertexStream4dvATI?$AA@ 00000001401d1770     glew32s:glew.obj
 0003:00025790       ??_C@_0BE@GDBAMLCN@glVertexStream4fATI?$AA@ 00000001401d1790     glew32s:glew.obj
 0003:000257a8       ??_C@_0BF@EDPELOK@glVertexStream4fvATI?$AA@ 00000001401d17a8     glew32s:glew.obj
 0003:000257c8       ??_C@_0BE@OBEAFMPM@glVertexStream4iATI?$AA@ 00000001401d17c8     glew32s:glew.obj
 0003:000257e0       ??_C@_0BF@PFGJPJDP@glVertexStream4ivATI?$AA@ 00000001401d17e0     glew32s:glew.obj
 0003:00025800       ??_C@_0BE@MLBANDNP@glVertexStream4sATI?$AA@ 00000001401d1800     glew32s:glew.obj
 0003:00025818       ??_C@_0BF@FHCENIMC@glVertexStream4svATI?$AA@ 00000001401d1818     glew32s:glew.obj
 0003:00025838       ??_C@_0CF@JJCPCFLK@glDrawArraysInstancedBaseInstanc@ 00000001401d1838     glew32s:glew.obj
 0003:00025868       ??_C@_0CH@BMDIDOFL@glDrawElementsInstancedBaseInsta@ 00000001401d1868     glew32s:glew.obj
 0003:00025898       ??_C@_0DB@KMPMGOJN@glDrawElementsInstancedBaseVerte@ 00000001401d1898     glew32s:glew.obj
 0003:000258d8       ??_C@_0BK@JHNNOGKB@glGetUniformBufferSizeEXT?$AA@ 00000001401d18d8     glew32s:glew.obj
 0003:000258f8       ??_C@_0BG@DFAIJAMP@glGetUniformOffsetEXT?$AA@ 00000001401d18f8     glew32s:glew.obj
 0003:00025918       ??_C@_0BD@HHOMEDEN@glUniformBufferEXT?$AA@ 00000001401d1918     glew32s:glew.obj
 0003:00025930       ??_C@_0BA@EGDGJFLJ@glBlendColorEXT?$AA@ 00000001401d1930     glew32s:glew.obj
 0003:00025948       ??_C@_0BL@INMJGNKI@glBlendEquationSeparateEXT?$AA@ 00000001401d1948     glew32s:glew.obj
 0003:00025968       ??_C@_0CB@IMCLFCMM@glBindFragDataLocationIndexedEXT@ 00000001401d1968     glew32s:glew.obj
 0003:00025990       ??_C@_0BG@CAHKIJGA@glGetFragDataIndexEXT?$AA@ 00000001401d1990     glew32s:glew.obj
 0003:000259b0       ??_C@_0CF@JOHAJCO@glGetProgramResourceLocationInde@ 00000001401d19b0     glew32s:glew.obj
 0003:000259e0       ??_C@_0BH@GFPLHCKF@glBlendFuncSeparateEXT?$AA@ 00000001401d19e0     glew32s:glew.obj
 0003:00025a00       ??_C@_0BD@CFOJJHII@glBlendEquationEXT?$AA@ 00000001401d1a00     glew32s:glew.obj
 0003:00025a18       ??_C@_0BD@BGEFKHKP@glBufferStorageEXT?$AA@ 00000001401d1a18     glew32s:glew.obj
 0003:00025a30       ??_C@_0BI@IGOLIKPI@glNamedBufferStorageEXT?$AA@ 00000001401d1a30     glew32s:glew.obj
 0003:00025a50       ??_C@_0BD@GOOEPLPA@glClearTexImageEXT?$AA@ 00000001401d1a50     glew32s:glew.obj
 0003:00025a68       ??_C@_0BG@CHDNMCKL@glClearTexSubImageEXT?$AA@ 00000001401d1a68     glew32s:glew.obj
 0003:00025a88       ??_C@_0BD@EBCIGLLP@glColorSubTableEXT?$AA@ 00000001401d1a88     glew32s:glew.obj
 0003:00025aa0       ??_C@_0BH@HAGEMNAG@glCopyColorSubTableEXT?$AA@ 00000001401d1aa0     glew32s:glew.obj
 0003:00025ac0       ??_C@_0BA@FALFDEFM@glLockArraysEXT?$AA@ 00000001401d1ac0     glew32s:glew.obj
 0003:00025ad8       ??_C@_0BC@CIFHOEOG@glUnlockArraysEXT?$AA@ 00000001401d1ad8     glew32s:glew.obj
 0003:00025af0       ??_C@_0BJ@PHDFEMBL@glConvolutionFilter1DEXT?$AA@ 00000001401d1af0     glew32s:glew.obj
 0003:00025b10       ??_C@_0BJ@HBKBDOLF@glConvolutionFilter2DEXT?$AA@ 00000001401d1b10     glew32s:glew.obj
 0003:00025b30       ??_C@_0BL@KINFLEHF@glConvolutionParameterfEXT?$AA@ 00000001401d1b30     glew32s:glew.obj
 0003:00025b50       ??_C@_0BM@LDPIHMCH@glConvolutionParameterfvEXT?$AA@ 00000001401d1b50     glew32s:glew.obj
 0003:00025b78       ??_C@_0BL@CKIFCDKE@glConvolutionParameteriEXT?$AA@ 00000001401d1b78     glew32s:glew.obj
 0003:00025b98       ??_C@_0BM@ECKOMOPC@glConvolutionParameterivEXT?$AA@ 00000001401d1b98     glew32s:glew.obj
 0003:00025bc0       ??_C@_0BN@MBPMAMLC@glCopyConvolutionFilter1DEXT?$AA@ 00000001401d1bc0     glew32s:glew.obj
 0003:00025be8       ??_C@_0BN@EHGIHOBM@glCopyConvolutionFilter2DEXT?$AA@ 00000001401d1be8     glew32s:glew.obj
 0003:00025c10       ??_C@_0BK@MMCIGOOI@glGetConvolutionFilterEXT?$AA@ 00000001401d1c10     glew32s:glew.obj
 0003:00025c30       ??_C@_0BP@FBAELFAJ@glGetConvolutionParameterfvEXT?$AA@ 00000001401d1c30     glew32s:glew.obj
 0003:00025c58       ??_C@_0BP@KAFCAHNM@glGetConvolutionParameterivEXT?$AA@ 00000001401d1c58     glew32s:glew.obj
 0003:00025c80       ??_C@_0BI@JFAGILII@glGetSeparableFilterEXT?$AA@ 00000001401d1c80     glew32s:glew.obj
 0003:00025ca0       ??_C@_0BH@BGAJAFHE@glSeparableFilter2DEXT?$AA@ 00000001401d1ca0     glew32s:glew.obj
 0003:00025cc0       ??_C@_0BF@DOJEEBCJ@glBinormalPointerEXT?$AA@ 00000001401d1cc0     glew32s:glew.obj
 0003:00025ce0       ??_C@_0BE@HLHMPCOG@glTangentPointerEXT?$AA@ 00000001401d1ce0     glew32s:glew.obj
 0003:00025cf8       ??_C@_0BG@OCKOHEBN@glCopyImageSubDataEXT?$AA@ 00000001401d1cf8     glew32s:glew.obj
 0003:00025d18       ??_C@_0BE@EDHFEHBO@glCopyTexImage1DEXT?$AA@ 00000001401d1d18     glew32s:glew.obj
 0003:00025d30       ??_C@_0BE@MFOBDFLA@glCopyTexImage2DEXT?$AA@ 00000001401d1d30     glew32s:glew.obj
 0003:00025d48       ??_C@_0BH@PGHCOMMF@glCopyTexSubImage1DEXT?$AA@ 00000001401d1d48     glew32s:glew.obj
 0003:00025d68       ??_C@_0BH@HAOGJOGL@glCopyTexSubImage2DEXT?$AA@ 00000001401d1d68     glew32s:glew.obj
 0003:00025d88       ??_C@_0BH@LLLKENMO@glCopyTexSubImage3DEXT?$AA@ 00000001401d1d88     glew32s:glew.obj
 0003:00025da8       ??_C@_0BF@BCDJHKHD@glCullParameterdvEXT?$AA@ 00000001401d1da8     glew32s:glew.obj
 0003:00025dc8       ??_C@_0BF@FPPBNLHI@glCullParameterfvEXT?$AA@ 00000001401d1dc8     glew32s:glew.obj
 0003:00025de8       ??_C@_0BE@PBOEBGI@glGetObjectLabelEXT?$AA@ 00000001401d1de8     glew32s:glew.obj
 0003:00025e00       ??_C@_0BB@PGEJOJOO@glLabelObjectEXT?$AA@ 00000001401d1e00     glew32s:glew.obj
 0003:00025e18       ??_C@_0BH@LLCNDOOD@glInsertEventMarkerEXT?$AA@ 00000001401d1e18     glew32s:glew.obj
 0003:00025e38       ??_C@_0BE@PGLCBOPK@glPopGroupMarkerEXT?$AA@ 00000001401d1e38     glew32s:glew.obj
 0003:00025e50       ??_C@_0BF@PLBBOBKG@glPushGroupMarkerEXT?$AA@ 00000001401d1e50     glew32s:glew.obj
 0003:00025e70       ??_C@_0BB@NPFLJMMA@glDepthBoundsEXT?$AA@ 00000001401d1e70     glew32s:glew.obj
 0003:00025e88       ??_C@_0BG@MOGNCKMO@glBindMultiTextureEXT?$AA@ 00000001401d1e88     glew32s:glew.obj
 0003:00025ea8       ??_C@_0CB@BPNGHABA@glCheckNamedFramebufferStatusEXT@ 00000001401d1ea8     glew32s:glew.obj
 0003:00025ed0       ??_C@_0BJ@CALICIHF@glClientAttribDefaultEXT?$AA@ 00000001401d1ed0     glew32s:glew.obj
 0003:00025ef0       ??_C@_0BP@NJMJPMPG@glCompressedMultiTexImage1DEXT?$AA@ 00000001401d1ef0     glew32s:glew.obj
 0003:00025f18       ??_C@_0BP@FPFNIOFI@glCompressedMultiTexImage2DEXT?$AA@ 00000001401d1f18     glew32s:glew.obj
 0003:00025f40       ??_C@_0BP@JEABFNPN@glCompressedMultiTexImage3DEXT?$AA@ 00000001401d1f40     glew32s:glew.obj
 0003:00025f68       ??_C@_0CC@JEGFOFJD@glCompressedMultiTexSubImage1DEX@ 00000001401d1f68     glew32s:glew.obj
 0003:00025f90       ??_C@_0CC@BCPBJHDN@glCompressedMultiTexSubImage2DEX@ 00000001401d1f90     glew32s:glew.obj
 0003:00025fb8       ??_C@_0CC@NJKNEEJI@glCompressedMultiTexSubImage3DEX@ 00000001401d1fb8     glew32s:glew.obj
 0003:00025fe0       ??_C@_0BO@GBNHMICE@glCompressedTextureImage1DEXT?$AA@ 00000001401d1fe0     glew32s:glew.obj
 0003:00026008       ??_C@_0BO@OHEDLKIK@glCompressedTextureImage2DEXT?$AA@ 00000001401d2008     glew32s:glew.obj
 0003:00026030       ??_C@_0BO@CMBPGJCP@glCompressedTextureImage3DEXT?$AA@ 00000001401d2030     glew32s:glew.obj
 0003:00026058       ??_C@_0CB@FLENMKOB@glCompressedTextureSubImage1DEXT@ 00000001401d2058     glew32s:glew.obj
 0003:00026080       ??_C@_0CB@NNNJLIEP@glCompressedTextureSubImage2DEXT@ 00000001401d2080     glew32s:glew.obj
 0003:000260a8       ??_C@_0CB@BGIFGLOK@glCompressedTextureSubImage3DEXT@ 00000001401d20a8     glew32s:glew.obj
 0003:000260d0       ??_C@_0BJ@HAJMGINM@glCopyMultiTexImage1DEXT?$AA@ 00000001401d20d0     glew32s:glew.obj
 0003:000260f0       ??_C@_0BJ@PGAIBKHC@glCopyMultiTexImage2DEXT?$AA@ 00000001401d20f0     glew32s:glew.obj
 0003:00026110       ??_C@_0BM@KPJDMMGJ@glCopyMultiTexSubImage1DEXT?$AA@ 00000001401d2110     glew32s:glew.obj
 0003:00026138       ??_C@_0BM@CJAHLOMH@glCopyMultiTexSubImage2DEXT?$AA@ 00000001401d2138     glew32s:glew.obj
 0003:00026160       ??_C@_0BM@OCFLGNGC@glCopyMultiTexSubImage3DEXT?$AA@ 00000001401d2160     glew32s:glew.obj
 0003:00026188       ??_C@_0BI@IIONLBMI@glCopyTextureImage1DEXT?$AA@ 00000001401d2188     glew32s:glew.obj
 0003:000261a8       ??_C@_0BI@OHJMDGG@glCopyTextureImage2DEXT?$AA@ 00000001401d21a8     glew32s:glew.obj
 0003:000261c8       ??_C@_0BL@MDEEPIMB@glCopyTextureSubImage1DEXT?$AA@ 00000001401d21c8     glew32s:glew.obj
 0003:000261e8       ??_C@_0BL@EFNAIKGP@glCopyTextureSubImage2DEXT?$AA@ 00000001401d21e8     glew32s:glew.obj
 0003:00026208       ??_C@_0BL@IOIMFJMK@glCopyTextureSubImage3DEXT?$AA@ 00000001401d2208     glew32s:glew.obj
 0003:00026228       ??_C@_0BP@LBNONMPF@glDisableClientStateIndexedEXT?$AA@ 00000001401d2228     glew32s:glew.obj
 0003:00026250       ??_C@_0BJ@LKKOIGJN@glDisableClientStateiEXT?$AA@ 00000001401d2250     glew32s:glew.obj
 0003:00026270       ??_C@_0BO@OOIMHDFA@glDisableVertexArrayAttribEXT?$AA@ 00000001401d2270     glew32s:glew.obj
 0003:00026298       ??_C@_0BI@IAKAGPJM@glDisableVertexArrayEXT?$AA@ 00000001401d2298     glew32s:glew.obj
 0003:000262b8       ??_C@_0BO@FCOHKAHD@glEnableClientStateIndexedEXT?$AA@ 00000001401d22b8     glew32s:glew.obj
 0003:000262e0       ??_C@_0BI@DDPEAKOL@glEnableClientStateiEXT?$AA@ 00000001401d22e0     glew32s:glew.obj
 0003:00026300       ??_C@_0BN@LEPLOHNI@glEnableVertexArrayAttribEXT?$AA@ 00000001401d2300     glew32s:glew.obj
 0003:00026328       ??_C@_0BH@JAHPJAF@glEnableVertexArrayEXT?$AA@ 00000001401d2328     glew32s:glew.obj
 0003:00026348       ??_C@_0CB@EIJKJEMO@glFlushMappedNamedBufferRangeEXT@ 00000001401d2348     glew32s:glew.obj
 0003:00026370       ??_C@_0BL@PBDAHKDG@glFramebufferDrawBufferEXT?$AA@ 00000001401d2370     glew32s:glew.obj
 0003:00026390       ??_C@_0BM@JEJEAGLD@glFramebufferDrawBuffersEXT?$AA@ 00000001401d2390     glew32s:glew.obj
 0003:000263b8       ??_C@_0BL@JBCAAPKE@glFramebufferReadBufferEXT?$AA@ 00000001401d23b8     glew32s:glew.obj
 0003:000263d8       ??_C@_0BM@DMNPALLC@glGenerateMultiTexMipmapEXT?$AA@ 00000001401d23d8     glew32s:glew.obj
 0003:00026400       ??_C@_0BL@FGEAAKMK@glGenerateTextureMipmapEXT?$AA@ 00000001401d2400     glew32s:glew.obj
 0003:00026420       ??_C@_0CA@GHJFOBII@glGetCompressedMultiTexImageEXT?$AA@ 00000001401d2420     glew32s:glew.obj
 0003:00026448       ??_C@_0BP@HEIAJKMC@glGetCompressedTextureImageEXT?$AA@ 00000001401d2448     glew32s:glew.obj
 0003:00026470       ??_C@_0BH@JPALJFOC@glGetDoubleIndexedvEXT?$AA@ 00000001401d2470     glew32s:glew.obj
 0003:00026490       ??_C@_0BC@PDBOBDJL@glGetDoublei_vEXT?$AA@ 00000001401d2490     glew32s:glew.obj
 0003:000264a8       ??_C@_0BG@EMFACKNP@glGetFloatIndexedvEXT?$AA@ 00000001401d24a8     glew32s:glew.obj
 0003:000264c8       ??_C@_0BB@JLGFFCMK@glGetFloati_vEXT?$AA@ 00000001401d24c8     glew32s:glew.obj
 0003:000264e0       ??_C@_0BP@HFLGOGIL@glGetFramebufferParameterivEXT?$AA@ 00000001401d24e0     glew32s:glew.obj
 0003:00026508       ??_C@_0BG@GNBOGHDO@glGetMultiTexEnvfvEXT?$AA@ 00000001401d2508     glew32s:glew.obj
 0003:00026528       ??_C@_0BG@JMEINFOL@glGetMultiTexEnvivEXT?$AA@ 00000001401d2528     glew32s:glew.obj
 0003:00026548       ??_C@_0BG@HHLCAEM@glGetMultiTexGendvEXT?$AA@ 00000001401d2548     glew32s:glew.obj
 0003:00026568       ??_C@_0BG@EKLDIBEH@glGetMultiTexGenfvEXT?$AA@ 00000001401d2568     glew32s:glew.obj
 0003:00026588       ??_C@_0BG@LLOFDDJC@glGetMultiTexGenivEXT?$AA@ 00000001401d2588     glew32s:glew.obj
 0003:000265a8       ??_C@_0BG@ELMAAPHO@glGetMultiTexImageEXT?$AA@ 00000001401d25a8     glew32s:glew.obj
 0003:000265c8       ??_C@_0CB@PNDHILHL@glGetMultiTexLevelParameterfvEXT@ 00000001401d25c8     glew32s:glew.obj
 0003:000265f0       ??_C@_0CB@MGBDJKO@glGetMultiTexLevelParameterivEXT@ 00000001401d25f0     glew32s:glew.obj
 0003:00026618       ??_C@_0BN@LGBIBNIB@glGetMultiTexParameterIivEXT?$AA@ 00000001401d2618     glew32s:glew.obj
 0003:00026640       ??_C@_0BO@FLMIMBHP@glGetMultiTexParameterIuivEXT?$AA@ 00000001401d2640     glew32s:glew.obj
 0003:00026668       ??_C@_0BM@FMKJLGAC@glGetMultiTexParameterfvEXT?$AA@ 00000001401d2668     glew32s:glew.obj
 0003:00026690       ??_C@_0BM@KNPPAENH@glGetMultiTexParameterivEXT?$AA@ 00000001401d2690     glew32s:glew.obj
 0003:000266b8       ??_C@_0BP@HGDHPKNF@glGetNamedBufferParameterivEXT?$AA@ 00000001401d26b8     glew32s:glew.obj
 0003:000266e0       ??_C@_0BM@IKINKGOC@glGetNamedBufferPointervEXT?$AA@ 00000001401d26e0     glew32s:glew.obj
 0003:00026708       ??_C@_0BL@EHBNKLPA@glGetNamedBufferSubDataEXT?$AA@ 00000001401d2708     glew32s:glew.obj
 0003:00026728       ??_C@_0CO@OKPMKDDI@glGetNamedFramebufferAttachmentP@ 00000001401d2728     glew32s:glew.obj
 0003:00026760       ??_C@_0CG@LFLLCKKN@glGetNamedProgramLocalParameterI@ 00000001401d2760     glew32s:glew.obj
 0003:00026790       ??_C@_0CH@GJBDAOKL@glGetNamedProgramLocalParameterI@ 00000001401d2790     glew32s:glew.obj
 0003:000267c0       ??_C@_0CF@ELEDHIL@glGetNamedProgramLocalParameterd@ 00000001401d27c0     glew32s:glew.obj
 0003:000267f0       ??_C@_0CF@EJHMJGIA@glGetNamedProgramLocalParameterf@ 00000001401d27f0     glew32s:glew.obj
 0003:00026820       ??_C@_0BL@JKMDNLBO@glGetNamedProgramStringEXT?$AA@ 00000001401d2820     glew32s:glew.obj
 0003:00026840       ??_C@_0BH@IALGOIPC@glGetNamedProgramivEXT?$AA@ 00000001401d2840     glew32s:glew.obj
 0003:00026860       ??_C@_0CF@MMPFHIHI@glGetNamedRenderbufferParameteri@ 00000001401d2860     glew32s:glew.obj
 0003:00026890       ??_C@_0BI@FKCCJJJM@glGetPointerIndexedvEXT?$AA@ 00000001401d2890     glew32s:glew.obj
 0003:000268b0       ??_C@_0BD@HGLPNBMF@glGetPointeri_vEXT?$AA@ 00000001401d28b0     glew32s:glew.obj
 0003:000268c8       ??_C@_0BF@PIPAOHHM@glGetTextureImageEXT?$AA@ 00000001401d28c8     glew32s:glew.obj
 0003:000268e8       ??_C@_0CA@PHCGGOKJ@glGetTextureLevelParameterfvEXT?$AA@ 00000001401d28e8     glew32s:glew.obj
 0003:00026910       ??_C@_0CA@GHANMHM@glGetTextureLevelParameterivEXT?$AA@ 00000001401d2910     glew32s:glew.obj
 0003:00026938       ??_C@_0BM@HFHGMMLF@glGetTextureParameterIivEXT?$AA@ 00000001401d2938     glew32s:glew.obj
 0003:00026960       ??_C@_0BN@HKLPFLBL@glGetTextureParameterIuivEXT?$AA@ 00000001401d2960     glew32s:glew.obj
 0003:00026988       ??_C@_0BL@DOPGCDPP@glGetTextureParameterfvEXT?$AA@ 00000001401d2988     glew32s:glew.obj
 0003:000269a8       ??_C@_0BL@MPKAJBCK@glGetTextureParameterivEXT?$AA@ 00000001401d29a8     glew32s:glew.obj
 0003:000269c8       ??_C@_0BO@FDAMMDFD@glGetVertexArrayIntegeri_vEXT?$AA@ 00000001401d29c8     glew32s:glew.obj
 0003:000269f0       ??_C@_0BM@FJKMMCPD@glGetVertexArrayIntegervEXT?$AA@ 00000001401d29f0     glew32s:glew.obj
 0003:00026a18       ??_C@_0BO@DLHBIIEH@glGetVertexArrayPointeri_vEXT?$AA@ 00000001401d2a18     glew32s:glew.obj
 0003:00026a40       ??_C@_0BM@KLKCGIBD@glGetVertexArrayPointervEXT?$AA@ 00000001401d2a40     glew32s:glew.obj
 0003:00026a68       ??_C@_0BE@ONFFICFI@glMapNamedBufferEXT?$AA@ 00000001401d2a68     glew32s:glew.obj
 0003:00026a80       ??_C@_0BJ@MEDFIODK@glMapNamedBufferRangeEXT?$AA@ 00000001401d2a80     glew32s:glew.obj
 0003:00026aa0       ??_C@_0BD@GNNFKBNH@glMatrixFrustumEXT?$AA@ 00000001401d2aa0     glew32s:glew.obj
 0003:00026ab8       ??_C@_0BI@IKIFDKFM@glMatrixLoadIdentityEXT?$AA@ 00000001401d2ab8     glew32s:glew.obj
 0003:00026ad8       ??_C@_0BK@EGBAFFFD@glMatrixLoadTransposedEXT?$AA@ 00000001401d2ad8     glew32s:glew.obj
 0003:00026af8       ??_C@_0BK@DMNAAGDD@glMatrixLoadTransposefEXT?$AA@ 00000001401d2af8     glew32s:glew.obj
 0003:00026b18       ??_C@_0BB@FDNBKOAN@glMatrixLoaddEXT?$AA@ 00000001401d2b18     glew32s:glew.obj
 0003:00026b30       ??_C@_0BB@CJBBPNGN@glMatrixLoadfEXT?$AA@ 00000001401d2b30     glew32s:glew.obj
 0003:00026b48       ??_C@_0BK@MBBHHIIA@glMatrixMultTransposedEXT?$AA@ 00000001401d2b48     glew32s:glew.obj
 0003:00026b68       ??_C@_0BK@LLNHCLOA@glMatrixMultTransposefEXT?$AA@ 00000001401d2b68     glew32s:glew.obj
 0003:00026b88       ??_C@_0BB@MLNAPEPG@glMatrixMultdEXT?$AA@ 00000001401d2b88     glew32s:glew.obj
 0003:00026ba0       ??_C@_0BB@LBBAKHJG@glMatrixMultfEXT?$AA@ 00000001401d2ba0     glew32s:glew.obj
 0003:00026bb8       ??_C@_0BB@LIBGPEDB@glMatrixOrthoEXT?$AA@ 00000001401d2bb8     glew32s:glew.obj
 0003:00026bd0       ??_C@_0P@BOEIELPJ@glMatrixPopEXT?$AA@ 00000001401d2bd0     glew32s:glew.obj
 0003:00026be8       ??_C@_0BA@MNKKLGBO@glMatrixPushEXT?$AA@ 00000001401d2be8     glew32s:glew.obj
 0003:00026c00       ??_C@_0BD@IGIJFODJ@glMatrixRotatedEXT?$AA@ 00000001401d2c00     glew32s:glew.obj
 0003:00026c18       ??_C@_0BD@PMEJANFJ@glMatrixRotatefEXT?$AA@ 00000001401d2c18     glew32s:glew.obj
 0003:00026c30       ??_C@_0BC@DPNPPBGC@glMatrixScaledEXT?$AA@ 00000001401d2c30     glew32s:glew.obj
 0003:00026c48       ??_C@_0BC@EFBPKCAC@glMatrixScalefEXT?$AA@ 00000001401d2c48     glew32s:glew.obj
 0003:00026c60       ??_C@_0BG@JGLAJIPN@glMatrixTranslatedEXT?$AA@ 00000001401d2c60     glew32s:glew.obj
 0003:00026c80       ??_C@_0BG@OMHAMLJN@glMatrixTranslatefEXT?$AA@ 00000001401d2c80     glew32s:glew.obj
 0003:00026ca0       ??_C@_0BE@HEPIKCIG@glMultiTexBufferEXT?$AA@ 00000001401d2ca0     glew32s:glew.obj
 0003:00026cb8       ??_C@_0BK@GGBKGBFO@glMultiTexCoordPointerEXT?$AA@ 00000001401d2cb8     glew32s:glew.obj
 0003:00026cd8       ??_C@_0BC@NGBAJLNK@glMultiTexEnvfEXT?$AA@ 00000001401d2cd8     glew32s:glew.obj
 0003:00026cf0       ??_C@_0BD@PFOPAHHB@glMultiTexEnvfvEXT?$AA@ 00000001401d2cf0     glew32s:glew.obj
 0003:00026d08       ??_C@_0BC@FEEAAMAL@glMultiTexEnviEXT?$AA@ 00000001401d2d08     glew32s:glew.obj
 0003:00026d20       ??_C@_0BD@ELJLFKE@glMultiTexEnvivEXT?$AA@ 00000001401d2d20     glew32s:glew.obj
 0003:00026d38       ??_C@_0BC@DHHBLML@glMultiTexGendEXT?$AA@ 00000001401d2d38     glew32s:glew.obj
 0003:00026d50       ??_C@_0BD@JPIKEAAD@glMultiTexGendvEXT?$AA@ 00000001401d2d50     glew32s:glew.obj
 0003:00026d68       ??_C@_0BC@HJLHEIKL@glMultiTexGenfEXT?$AA@ 00000001401d2d68     glew32s:glew.obj
 0003:00026d80       ??_C@_0BD@NCECOBAI@glMultiTexGenfvEXT?$AA@ 00000001401d2d80     glew32s:glew.obj
 0003:00026d98       ??_C@_0BC@PLOHNPHK@glMultiTexGeniEXT?$AA@ 00000001401d2d98     glew32s:glew.obj
 0003:00026db0       ??_C@_0BD@CDBEFDNN@glMultiTexGenivEXT?$AA@ 00000001401d2db0     glew32s:glew.obj
 0003:00026dc8       ??_C@_0BF@HKCOEKLM@glMultiTexImage1DEXT?$AA@ 00000001401d2dc8     glew32s:glew.obj
 0003:00026de8       ??_C@_0BF@PMLKDIBC@glMultiTexImage2DEXT?$AA@ 00000001401d2de8     glew32s:glew.obj
 0003:00026e08       ??_C@_0BF@DHOGOLLH@glMultiTexImage3DEXT?$AA@ 00000001401d2e08     glew32s:glew.obj
 0003:00026e28       ??_C@_0BK@BAPKHON@glMultiTexParameterIivEXT?$AA@ 00000001401d2e28     glew32s:glew.obj
 0003:00026e48       ??_C@_0BL@BPHLPLLG@glMultiTexParameterIuivEXT?$AA@ 00000001401d2e48     glew32s:glew.obj
 0003:00026e68       ??_C@_0BI@MABEJKFI@glMultiTexParameterfEXT?$AA@ 00000001401d2e68     glew32s:glew.obj
 0003:00026e88       ??_C@_0BJ@PGEPOBHM@glMultiTexParameterfvEXT?$AA@ 00000001401d2e88     glew32s:glew.obj
 0003:00026ea8       ??_C@_0BI@ECEEANIJ@glMultiTexParameteriEXT?$AA@ 00000001401d2ea8     glew32s:glew.obj
 0003:00026ec8       ??_C@_0BJ@HBJFDKJ@glMultiTexParameterivEXT?$AA@ 00000001401d2ec8     glew32s:glew.obj
 0003:00026ee8       ??_C@_0BK@BJEMPNMI@glMultiTexRenderbufferEXT?$AA@ 00000001401d2ee8     glew32s:glew.obj
 0003:00026f08       ??_C@_0BI@GFJJJDMD@glMultiTexSubImage1DEXT?$AA@ 00000001401d2f08     glew32s:glew.obj
 0003:00026f28       ??_C@_0BI@ODANOBGN@glMultiTexSubImage2DEXT?$AA@ 00000001401d2f28     glew32s:glew.obj
 0003:00026f48       ??_C@_0BI@CIFBDCMI@glMultiTexSubImage3DEXT?$AA@ 00000001401d2f48     glew32s:glew.obj
 0003:00026f68       ??_C@_0BF@EGDGIBPF@glNamedBufferDataEXT?$AA@ 00000001401d2f68     glew32s:glew.obj
 0003:00026f88       ??_C@_0BI@KLAGIKJO@glNamedBufferSubDataEXT?$AA@ 00000001401d2f88     glew32s:glew.obj
 0003:00026fa8       ??_C@_0BM@KMCAOBPL@glNamedCopyBufferSubDataEXT?$AA@ 00000001401d2fa8     glew32s:glew.obj
 0003:00026fd0       ??_C@_0CC@GIBDJJNI@glNamedFramebufferRenderbufferEX@ 00000001401d2fd0     glew32s:glew.obj
 0003:00026ff8       ??_C@_0BP@BMGCDMAJ@glNamedFramebufferTexture1DEXT?$AA@ 00000001401d2ff8     glew32s:glew.obj
 0003:00027020       ??_C@_0BP@JKPGEOKH@glNamedFramebufferTexture2DEXT?$AA@ 00000001401d3020     glew32s:glew.obj
 0003:00027048       ??_C@_0BP@FBKKJNAC@glNamedFramebufferTexture3DEXT?$AA@ 00000001401d3048     glew32s:glew.obj
 0003:00027070       ??_C@_0BN@EBOLPEFF@glNamedFramebufferTextureEXT?$AA@ 00000001401d3070     glew32s:glew.obj
 0003:00027098       ??_C@_0CB@BJCEBIKA@glNamedFramebufferTextureFaceEXT@ 00000001401d3098     glew32s:glew.obj
 0003:000270c0       ??_C@_0CC@OGPAEEAO@glNamedFramebufferTextureLayerEX@ 00000001401d30c0     glew32s:glew.obj
 0003:000270e8       ??_C@_0CC@KNGPLIKD@glNamedProgramLocalParameter4dEX@ 00000001401d30e8     glew32s:glew.obj
 0003:00027110       ??_C@_0CD@NMENLBMK@glNamedProgramLocalParameter4dvE@ 00000001401d3110     glew32s:glew.obj
 0003:00027140       ??_C@_0CC@NHKPOLMD@glNamedProgramLocalParameter4fEX@ 00000001401d3140     glew32s:glew.obj
 0003:00027168       ??_C@_0CD@JBIFBAMB@glNamedProgramLocalParameter4fvE@ 00000001401d3168     glew32s:glew.obj
 0003:00027198       ??_C@_0CD@LPMMAIIF@glNamedProgramLocalParameterI4iE@ 00000001401d3198     glew32s:glew.obj
 0003:000271c8       ??_C@_0CE@OFCJHIH@glNamedProgramLocalParameterI4iv@ 00000001401d31c8     glew32s:glew.obj
 0003:000271f8       ??_C@_0CE@JIPGFFDE@glNamedProgramLocalParameterI4ui@ 00000001401d31f8     glew32s:glew.obj
 0003:00027228       ??_C@_0CF@LCBDCOMA@glNamedProgramLocalParameterI4ui@ 00000001401d3228     glew32s:glew.obj
 0003:00027258       ??_C@_0CE@OLAJGKOH@glNamedProgramLocalParameters4fv@ 00000001401d3258     glew32s:glew.obj
 0003:00027288       ??_C@_0CF@NMCFJOAA@glNamedProgramLocalParametersI4i@ 00000001401d3288     glew32s:glew.obj
 0003:000272b8       ??_C@_0CG@MBBNEPEK@glNamedProgramLocalParametersI4u@ 00000001401d32b8     glew32s:glew.obj
 0003:000272e8       ??_C@_0BI@HGNIPKHA@glNamedProgramStringEXT?$AA@ 00000001401d32e8     glew32s:glew.obj
 0003:00027308       ??_C@_0BO@KHENOFMG@glNamedRenderbufferStorageEXT?$AA@ 00000001401d3308     glew32s:glew.obj
 0003:00027330       ??_C@_0DB@DNHIJAC@glNamedRenderbufferStorageMultis@ 00000001401d3330     glew32s:glew.obj
 0003:00027370       ??_C@_0CJ@DMIMHEMF@glNamedRenderbufferStorageMultis@ 00000001401d3370     glew32s:glew.obj
 0003:000273a8       ??_C@_0BG@ELNBLDME@glProgramUniform1fEXT?$AA@ 00000001401d33a8     glew32s:glew.obj
 0003:000273c8       ??_C@_0BH@PHNPLDK@glProgramUniform1fvEXT?$AA@ 00000001401d33c8     glew32s:glew.obj
 0003:000273e8       ??_C@_0BG@MJIBCEBF@glProgramUniform1iEXT?$AA@ 00000001401d33e8     glew32s:glew.obj
 0003:00027408       ??_C@_0BH@POCLEJOP@glProgramUniform1ivEXT?$AA@ 00000001401d3408     glew32s:glew.obj
 0003:00027428       ??_C@_0BH@GIIPILFM@glProgramUniform1uiEXT?$AA@ 00000001401d3428     glew32s:glew.obj
 0003:00027448       ??_C@_0BI@PBIKLOHE@glProgramUniform1uivEXT?$AA@ 00000001401d3448     glew32s:glew.obj
 0003:00027468       ??_C@_0BG@MNEFMBGK@glProgramUniform2fEXT?$AA@ 00000001401d3468     glew32s:glew.obj
 0003:00027488       ??_C@_0BH@DOJFOBKH@glProgramUniform2fvEXT?$AA@ 00000001401d3488     glew32s:glew.obj
 0003:000274a8       ??_C@_0BG@EPBFFGLL@glProgramUniform2iEXT?$AA@ 00000001401d34a8     glew32s:glew.obj
 0003:000274c8       ??_C@_0BH@MPMDFDHC@glProgramUniform2ivEXT?$AA@ 00000001401d34c8     glew32s:glew.obj
 0003:000274e8       ??_C@_0BH@FJGHJBMB@glProgramUniform2uiEXT?$AA@ 00000001401d34e8     glew32s:glew.obj
 0003:00027508       ??_C@_0BI@HPAFLJJH@glProgramUniform2uivEXT?$AA@ 00000001401d3508     glew32s:glew.obj
 0003:00027528       ??_C@_0BG@GBJBCMP@glProgramUniform3fEXT?$AA@ 00000001401d3528     glew32s:glew.obj
 0003:00027548       ??_C@_0BH@JIOCOKBD@glProgramUniform3fvEXT?$AA@ 00000001401d3548     glew32s:glew.obj
 0003:00027568       ??_C@_0BG@IEEJIFBO@glProgramUniform3iEXT?$AA@ 00000001401d3568     glew32s:glew.obj
 0003:00027588       ??_C@_0BH@GJLEFIMG@glProgramUniform3ivEXT?$AA@ 00000001401d3588     glew32s:glew.obj
 0003:000275a8       ??_C@_0BH@PPBAJKHF@glProgramUniform3uiEXT?$AA@ 00000001401d35a8     glew32s:glew.obj
 0003:000275c8       ??_C@_0BI@LDKPLJAJ@glProgramUniform3uivEXT?$AA@ 00000001401d35c8     glew32s:glew.obj
 0003:000275e8       ??_C@_0BG@BLBMCCHH@glProgramUniform4fEXT?$AA@ 00000001401d35e8     glew32s:glew.obj
 0003:00027608       ??_C@_0BH@FNEFNEJN@glProgramUniform4fvEXT?$AA@ 00000001401d3608     glew32s:glew.obj
 0003:00027628       ??_C@_0BG@JJEMLFKG@glProgramUniform4iEXT?$AA@ 00000001401d3628     glew32s:glew.obj
 0003:00027648       ??_C@_0BH@KMBDGGEI@glProgramUniform4ivEXT?$AA@ 00000001401d3648     glew32s:glew.obj
 0003:00027668       ??_C@_0BH@DKLHKEPL@glProgramUniform4uiEXT?$AA@ 00000001401d3668     glew32s:glew.obj
 0003:00027688       ??_C@_0BI@LJGKLABA@glProgramUniform4uivEXT?$AA@ 00000001401d3688     glew32s:glew.obj
 0003:000276a8       ??_C@_0BN@JOHLNHAH@glProgramUniformMatrix2fvEXT?$AA@ 00000001401d36a8     glew32s:glew.obj
 0003:000276d0       ??_C@_0BP@IDOAAHFD@glProgramUniformMatrix2x3fvEXT?$AA@ 00000001401d36d0     glew32s:glew.obj
 0003:000276f8       ??_C@_0BP@EGEHDJNN@glProgramUniformMatrix2x4fvEXT?$AA@ 00000001401d36f8     glew32s:glew.obj
 0003:00027720       ??_C@_0BN@DIAMNMLD@glProgramUniformMatrix3fvEXT?$AA@ 00000001401d3720     glew32s:glew.obj
 0003:00027748       ??_C@_0BP@DCOMBIKE@glProgramUniformMatrix3x2fvEXT?$AA@ 00000001401d3748     glew32s:glew.obj
 0003:00027770       ??_C@_0BP@FBDMCNJO@glProgramUniformMatrix3x4fvEXT?$AA@ 00000001401d3770     glew32s:glew.obj
 0003:00027798       ??_C@_0BN@PNKLOCDN@glProgramUniformMatrix4fvEXT?$AA@ 00000001401d3798     glew32s:glew.obj
 0003:000277c0       ??_C@_0BP@FGINHFGN@glProgramUniformMatrix4x2fvEXT?$AA@ 00000001401d37c0     glew32s:glew.obj
 0003:000277e8       ??_C@_0BP@PAPKHONJ@glProgramUniformMatrix4x3fvEXT?$AA@ 00000001401d37e8     glew32s:glew.obj
 0003:00027810       ??_C@_0BN@NKADHPKI@glPushClientAttribDefaultEXT?$AA@ 00000001401d3810     glew32s:glew.obj
 0003:00027838       ??_C@_0BD@OEEPDOGM@glTextureBufferEXT?$AA@ 00000001401d3838     glew32s:glew.obj
 0003:00027850       ??_C@_0BE@DKGBPGEG@glTextureImage1DEXT?$AA@ 00000001401d3850     glew32s:glew.obj
 0003:00027868       ??_C@_0BE@LMPFIEOI@glTextureImage2DEXT?$AA@ 00000001401d3868     glew32s:glew.obj
 0003:00027880       ??_C@_0BE@HHKJFHEN@glTextureImage3DEXT?$AA@ 00000001401d3880     glew32s:glew.obj
 0003:00027898       ??_C@_0BJ@NPJAJLML@glTextureParameterIivEXT?$AA@ 00000001401d3898     glew32s:glew.obj
 0003:000278b8       ??_C@_0BK@MNKIOBHH@glTextureParameterIuivEXT?$AA@ 00000001401d38b8     glew32s:glew.obj
 0003:000278d8       ??_C@_0BH@NGFENBKL@glTextureParameterfEXT?$AA@ 00000001401d38d8     glew32s:glew.obj
 0003:000278f8       ??_C@_0BI@NCONACJB@glTextureParameterfvEXT?$AA@ 00000001401d38f8     glew32s:glew.obj
 0003:00027918       ??_C@_0BH@FEAEEGHK@glTextureParameteriEXT?$AA@ 00000001401d3918     glew32s:glew.obj
 0003:00027938       ??_C@_0BI@CDLLLAEE@glTextureParameterivEXT?$AA@ 00000001401d3938     glew32s:glew.obj
 0003:00027958       ??_C@_0BJ@MHNDMBOO@glTextureRenderbufferEXT?$AA@ 00000001401d3958     glew32s:glew.obj
 0003:00027978       ??_C@_0BH@HDNJNIDA@glTextureSubImage1DEXT?$AA@ 00000001401d3978     glew32s:glew.obj
 0003:00027998       ??_C@_0BH@PFENKKJO@glTextureSubImage2DEXT?$AA@ 00000001401d3998     glew32s:glew.obj
 0003:000279b8       ??_C@_0BH@DOBBHJDL@glTextureSubImage3DEXT?$AA@ 00000001401d39b8     glew32s:glew.obj
 0003:000279d8       ??_C@_0BG@CAIFHBPG@glUnmapNamedBufferEXT?$AA@ 00000001401d39d8     glew32s:glew.obj
 0003:000279f8       ??_C@_0BM@CFIMGCMJ@glVertexArrayColorOffsetEXT?$AA@ 00000001401d39f8     glew32s:glew.obj
 0003:00027a20       ??_C@_0BP@HFLJMDEG@glVertexArrayEdgeFlagOffsetEXT?$AA@ 00000001401d3a20     glew32s:glew.obj
 0003:00027a48       ??_C@_0BP@LMBGFCAJ@glVertexArrayFogCoordOffsetEXT?$AA@ 00000001401d3a48     glew32s:glew.obj
 0003:00027a70       ??_C@_0BM@INBHJNCB@glVertexArrayIndexOffsetEXT?$AA@ 00000001401d3a70     glew32s:glew.obj
 0003:00027a98       ??_C@_0CE@JHDLNPEP@glVertexArrayMultiTexCoordOffset@ 00000001401d3a98     glew32s:glew.obj
 0003:00027ac8       ??_C@_0BN@OADCKOIN@glVertexArrayNormalOffsetEXT?$AA@ 00000001401d3ac8     glew32s:glew.obj
 0003:00027af0       ??_C@_0CF@GIDHOCLP@glVertexArraySecondaryColorOffse@ 00000001401d3af0     glew32s:glew.obj
 0003:00027b20       ??_C@_0BP@MNIAODGP@glVertexArrayTexCoordOffsetEXT?$AA@ 00000001401d3b20     glew32s:glew.obj
 0003:00027b48       ??_C@_0CE@DPMBMKCD@glVertexArrayVertexAttribDivisor@ 00000001401d3b48     glew32s:glew.obj
 0003:00027b78       ??_C@_0CE@ONCNHCKI@glVertexArrayVertexAttribIOffset@ 00000001401d3b78     glew32s:glew.obj
 0003:00027ba8       ??_C@_0CD@JHIOFFOE@glVertexArrayVertexAttribOffsetE@ 00000001401d3ba8     glew32s:glew.obj
 0003:00027bd8       ??_C@_0BN@DMLCFCEO@glVertexArrayVertexOffsetEXT?$AA@ 00000001401d3bd8     glew32s:glew.obj
 0003:00027c00       ??_C@_0BI@PNJOCEBL@glDiscardFramebufferEXT?$AA@ 00000001401d3c00     glew32s:glew.obj
 0003:00027c20       ??_C@_0BB@KFCINMDO@glDrawBuffersEXT?$AA@ 00000001401d3c20     glew32s:glew.obj
 0003:00027c38       ??_C@_0BG@PJOFEKKJ@glColorMaskIndexedEXT?$AA@ 00000001401d3c38     glew32s:glew.obj
 0003:00027c58       ??_C@_0BE@FCCIJFGK@glDisableIndexedEXT?$AA@ 00000001401d3c58     glew32s:glew.obj
 0003:00027c70       ??_C@_0BD@PNIDDKHK@glEnableIndexedEXT?$AA@ 00000001401d3c70     glew32s:glew.obj
 0003:00027c88       ??_C@_0BI@NHMIOCJB@glGetBooleanIndexedvEXT?$AA@ 00000001401d3c88     glew32s:glew.obj
 0003:00027ca8       ??_C@_0BI@HCFKGNEO@glGetIntegerIndexedvEXT?$AA@ 00000001401d3ca8     glew32s:glew.obj
 0003:00027cc8       ??_C@_0BG@LNLGELCG@glIsEnabledIndexedEXT?$AA@ 00000001401d3cc8     glew32s:glew.obj
 0003:00027ce8       ??_C@_0BM@KJAPMOME@glBlendEquationSeparateiEXT?$AA@ 00000001401d3ce8     glew32s:glew.obj
 0003:00027d10       ??_C@_0BE@JCMJMOPG@glBlendEquationiEXT?$AA@ 00000001401d3d10     glew32s:glew.obj
 0003:00027d28       ??_C@_0BI@NHFGIAGG@glBlendFuncSeparateiEXT?$AA@ 00000001401d3d28     glew32s:glew.obj
 0003:00027d48       ??_C@_0BA@BGLHIKNE@glBlendFunciEXT?$AA@ 00000001401d3d48     glew32s:glew.obj
 0003:00027d60       ??_C@_0BA@NABLMNPN@glColorMaskiEXT?$AA@ 00000001401d3d60     glew32s:glew.obj
 0003:00027d78       ??_C@_0O@BPPGAKOP@glDisableiEXT?$AA@ 00000001401d3d78     glew32s:glew.obj
 0003:00027d88       ??_C@_0N@IPALBFKO@glEnableiEXT?$AA@ 00000001401d3d88     glew32s:glew.obj
 0003:00027d98       ??_C@_0BA@JHALEPIH@glIsEnablediEXT?$AA@ 00000001401d3d98     glew32s:glew.obj
 0003:00027db0       ??_C@_0BM@ONBCDBGC@glDrawElementsBaseVertexEXT?$AA@ 00000001401d3db0     glew32s:glew.obj
 0003:00027dd8       ??_C@_0CF@PCIGGAEH@glDrawElementsInstancedBaseVerte@ 00000001401d3dd8     glew32s:glew.obj
 0003:00027e08       ??_C@_0CB@ODHLAPJE@glDrawRangeElementsBaseVertexEXT@ 00000001401d3e08     glew32s:glew.obj
 0003:00027e30       ??_C@_0CB@LFEFAOBM@glMultiDrawElementsBaseVertexEXT@ 00000001401d3e30     glew32s:glew.obj
 0003:00027e58       ??_C@_0BJ@EGCHCMIN@glDrawArraysInstancedEXT?$AA@ 00000001401d3e58     glew32s:glew.obj
 0003:00027e78       ??_C@_0BL@CPGJMID@glDrawElementsInstancedEXT?$AA@ 00000001401d3e78     glew32s:glew.obj
 0003:00027e98       ??_C@_0BH@GFFILNEF@glDrawRangeElementsEXT?$AA@ 00000001401d3e98     glew32s:glew.obj
 0003:00027eb8       ??_C@_0BL@CEEFABGA@glBufferStorageExternalEXT?$AA@ 00000001401d3eb8     glew32s:glew.obj
 0003:00027ed8       ??_C@_0CA@CHNMPEGN@glNamedBufferStorageExternalEXT?$AA@ 00000001401d3ed8     glew32s:glew.obj
 0003:00027f00       ??_C@_0BF@FOOIEJCC@glFogCoordPointerEXT?$AA@ 00000001401d3f00     glew32s:glew.obj
 0003:00027f20       ??_C@_0P@CHEMEAE@glFogCoorddEXT?$AA@ 00000001401d3f20     glew32s:glew.obj
 0003:00027f38       ??_C@_0BA@JEFAJMPN@glFogCoorddvEXT?$AA@ 00000001401d3f38     glew32s:glew.obj
 0003:00027f50       ??_C@_0P@HILEJHGE@glFogCoordfEXT?$AA@ 00000001401d3f50     glew32s:glew.obj
 0003:00027f68       ??_C@_0BA@NJJIDNPG@glFogCoordfvEXT?$AA@ 00000001401d3f68     glew32s:glew.obj
 0003:00027f80       ??_C@_0BL@ONAJABIJ@glFragmentColorMaterialEXT?$AA@ 00000001401d3f80     glew32s:glew.obj
 0003:00027fa0       ??_C@_0BJ@GLEACBFL@glFragmentLightModelfEXT?$AA@ 00000001401d3fa0     glew32s:glew.obj
 0003:00027fc0       ??_C@_0BK@GPONOEHN@glFragmentLightModelfvEXT?$AA@ 00000001401d3fc0     glew32s:glew.obj
 0003:00027fe0       ??_C@_0BJ@OJBALGIK@glFragmentLightModeliEXT?$AA@ 00000001401d3fe0     glew32s:glew.obj
 0003:00028000       ??_C@_0BK@JOLLFGKI@glFragmentLightModelivEXT?$AA@ 00000001401d4000     glew32s:glew.obj
 0003:00028020       ??_C@_0BE@NIGBINNN@glFragmentLightfEXT?$AA@ 00000001401d4020     glew32s:glew.obj
 0003:00028038       ??_C@_0BF@GLIFODME@glFragmentLightfvEXT?$AA@ 00000001401d4038     glew32s:glew.obj
 0003:00028058       ??_C@_0BE@FKDBBKAM@glFragmentLightiEXT?$AA@ 00000001401d4058     glew32s:glew.obj
 0003:00028070       ??_C@_0BF@JKNDFBBB@glFragmentLightivEXT?$AA@ 00000001401d4070     glew32s:glew.obj
 0003:00028090       ??_C@_0BH@ONMJAANB@glFragmentMaterialfEXT?$AA@ 00000001401d4090     glew32s:glew.obj
 0003:000280b0       ??_C@_0BI@GCAGAHGC@glFragmentMaterialfvEXT?$AA@ 00000001401d40b0     glew32s:glew.obj
 0003:000280d0       ??_C@_0BH@GPJJJHAA@glFragmentMaterialiEXT?$AA@ 00000001401d40d0     glew32s:glew.obj
 0003:000280f0       ??_C@_0BI@JDFALFLH@glFragmentMaterialivEXT?$AA@ 00000001401d40f0     glew32s:glew.obj
 0003:00028110       ??_C@_0BI@FBNGEJKH@glGetFragmentLightfvEXT?$AA@ 00000001401d4110     glew32s:glew.obj
 0003:00028130       ??_C@_0BI@KAIAPLHC@glGetFragmentLightivEXT?$AA@ 00000001401d4130     glew32s:glew.obj
 0003:00028150       ??_C@_0BL@IOBNCGAM@glGetFragmentMaterialfvEXT?$AA@ 00000001401d4150     glew32s:glew.obj
 0003:00028170       ??_C@_0BL@HPELJENJ@glGetFragmentMaterialivEXT?$AA@ 00000001401d4170     glew32s:glew.obj
 0003:00028190       ??_C@_0P@DAHIMMEM@glLightEnviEXT?$AA@ 00000001401d4190     glew32s:glew.obj
 0003:000281a8       ??_C@_0BF@GOMLACDI@glBlitFramebufferEXT?$AA@ 00000001401d41a8     glew32s:glew.obj
 0003:000281c8       ??_C@_0CE@IGIMMIPN@glRenderbufferStorageMultisample@ 00000001401d41c8     glew32s:glew.obj
 0003:000281f8       ??_C@_0BF@EMIECBAK@glBindFramebufferEXT?$AA@ 00000001401d41f8     glew32s:glew.obj
 0003:00028218       ??_C@_0BG@GLKALDNN@glBindRenderbufferEXT?$AA@ 00000001401d4218     glew32s:glew.obj
 0003:00028238       ??_C@_0BM@GOHPHGGE@glCheckFramebufferStatusEXT?$AA@ 00000001401d4238     glew32s:glew.obj
 0003:00028260       ??_C@_0BI@NPEJNLO@glDeleteFramebuffersEXT?$AA@ 00000001401d4260     glew32s:glew.obj
 0003:00028280       ??_C@_0BJ@FCLEPNJL@glDeleteRenderbuffersEXT?$AA@ 00000001401d4280     glew32s:glew.obj
 0003:000282a0       ??_C@_0BN@BAGKOCJP@glFramebufferRenderbufferEXT?$AA@ 00000001401d42a0     glew32s:glew.obj
 0003:000282c8       ??_C@_0BK@DDHFDNIL@glFramebufferTexture1DEXT?$AA@ 00000001401d42c8     glew32s:glew.obj
 0003:000282e8       ??_C@_0BK@LFOBEPCF@glFramebufferTexture2DEXT?$AA@ 00000001401d42e8     glew32s:glew.obj
 0003:00028308       ??_C@_0BK@HOLNJMIA@glFramebufferTexture3DEXT?$AA@ 00000001401d4308     glew32s:glew.obj
 0003:00028328       ??_C@_0BF@FFIJGJAM@glGenFramebuffersEXT?$AA@ 00000001401d4328     glew32s:glew.obj
 0003:00028348       ??_C@_0BG@HHIDFCMP@glGenRenderbuffersEXT?$AA@ 00000001401d4348     glew32s:glew.obj
 0003:00028368       ??_C@_0BE@CIGLHJJK@glGenerateMipmapEXT?$AA@ 00000001401d4368     glew32s:glew.obj
 0003:00028380       ??_C@_0CJ@GLBPNGII@glGetFramebufferAttachmentParame@ 00000001401d4380     glew32s:glew.obj
 0003:000283b8       ??_C@_0CA@NHMNLBAE@glGetRenderbufferParameterivEXT?$AA@ 00000001401d43b8     glew32s:glew.obj
 0003:000283e0       ??_C@_0BD@MIGPBMHK@glIsFramebufferEXT?$AA@ 00000001401d43e0     glew32s:glew.obj
 0003:000283f8       ??_C@_0BE@DLCBCJNM@glIsRenderbufferEXT?$AA@ 00000001401d43f8     glew32s:glew.obj
 0003:00028410       ??_C@_0BJ@NPDAOAPK@glRenderbufferStorageEXT?$AA@ 00000001401d4410     glew32s:glew.obj
 0003:00028430       ??_C@_0BI@DLCHGKBN@glFramebufferTextureEXT?$AA@ 00000001401d4430     glew32s:glew.obj
 0003:00028450       ??_C@_0BM@GHJGPNOI@glFramebufferTextureFaceEXT?$AA@ 00000001401d4450     glew32s:glew.obj
 0003:00028478       ??_C@_0BH@PKNCEEOM@glProgramParameteriEXT?$AA@ 00000001401d4478     glew32s:glew.obj
 0003:00028498       ??_C@_0BN@FHPFOAIA@glProgramEnvParameters4fvEXT?$AA@ 00000001401d4498     glew32s:glew.obj
 0003:000284c0       ??_C@_0BP@JDOGGDOI@glProgramLocalParameters4fvEXT?$AA@ 00000001401d44c0     glew32s:glew.obj
 0003:000284e8       ??_C@_0BK@DNBDABFG@glBindFragDataLocationEXT?$AA@ 00000001401d44e8     glew32s:glew.obj
 0003:00028508       ??_C@_0BJ@EJLFAMEH@glGetFragDataLocationEXT?$AA@ 00000001401d4508     glew32s:glew.obj
 0003:00028528       ??_C@_0BD@FFGAODEC@glGetUniformuivEXT?$AA@ 00000001401d4528     glew32s:glew.obj
 0003:00028540       ??_C@_0BI@KAPFBDGP@glGetVertexAttribIivEXT?$AA@ 00000001401d4540     glew32s:glew.obj
 0003:00028560       ??_C@_0BJ@BMGMODAO@glGetVertexAttribIuivEXT?$AA@ 00000001401d4560     glew32s:glew.obj
 0003:00028580       ??_C@_0BA@OOCMDNJI@glUniform1uiEXT?$AA@ 00000001401d4580     glew32s:glew.obj
 0003:00028598       ??_C@_0BB@GNAFBLGL@glUniform1uivEXT?$AA@ 00000001401d4598     glew32s:glew.obj
 0003:000285b0       ??_C@_0BA@NPMECHAF@glUniform2uiEXT?$AA@ 00000001401d45b0     glew32s:glew.obj
 0003:000285c8       ??_C@_0BB@ODIKBMII@glUniform2uivEXT?$AA@ 00000001401d45c8     glew32s:glew.obj
 0003:000285e0       ??_C@_0BA@HJLDCMLB@glUniform3uiEXT?$AA@ 00000001401d45e0     glew32s:glew.obj
 0003:000285f8       ??_C@_0BB@CPCABMBG@glUniform3uivEXT?$AA@ 00000001401d45f8     glew32s:glew.obj
 0003:00028610       ??_C@_0BA@LMBEBCDP@glUniform4uiEXT?$AA@ 00000001401d4610     glew32s:glew.obj
 0003:00028628       ??_C@_0BB@CFOFBFAP@glUniform4uivEXT?$AA@ 00000001401d4628     glew32s:glew.obj
 0003:00028640       ??_C@_0BF@JIMLDDMF@glVertexAttribI1iEXT?$AA@ 00000001401d4640     glew32s:glew.obj
 0003:00028660       ??_C@_0BG@HIKJNBCM@glVertexAttribI1ivEXT?$AA@ 00000001401d4660     glew32s:glew.obj
 0003:00028680       ??_C@_0BG@OOANBDJP@glVertexAttribI1uiEXT?$AA@ 00000001401d4680     glew32s:glew.obj
 0003:000286a0       ??_C@_0BH@PDGBKPOG@glVertexAttribI1uivEXT?$AA@ 00000001401d46a0     glew32s:glew.obj
 0003:000286c0       ??_C@_0BF@BOFPEBGL@glVertexAttribI2iEXT?$AA@ 00000001401d46c0     glew32s:glew.obj
 0003:000286e0       ??_C@_0BG@EJEBMLLB@glVertexAttribI2ivEXT?$AA@ 00000001401d46e0     glew32s:glew.obj
 0003:00028700       ??_C@_0BG@NPOFAJAC@glVertexAttribI2uiEXT?$AA@ 00000001401d4700     glew32s:glew.obj
 0003:00028720       ??_C@_0BH@HNOOKIAF@glVertexAttribI2uivEXT?$AA@ 00000001401d4720     glew32s:glew.obj
 0003:00028740       ??_C@_0BF@NFADJCMO@glVertexAttribI3iEXT?$AA@ 00000001401d4740     glew32s:glew.obj
 0003:00028760       ??_C@_0BG@OPDGMAAF@glVertexAttribI3ivEXT?$AA@ 00000001401d4760     glew32s:glew.obj
 0003:00028780       ??_C@_0BG@HJJCACLG@glVertexAttribI3uiEXT?$AA@ 00000001401d4780     glew32s:glew.obj
 0003:000287a0       ??_C@_0BH@LBEEKIJL@glVertexAttribI3uivEXT?$AA@ 00000001401d47a0     glew32s:glew.obj
 0003:000287c0       ??_C@_0BG@EAFGAOEI@glVertexAttribI4bvEXT?$AA@ 00000001401d47c0     glew32s:glew.obj
 0003:000287e0       ??_C@_0BF@MIAGKCHG@glVertexAttribI4iEXT?$AA@ 00000001401d47e0     glew32s:glew.obj
 0003:00028800       ??_C@_0BG@CKJBPOIL@glVertexAttribI4ivEXT?$AA@ 00000001401d4800     glew32s:glew.obj
 0003:00028820       ??_C@_0BG@IINMNPHG@glVertexAttribI4svEXT?$AA@ 00000001401d4820     glew32s:glew.obj
 0003:00028840       ??_C@_0BH@NBEGFBEB@glVertexAttribI4ubvEXT?$AA@ 00000001401d4840     glew32s:glew.obj
 0003:00028860       ??_C@_0BG@LMDFDMDI@glVertexAttribI4uiEXT?$AA@ 00000001401d4860     glew32s:glew.obj
 0003:00028880       ??_C@_0BH@LLIBKBIC@glVertexAttribI4uivEXT?$AA@ 00000001401d4880     glew32s:glew.obj
 0003:000288a0       ??_C@_0BH@BJMMIAHP@glVertexAttribI4usvEXT?$AA@ 00000001401d48a0     glew32s:glew.obj
 0003:000288c0       ??_C@_0BK@FIAOAACI@glVertexAttribIPointerEXT?$AA@ 00000001401d48c0     glew32s:glew.obj
 0003:000288e0       ??_C@_0BC@HDKNAHKO@glGetHistogramEXT?$AA@ 00000001401d48e0     glew32s:glew.obj
 0003:000288f8       ??_C@_0BN@POFKAIPA@glGetHistogramParameterfvEXT?$AA@ 00000001401d48f8     glew32s:glew.obj
 0003:00028920       ??_C@_0BN@PAMLKCF@glGetHistogramParameterivEXT?$AA@ 00000001401d4920     glew32s:glew.obj
 0003:00028948       ??_C@_0P@MHPDBJJK@glGetMinmaxEXT?$AA@ 00000001401d4948     glew32s:glew.obj
 0003:00028960       ??_C@_0BK@LHKCMDIM@glGetMinmaxParameterfvEXT?$AA@ 00000001401d4960     glew32s:glew.obj
 0003:00028980       ??_C@_0BK@EGPEHBFJ@glGetMinmaxParameterivEXT?$AA@ 00000001401d4980     glew32s:glew.obj
 0003:000289a0       ??_C@_0P@NJHKLCL@glHistogramEXT?$AA@ 00000001401d49a0     glew32s:glew.obj
 0003:000289b8       ??_C@_0M@CMBCKEAN@glMinmaxEXT?$AA@ 00000001401d49b8     glew32s:glew.obj
 0003:000289c8       ??_C@_0BE@INOGIHMN@glResetHistogramEXT?$AA@ 00000001401d49c8     glew32s:glew.obj
 0003:000289e0       ??_C@_0BB@ICGNPJGJ@glResetMinmaxEXT?$AA@ 00000001401d49e0     glew32s:glew.obj
 0003:000289f8       ??_C@_0P@JNIENPPF@glIndexFuncEXT?$AA@ 00000001401d49f8     glew32s:glew.obj
 0003:00028a10       ??_C@_0BD@FDMMOKEF@glIndexMaterialEXT?$AA@ 00000001401d4a10     glew32s:glew.obj
 0003:00028a28       ??_C@_0BJ@DNDEEHPM@glVertexAttribDivisorEXT?$AA@ 00000001401d4a28     glew32s:glew.obj
 0003:00028a48       ??_C@_0BC@BMGBGAIC@glApplyTextureEXT?$AA@ 00000001401d4a48     glew32s:glew.obj
 0003:00028a60       ??_C@_0BC@NKGLGGFG@glTextureLightEXT?$AA@ 00000001401d4a60     glew32s:glew.obj
 0003:00028a78       ??_C@_0BF@PBKCOGKF@glTextureMaterialEXT?$AA@ 00000001401d4a78     glew32s:glew.obj
 0003:00028a98       ??_C@_0BM@MKNCFBOJ@glFlushMappedBufferRangeEXT?$AA@ 00000001401d4a98     glew32s:glew.obj
 0003:00028ac0       ??_C@_0BE@KOCGOKON@glMapBufferRangeEXT?$AA@ 00000001401d4ac0     glew32s:glew.obj
 0003:00028ad8       ??_C@_0BG@CFMEKMO@glBufferStorageMemEXT?$AA@ 00000001401d4ad8     glew32s:glew.obj
 0003:00028af8       ??_C@_0BJ@HONOPFKE@glCreateMemoryObjectsEXT?$AA@ 00000001401d4af8     glew32s:glew.obj
 0003:00028b18       ??_C@_0BJ@DAIMHILK@glDeleteMemoryObjectsEXT?$AA@ 00000001401d4b18     glew32s:glew.obj
 0003:00028b38       ??_C@_0CA@BBJBIJOO@glGetMemoryObjectParameterivEXT?$AA@ 00000001401d4b38     glew32s:glew.obj
 0003:00028b60       ??_C@_0BI@KNHNFAED@glGetUnsignedBytei_vEXT?$AA@ 00000001401d4b60     glew32s:glew.obj
 0003:00028b80       ??_C@_0BG@NLHPDBNE@glGetUnsignedBytevEXT?$AA@ 00000001401d4b80     glew32s:glew.obj
 0003:00028ba0       ??_C@_0BE@NOLJNHIA@glIsMemoryObjectEXT?$AA@ 00000001401d4ba0     glew32s:glew.obj
 0003:00028bb8       ??_C@_0BN@MNKFHIOI@glMemoryObjectParameterivEXT?$AA@ 00000001401d4bb8     glew32s:glew.obj
 0003:00028be0       ??_C@_0BL@HKOLKGGL@glNamedBufferStorageMemEXT?$AA@ 00000001401d4be0     glew32s:glew.obj
 0003:00028c00       ??_C@_0BF@MBGGLELE@glTexStorageMem1DEXT?$AA@ 00000001401d4c00     glew32s:glew.obj
 0003:00028c20       ??_C@_0BF@EHPCMGBK@glTexStorageMem2DEXT?$AA@ 00000001401d4c20     glew32s:glew.obj
 0003:00028c40       ??_C@_0CA@IJKOJMEH@glTexStorageMem2DMultisampleEXT?$AA@ 00000001401d4c40     glew32s:glew.obj
 0003:00028c68       ??_C@_0BF@IMKOBFLP@glTexStorageMem3DEXT?$AA@ 00000001401d4c68     glew32s:glew.obj
 0003:00028c88       ??_C@_0CA@OAIFHAE@glTexStorageMem3DMultisampleEXT?$AA@ 00000001401d4c88     glew32s:glew.obj
 0003:00028cb0       ??_C@_0BJ@IDKLPCDC@glTextureStorageMem1DEXT?$AA@ 00000001401d4cb0     glew32s:glew.obj
 0003:00028cd0       ??_C@_0BJ@FDPIAJM@glTextureStorageMem2DEXT?$AA@ 00000001401d4cd0     glew32s:glew.obj
 0003:00028cf0       ??_C@_0CE@KHGODFPD@glTextureStorageMem2DMultisample@ 00000001401d4cf0     glew32s:glew.obj
 0003:00028d20       ??_C@_0BJ@MOGDFDDJ@glTextureStorageMem3DEXT?$AA@ 00000001401d4d20     glew32s:glew.obj
 0003:00028d40       ??_C@_0CE@CAMIPOLA@glTextureStorageMem3DMultisample@ 00000001401d4d40     glew32s:glew.obj
 0003:00028d70       ??_C@_0BE@DEGOEJME@glImportMemoryFdEXT?$AA@ 00000001401d4d70     glew32s:glew.obj
 0003:00028d88       ??_C@_0BN@CKFFNNNB@glImportMemoryWin32HandleEXT?$AA@ 00000001401d4d88     glew32s:glew.obj
 0003:00028db0       ??_C@_0BL@PJGPALAN@glImportMemoryWin32NameEXT?$AA@ 00000001401d4db0     glew32s:glew.obj
 0003:00028dd0       ??_C@_0BF@MOHHALAE@glMultiDrawArraysEXT?$AA@ 00000001401d4dd0     glew32s:glew.obj
 0003:00028df0       ??_C@_0BH@CPIJKLBJ@glMultiDrawElementsEXT?$AA@ 00000001401d4df0     glew32s:glew.obj
 0003:00028e10       ??_C@_0BN@DONCMJNJ@glMultiDrawArraysIndirectEXT?$AA@ 00000001401d4e10     glew32s:glew.obj
 0003:00028e38       ??_C@_0BP@KEOLKIEL@glMultiDrawElementsIndirectEXT?$AA@ 00000001401d4e38     glew32s:glew.obj
 0003:00028e60       ??_C@_0BA@CBHHDJML@glSampleMaskEXT?$AA@ 00000001401d4e60     glew32s:glew.obj
 0003:00028e78       ??_C@_0BD@GLCOCHJL@glSamplePatternEXT?$AA@ 00000001401d4e78     glew32s:glew.obj
 0003:00028e90       ??_C@_0CF@CPGMNF@glFramebufferTexture2DMultisampl@ 00000001401d4e90     glew32s:glew.obj
 0003:00028ec0       ??_C@_0BI@DENHBPGD@glDrawBuffersIndexedEXT?$AA@ 00000001401d4ec0     glew32s:glew.obj
 0003:00028ee0       ??_C@_0BD@BOMCJKNB@glGetIntegeri_vEXT?$AA@ 00000001401d4ee0     glew32s:glew.obj
 0003:00028ef8       ??_C@_0BH@LHJKGCNM@glReadBufferIndexedEXT?$AA@ 00000001401d4ef8     glew32s:glew.obj
 0003:00028f18       ??_C@_0BA@MJCEHDBE@glColorTableEXT?$AA@ 00000001401d4f18     glew32s:glew.obj
 0003:00028f30       ??_C@_0BD@FEIIDOBH@glGetColorTableEXT?$AA@ 00000001401d4f30     glew32s:glew.obj
 0003:00028f48       ??_C@_0BO@HFKPENKH@glGetColorTableParameterfvEXT?$AA@ 00000001401d4f48     glew32s:glew.obj
 0003:00028f70       ??_C@_0BO@IEPJPPHC@glGetColorTableParameterivEXT?$AA@ 00000001401d4f70     glew32s:glew.obj
 0003:00028f98       ??_C@_0CC@PADIMNCH@glGetPixelTransformParameterfvEX@ 00000001401d4f98     glew32s:glew.obj
 0003:00028fc0       ??_C@_0CC@BGOHPPC@glGetPixelTransformParameterivEX@ 00000001401d4fc0     glew32s:glew.obj
 0003:00028fe8       ??_C@_0BO@OIDCEPNJ@glPixelTransformParameterfEXT?$AA@ 00000001401d4fe8     glew32s:glew.obj
 0003:00029010       ??_C@_0BP@GMNIHEBP@glPixelTransformParameterfvEXT?$AA@ 00000001401d5010     glew32s:glew.obj
 0003:00029038       ??_C@_0BO@GKGCNIAI@glPixelTransformParameteriEXT?$AA@ 00000001401d5038     glew32s:glew.obj
 0003:00029060       ??_C@_0BP@JNIOMGMK@glPixelTransformParameterivEXT?$AA@ 00000001401d5060     glew32s:glew.obj
 0003:00029088       ??_C@_0BF@KOFPPNHP@glPointParameterfEXT?$AA@ 00000001401d5088     glew32s:glew.obj
 0003:000290a8       ??_C@_0BG@FDCLBPHA@glPointParameterfvEXT?$AA@ 00000001401d50a8     glew32s:glew.obj
 0003:000290c8       ??_C@_0BD@KFMIOCPC@glPolygonOffsetEXT?$AA@ 00000001401d50c8     glew32s:glew.obj
 0003:000290e0       ??_C@_0BI@NHICBIDO@glPolygonOffsetClampEXT?$AA@ 00000001401d50e0     glew32s:glew.obj
 0003:00029100       ??_C@_0BF@NCFNHLBM@glProvokingVertexEXT?$AA@ 00000001401d5100     glew32s:glew.obj
 0003:00029120       ??_C@_0BH@ODBMFL@glCoverageModulationNV?$AA@ 00000001401d5120     glew32s:glew.obj
 0003:00029140       ??_C@_0BM@PNPEKHAP@glCoverageModulationTableNV?$AA@ 00000001401d5140     glew32s:glew.obj
 0003:00029168       ??_C@_0BP@BPAIGOCB@glGetCoverageModulationTableNV?$AA@ 00000001401d5168     glew32s:glew.obj
 0003:00029190       ??_C@_0BD@KNNAFCHA@glRasterSamplesEXT?$AA@ 00000001401d5190     glew32s:glew.obj
 0003:000291a8       ??_C@_0BA@GEOKAOFO@glBeginSceneEXT?$AA@ 00000001401d51a8     glew32s:glew.obj
 0003:000291c0       ??_C@_0O@JONIHJEJ@glEndSceneEXT?$AA@ 00000001401d51c0     glew32s:glew.obj
 0003:000291d0       ??_C@_0BG@MGNMPMLP@glSecondaryColor3bEXT?$AA@ 00000001401d51d0     glew32s:glew.obj
 0003:000291f0       ??_C@_0BH@MICHFOMB@glSecondaryColor3bvEXT?$AA@ 00000001401d51f0     glew32s:glew.obj
 0003:00029210       ??_C@_0BG@EJJMAJBP@glSecondaryColor3dEXT?$AA@ 00000001401d5210     glew32s:glew.obj
 0003:00029230       ??_C@_0BH@BOHOLNNM@glSecondaryColor3dvEXT?$AA@ 00000001401d5230     glew32s:glew.obj
 0003:00029250       ??_C@_0BG@DDFMFKHP@glSecondaryColor3fEXT?$AA@ 00000001401d5250     glew32s:glew.obj
 0003:00029270       ??_C@_0BH@FDLGBMNH@glSecondaryColor3fvEXT?$AA@ 00000001401d5270     glew32s:glew.obj
 0003:00029290       ??_C@_0BG@LBAMMNKO@glSecondaryColor3iEXT?$AA@ 00000001401d5290     glew32s:glew.obj
 0003:000292b0       ??_C@_0BH@KCOAKOAC@glSecondaryColor3ivEXT?$AA@ 00000001401d52b0     glew32s:glew.obj
 0003:000292d0       ??_C@_0BG@JLFMECIN@glSecondaryColor3sEXT?$AA@ 00000001401d52d0     glew32s:glew.obj
 0003:000292f0       ??_C@_0BH@KNIPPP@glSecondaryColor3svEXT?$AA@ 00000001401d52f0     glew32s:glew.obj
 0003:00029310       ??_C@_0BH@EDJEFNKA@glSecondaryColor3ubEXT?$AA@ 00000001401d5310     glew32s:glew.obj
 0003:00029330       ??_C@_0BI@EFKKBLJF@glSecondaryColor3ubvEXT?$AA@ 00000001401d5330     glew32s:glew.obj
 0003:00029350       ??_C@_0BH@DEEEGMLB@glSecondaryColor3uiEXT?$AA@ 00000001401d5350     glew32s:glew.obj
 0003:00029370       ??_C@_0BI@CPGNOLFG@glSecondaryColor3uivEXT?$AA@ 00000001401d5370     glew32s:glew.obj
 0003:00029390       ??_C@_0BH@BOBEODJC@glSecondaryColor3usEXT?$AA@ 00000001401d5390     glew32s:glew.obj
 0003:000293b0       ??_C@_0BI@INCAMKKL@glSecondaryColor3usvEXT?$AA@ 00000001401d53b0     glew32s:glew.obj
 0003:000293d0       ??_C@_0BL@FIJPIBAP@glSecondaryColorPointerEXT?$AA@ 00000001401d53d0     glew32s:glew.obj
 0003:000293f0       ??_C@_0BG@PGFOMLNN@glDeleteSemaphoresEXT?$AA@ 00000001401d53f0     glew32s:glew.obj
 0003:00029410       ??_C@_0BD@JENALPIA@glGenSemaphoresEXT?$AA@ 00000001401d5410     glew32s:glew.obj
 0003:00029428       ??_C@_0CA@BJDDLPEO@glGetSemaphoreParameterui64vEXT?$AA@ 00000001401d5428     glew32s:glew.obj
 0003:00029450       ??_C@_0BB@PJIOCKGF@glIsSemaphoreEXT?$AA@ 00000001401d5450     glew32s:glew.obj
 0003:00029468       ??_C@_0BN@MFAHEOEI@glSemaphoreParameterui64vEXT?$AA@ 00000001401d5468     glew32s:glew.obj
 0003:00029490       ??_C@_0BF@JFIHODAC@glSignalSemaphoreEXT?$AA@ 00000001401d5490     glew32s:glew.obj
 0003:000294b0       ??_C@_0BD@ONFJMPBK@glWaitSemaphoreEXT?$AA@ 00000001401d54b0     glew32s:glew.obj
 0003:000294c8       ??_C@_0BH@BOEDCAHK@glImportSemaphoreFdEXT?$AA@ 00000001401d54c8     glew32s:glew.obj
 0003:000294e8       ??_C@_0CA@GNAKADEC@glImportSemaphoreWin32HandleEXT?$AA@ 00000001401d54e8     glew32s:glew.obj
 0003:00029510       ??_C@_0BO@FAAAMFIN@glImportSemaphoreWin32NameEXT?$AA@ 00000001401d5510     glew32s:glew.obj
 0003:00029538       ??_C@_0BD@CLOMPIJI@glActiveProgramEXT?$AA@ 00000001401d5538     glew32s:glew.obj
 0003:00029550       ??_C@_0BJ@MMLKJOPF@glCreateShaderProgramEXT?$AA@ 00000001401d5550     glew32s:glew.obj
 0003:00029570       ??_C@_0BG@POJOCCGB@glUseShaderProgramEXT?$AA@ 00000001401d5570     glew32s:glew.obj
 0003:00029590       ??_C@_0BG@CKIKMCEP@glBindImageTextureEXT?$AA@ 00000001401d5590     glew32s:glew.obj
 0003:000295b0       ??_C@_0BD@KBDDKHKJ@glMemoryBarrierEXT?$AA@ 00000001401d55b0     glew32s:glew.obj
 0003:000295c8       ??_C@_0BO@GPIFFICC@glClearPixelLocalStorageuiEXT?$AA@ 00000001401d55c8     glew32s:glew.obj
 0003:000295f0       ??_C@_0CG@INBPFOFA@glFramebufferPixelLocalStorageSi@ 00000001401d55f0     glew32s:glew.obj
 0003:00029620       ??_C@_0CJ@PEBEGOBL@glGetFramebufferPixelLocalStorag@ 00000001401d5620     glew32s:glew.obj
 0003:00029658       ??_C@_0BH@FDKOMMKA@glTexPageCommitmentEXT?$AA@ 00000001401d5658     glew32s:glew.obj
 0003:00029678       ??_C@_0BL@KBMIFFAF@glTexturePageCommitmentEXT?$AA@ 00000001401d5678     glew32s:glew.obj
 0003:00029698       ??_C@_0BH@FDKCPLFK@glActiveStencilFaceEXT?$AA@ 00000001401d5698     glew32s:glew.obj
 0003:000296b8       ??_C@_0BD@MHDOEKHM@glTexSubImage1DEXT?$AA@ 00000001401d56b8     glew32s:glew.obj
 0003:000296d0       ??_C@_0BD@EBKKDINC@glTexSubImage2DEXT?$AA@ 00000001401d56d0     glew32s:glew.obj
 0003:000296e8       ??_C@_0BD@IKPGOLHH@glTexSubImage3DEXT?$AA@ 00000001401d56e8     glew32s:glew.obj
 0003:00029700       ??_C@_0BA@CBIBMEOO@glTexImage3DEXT?$AA@ 00000001401d5700     glew32s:glew.obj
 0003:00029718       ??_C@_0BN@JOIJDPEJ@glFramebufferTextureLayerEXT?$AA@ 00000001401d5718     glew32s:glew.obj
 0003:00029740       ??_C@_0P@HPBILOFJ@glTexBufferEXT?$AA@ 00000001401d5740     glew32s:glew.obj
 0003:00029758       ??_C@_0BC@GAABLOFL@glClearColorIiEXT?$AA@ 00000001401d5758     glew32s:glew.obj
 0003:00029770       ??_C@_0BD@PJECGHFB@glClearColorIuiEXT?$AA@ 00000001401d5770     glew32s:glew.obj
 0003:00029788       ??_C@_0BI@KHAOHHCO@glGetTexParameterIivEXT?$AA@ 00000001401d5788     glew32s:glew.obj
 0003:000297a8       ??_C@_0BJ@BNLAGJGM@glGetTexParameterIuivEXT?$AA@ 00000001401d57a8     glew32s:glew.obj
 0003:000297c8       ??_C@_0BF@JNFNNNEN@glTexParameterIivEXT?$AA@ 00000001401d57c8     glew32s:glew.obj
 0003:000297e8       ??_C@_0BG@MJDBAKCE@glTexParameterIuivEXT?$AA@ 00000001401d57e8     glew32s:glew.obj
 0003:00029808       ??_C@_0BJ@LJBONNCK@glAreTexturesResidentEXT?$AA@ 00000001401d5808     glew32s:glew.obj
 0003:00029828       ??_C@_0BB@EBKBDLEN@glBindTextureEXT?$AA@ 00000001401d5828     glew32s:glew.obj
 0003:00029840       ??_C@_0BE@LDBFENJM@glDeleteTexturesEXT?$AA@ 00000001401d5840     glew32s:glew.obj
 0003:00029858       ??_C@_0BB@GJAECBGO@glGenTexturesEXT?$AA@ 00000001401d5858     glew32s:glew.obj
 0003:00029870       ??_C@_0P@BLOFBLLL@glIsTextureEXT?$AA@ 00000001401d5870     glew32s:glew.obj
 0003:00029888       ??_C@_0BI@BHBMGKCN@glPrioritizeTexturesEXT?$AA@ 00000001401d5888     glew32s:glew.obj
 0003:000298a8       ??_C@_0BD@HJCKBGND@glTextureNormalEXT?$AA@ 00000001401d58a8     glew32s:glew.obj
 0003:000298c0       ??_C@_0BC@FENIPDJP@glTexStorage1DEXT?$AA@ 00000001401d58c0     glew32s:glew.obj
 0003:000298d8       ??_C@_0BC@NCEMIBDB@glTexStorage2DEXT?$AA@ 00000001401d58d8     glew32s:glew.obj
 0003:000298f0       ??_C@_0BC@BJBAFCJE@glTexStorage3DEXT?$AA@ 00000001401d58f0     glew32s:glew.obj
 0003:00029908       ??_C@_0BG@LIPEIIGD@glTextureStorage1DEXT?$AA@ 00000001401d5908     glew32s:glew.obj
 0003:00029928       ??_C@_0BG@DOGAPKMN@glTextureStorage2DEXT?$AA@ 00000001401d5928     glew32s:glew.obj
 0003:00029948       ??_C@_0BG@PFDMCJGI@glTextureStorage3DEXT?$AA@ 00000001401d5948     glew32s:glew.obj
 0003:00029968       ??_C@_0BB@NFAHHPNG@glTextureViewEXT?$AA@ 00000001401d5968     glew32s:glew.obj
 0003:00029980       ??_C@_0BI@IJOKHKKO@glGetQueryObjecti64vEXT?$AA@ 00000001401d5980     glew32s:glew.obj
 0003:000299a0       ??_C@_0BJ@LBCFKCPE@glGetQueryObjectui64vEXT?$AA@ 00000001401d59a0     glew32s:glew.obj
 0003:000299c0       ??_C@_0BM@BLDJBDM@glBeginTransformFeedbackEXT?$AA@ 00000001401d59c0     glew32s:glew.obj
 0003:000299e8       ??_C@_0BE@NCJCCMMA@glBindBufferBaseEXT?$AA@ 00000001401d59e8     glew32s:glew.obj
 0003:00029a00       ??_C@_0BG@PKIAJGM@glBindBufferOffsetEXT?$AA@ 00000001401d5a00     glew32s:glew.obj
 0003:00029a20       ??_C@_0BF@MIMIIPJK@glBindBufferRangeEXT?$AA@ 00000001401d5a20     glew32s:glew.obj
 0003:00029a40       ??_C@_0BK@MBPEMJDO@glEndTransformFeedbackEXT?$AA@ 00000001401d5a40     glew32s:glew.obj
 0003:00029a60       ??_C@_0CB@KMFIHAIP@glGetTransformFeedbackVaryingEXT@ 00000001401d5a60     glew32s:glew.obj
 0003:00029a88       ??_C@_0BP@LKJENMKJ@glTransformFeedbackVaryingsEXT?$AA@ 00000001401d5a88     glew32s:glew.obj
 0003:00029ab0       ??_C@_0BC@PBPJCKDL@glArrayElementEXT?$AA@ 00000001401d5ab0     glew32s:glew.obj
 0003:00029ac8       ??_C@_0BC@JAGLJGCN@glColorPointerEXT?$AA@ 00000001401d5ac8     glew32s:glew.obj
 0003:00029ae0       ??_C@_0BA@NIBACEFN@glDrawArraysEXT?$AA@ 00000001401d5ae0     glew32s:glew.obj
 0003:00029af8       ??_C@_0BF@LIECLKLC@glEdgeFlagPointerEXT?$AA@ 00000001401d5af8     glew32s:glew.obj
 0003:00029b18       ??_C@_0BC@DOBCGHJI@glIndexPointerEXT?$AA@ 00000001401d5b18     glew32s:glew.obj
 0003:00029b30       ??_C@_0BD@IBDDMGPJ@glNormalPointerEXT?$AA@ 00000001401d5b30     glew32s:glew.obj
 0003:00029b48       ??_C@_0BF@PKEIBLPO@glTexCoordPointerEXT?$AA@ 00000001401d5b48     glew32s:glew.obj
 0003:00029b68       ??_C@_0BD@IDICNFAP@glVertexPointerEXT?$AA@ 00000001401d5b68     glew32s:glew.obj
 0003:00029b80       ??_C@_0BC@DNLFBIGC@glBindArraySetEXT?$AA@ 00000001401d5b80     glew32s:glew.obj
 0003:00029b98       ??_C@_0BE@PBHAIMBF@glCreateArraySetExt?$AA@ 00000001401d5b98     glew32s:glew.obj
 0003:00029bb0       ??_C@_0BF@JOLIMLIE@glDeleteArraySetsEXT?$AA@ 00000001401d5bb0     glew32s:glew.obj
 0003:00029bd0       ??_C@_0BI@EOFDCPBG@glGetVertexAttribLdvEXT?$AA@ 00000001401d5bd0     glew32s:glew.obj
 0003:00029bf0       ??_C@_0CE@JMHKNOOK@glVertexArrayVertexAttribLOffset@ 00000001401d5bf0     glew32s:glew.obj
 0003:00029c20       ??_C@_0BF@DCGDNIND@glVertexAttribL1dEXT?$AA@ 00000001401d5c20     glew32s:glew.obj
 0003:00029c40       ??_C@_0BG@IMNHMMJG@glVertexAttribL1dvEXT?$AA@ 00000001401d5c40     glew32s:glew.obj
 0003:00029c60       ??_C@_0BF@LEPHKKHN@glVertexAttribL2dEXT?$AA@ 00000001401d5c60     glew32s:glew.obj
 0003:00029c80       ??_C@_0BG@LNDPNGAL@glVertexAttribL2dvEXT?$AA@ 00000001401d5c80     glew32s:glew.obj
 0003:00029ca0       ??_C@_0BF@HPKLHJNI@glVertexAttribL3dEXT?$AA@ 00000001401d5ca0     glew32s:glew.obj
 0003:00029cc0       ??_C@_0BG@BLEINNLP@glVertexAttribL3dvEXT?$AA@ 00000001401d5cc0     glew32s:glew.obj
 0003:00029ce0       ??_C@_0BF@GCKOEJGA@glVertexAttribL4dEXT?$AA@ 00000001401d5ce0     glew32s:glew.obj
 0003:00029d00       ??_C@_0BG@NOOPODDB@glVertexAttribL4dvEXT?$AA@ 00000001401d5d00     glew32s:glew.obj
 0003:00029d20       ??_C@_0BK@MAKNHHDI@glVertexAttribLPointerEXT?$AA@ 00000001401d5d20     glew32s:glew.obj
 0003:00029d40       ??_C@_0BH@DBHOHHOM@glBeginVertexShaderEXT?$AA@ 00000001401d5d40     glew32s:glew.obj
 0003:00029d60       ??_C@_0BI@PBIFACEG@glBindLightParameterEXT?$AA@ 00000001401d5d60     glew32s:glew.obj
 0003:00029d80       ??_C@_0BL@PJABJA@glBindMaterialParameterEXT?$AA@ 00000001401d5d80     glew32s:glew.obj
 0003:00029da0       ??_C@_0BD@GMIEHABM@glBindParameterEXT?$AA@ 00000001401d5da0     glew32s:glew.obj
 0003:00029db8       ??_C@_0BJ@HCMLCIKI@glBindTexGenParameterEXT?$AA@ 00000001401d5db8     glew32s:glew.obj
 0003:00029dd8       ??_C@_0BO@GMKMPNFP@glBindTextureUnitParameterEXT?$AA@ 00000001401d5dd8     glew32s:glew.obj
 0003:00029e00       ??_C@_0BG@OCJKPIFF@glBindVertexShaderEXT?$AA@ 00000001401d5e00     glew32s:glew.obj
 0003:00029e20       ??_C@_0BI@FECIKLIE@glDeleteVertexShaderEXT?$AA@ 00000001401d5e20     glew32s:glew.obj
